ARM GAS  /var/folders/hp/45mn71hd0ps5f5pnytxy5bt00000gn/T//ccy0eSy4.s 			page 1


   1              		.cpu cortex-m7
   2              		.arch armv7e-m
   3              		.fpu fpv5-d16
   4              		.eabi_attribute 28, 1
   5              		.eabi_attribute 20, 1
   6              		.eabi_attribute 21, 1
   7              		.eabi_attribute 23, 3
   8              		.eabi_attribute 24, 1
   9              		.eabi_attribute 25, 1
  10              		.eabi_attribute 26, 1
  11              		.eabi_attribute 30, 2
  12              		.eabi_attribute 34, 1
  13              		.eabi_attribute 18, 4
  14              		.file	"SynthV4.cpp"
  15              		.text
  16              	.Ltext0:
  17              		.cfi_sections	.debug_frame
  18              		.section	.text._ZN5daisy9ParameterD2Ev,"axG",%progbits,_ZN5daisy9ParameterD5Ev,comdat
  19              		.align	1
  20              		.p2align 2,,3
  21              		.weak	_ZN5daisy9ParameterD2Ev
  22              		.syntax unified
  23              		.thumb
  24              		.thumb_func
  26              	_ZN5daisy9ParameterD2Ev:
  27              	.LVL0:
  28              	.LFB1689:
  29              		.file 1 "../../DaisyExamples/libDaisy/src/hid/parameter.h"
   1:../../DaisyExamples/libDaisy/src/hid/parameter.h **** #pragma once
   2:../../DaisyExamples/libDaisy/src/hid/parameter.h **** #include <stdint.h>
   3:../../DaisyExamples/libDaisy/src/hid/parameter.h **** #include "hid/ctrl.h"
   4:../../DaisyExamples/libDaisy/src/hid/parameter.h **** 
   5:../../DaisyExamples/libDaisy/src/hid/parameter.h **** namespace daisy
   6:../../DaisyExamples/libDaisy/src/hid/parameter.h **** {
   7:../../DaisyExamples/libDaisy/src/hid/parameter.h **** /** @addtogroup controls
   8:../../DaisyExamples/libDaisy/src/hid/parameter.h ****     @{
   9:../../DaisyExamples/libDaisy/src/hid/parameter.h **** */
  10:../../DaisyExamples/libDaisy/src/hid/parameter.h **** 
  11:../../DaisyExamples/libDaisy/src/hid/parameter.h **** /**      Simple parameter mapping tool that takes a 0-1 input from an hid_ctrl. */
  12:../../DaisyExamples/libDaisy/src/hid/parameter.h **** class Parameter
  13:../../DaisyExamples/libDaisy/src/hid/parameter.h **** {
  14:../../DaisyExamples/libDaisy/src/hid/parameter.h ****   public:
  15:../../DaisyExamples/libDaisy/src/hid/parameter.h ****     /** Curves are applied to the output signal */
  16:../../DaisyExamples/libDaisy/src/hid/parameter.h ****     enum Curve
  17:../../DaisyExamples/libDaisy/src/hid/parameter.h ****     {
  18:../../DaisyExamples/libDaisy/src/hid/parameter.h ****         LINEAR,      /**< Linear curve */
  19:../../DaisyExamples/libDaisy/src/hid/parameter.h ****         EXPONENTIAL, /**< Exponential curve */
  20:../../DaisyExamples/libDaisy/src/hid/parameter.h ****         LOGARITHMIC, /**<  Logarithmic curve */
  21:../../DaisyExamples/libDaisy/src/hid/parameter.h ****         CUBE,        /**< Cubic curve */
  22:../../DaisyExamples/libDaisy/src/hid/parameter.h ****         LAST,        /**< Final enum element. */
  23:../../DaisyExamples/libDaisy/src/hid/parameter.h ****     };
  24:../../DaisyExamples/libDaisy/src/hid/parameter.h ****     /** Constructor */
  25:../../DaisyExamples/libDaisy/src/hid/parameter.h ****     Parameter() {}
  26:../../DaisyExamples/libDaisy/src/hid/parameter.h ****     /** Destructor */
  27:../../DaisyExamples/libDaisy/src/hid/parameter.h ****     ~Parameter() {}
  30              		.loc 1 27 5 view -0
  31              		.cfi_startproc
ARM GAS  /var/folders/hp/45mn71hd0ps5f5pnytxy5bt00000gn/T//ccy0eSy4.s 			page 2


  32              		@ args = 0, pretend = 0, frame = 0
  33              		@ frame_needed = 0, uses_anonymous_args = 0
  34              		@ link register save eliminated.
  35              	.LBB366:
  36              	.LBI366:
  37              		.file 2 "../../DaisyExamples/libDaisy/src/hid/ctrl.h"
   1:../../DaisyExamples/libDaisy/src/hid/ctrl.h **** #pragma once
   2:../../DaisyExamples/libDaisy/src/hid/ctrl.h **** #ifndef DSY_KNOB_H
   3:../../DaisyExamples/libDaisy/src/hid/ctrl.h **** #define DSY_KNOB_H /**< & */
   4:../../DaisyExamples/libDaisy/src/hid/ctrl.h **** #include <stdint.h>
   5:../../DaisyExamples/libDaisy/src/hid/ctrl.h **** 
   6:../../DaisyExamples/libDaisy/src/hid/ctrl.h **** #ifdef __cplusplus
   7:../../DaisyExamples/libDaisy/src/hid/ctrl.h **** namespace daisy
   8:../../DaisyExamples/libDaisy/src/hid/ctrl.h **** {
   9:../../DaisyExamples/libDaisy/src/hid/ctrl.h **** /**
  10:../../DaisyExamples/libDaisy/src/hid/ctrl.h ****     @brief Hardware Interface for control inputs \n 
  11:../../DaisyExamples/libDaisy/src/hid/ctrl.h ****     Primarily designed for ADC input controls such as \n 
  12:../../DaisyExamples/libDaisy/src/hid/ctrl.h ****     potentiometers, and control voltage. \n 
  13:../../DaisyExamples/libDaisy/src/hid/ctrl.h ****     @author Stephen Hensley
  14:../../DaisyExamples/libDaisy/src/hid/ctrl.h ****     @date November 2019
  15:../../DaisyExamples/libDaisy/src/hid/ctrl.h ****     @ingroup controls
  16:../../DaisyExamples/libDaisy/src/hid/ctrl.h **** */
  17:../../DaisyExamples/libDaisy/src/hid/ctrl.h **** class AnalogControl
  18:../../DaisyExamples/libDaisy/src/hid/ctrl.h **** {
  19:../../DaisyExamples/libDaisy/src/hid/ctrl.h ****   public:
  20:../../DaisyExamples/libDaisy/src/hid/ctrl.h ****     /** Constructor */
  21:../../DaisyExamples/libDaisy/src/hid/ctrl.h ****     AnalogControl() {}
  22:../../DaisyExamples/libDaisy/src/hid/ctrl.h ****     /** destructor */
  23:../../DaisyExamples/libDaisy/src/hid/ctrl.h ****     ~AnalogControl() {}
  38              		.loc 2 23 5 view .LVU1
  39              		.loc 2 23 5 is_stmt 0 view .LVU2
  40              	.LBE366:
  41              		.loc 1 27 19 view .LVU3
  42 0000 7047     		bx	lr
  43              		.cfi_endproc
  44              	.LFE1689:
  46              		.weak	_ZN5daisy9ParameterD1Ev
  47              		.thumb_set _ZN5daisy9ParameterD1Ev,_ZN5daisy9ParameterD2Ev
  48 0002 00BF     		.section	.text._ZN5daisy5ColorD2Ev,"axG",%progbits,_ZN5daisy5ColorD5Ev,comdat
  49              		.align	1
  50              		.p2align 2,,3
  51              		.weak	_ZN5daisy5ColorD2Ev
  52              		.syntax unified
  53              		.thumb
  54              		.thumb_func
  56              	_ZN5daisy5ColorD2Ev:
  57              	.LVL1:
  58              	.LFB1852:
  59              		.file 3 "../../DaisyExamples/libDaisy/src/util/color.h"
   1:../../DaisyExamples/libDaisy/src/util/color.h **** /* 
   2:../../DaisyExamples/libDaisy/src/util/color.h **** TODO:
   3:../../DaisyExamples/libDaisy/src/util/color.h **** - Add Blend(), Scale(), etc.
   4:../../DaisyExamples/libDaisy/src/util/color.h **** - I'd also like to change the way the Color names are accessed.
   5:../../DaisyExamples/libDaisy/src/util/color.h **** */
   6:../../DaisyExamples/libDaisy/src/util/color.h **** /**        I'd like for it to be easy and not `Color::PresetColor::Foo`
   7:../../DaisyExamples/libDaisy/src/util/color.h **** */
   8:../../DaisyExamples/libDaisy/src/util/color.h **** /** - There's no way to change a color once its been created (without unintuitively reiniting it).
ARM GAS  /var/folders/hp/45mn71hd0ps5f5pnytxy5bt00000gn/T//ccy0eSy4.s 			page 3


   9:../../DaisyExamples/libDaisy/src/util/color.h **** */
  10:../../DaisyExamples/libDaisy/src/util/color.h **** #pragma once
  11:../../DaisyExamples/libDaisy/src/util/color.h **** #ifndef DSY_COLOR_H
  12:../../DaisyExamples/libDaisy/src/util/color.h **** #define DSY_COLOR_H
  13:../../DaisyExamples/libDaisy/src/util/color.h **** #include <stdint.h>
  14:../../DaisyExamples/libDaisy/src/util/color.h **** 
  15:../../DaisyExamples/libDaisy/src/util/color.h **** 
  16:../../DaisyExamples/libDaisy/src/util/color.h **** namespace daisy
  17:../../DaisyExamples/libDaisy/src/util/color.h **** {
  18:../../DaisyExamples/libDaisy/src/util/color.h **** /** @addtogroup utility
  19:../../DaisyExamples/libDaisy/src/util/color.h ****     @{
  20:../../DaisyExamples/libDaisy/src/util/color.h **** */
  21:../../DaisyExamples/libDaisy/src/util/color.h **** 
  22:../../DaisyExamples/libDaisy/src/util/color.h **** /** Class for handling simple colors */
  23:../../DaisyExamples/libDaisy/src/util/color.h **** class Color
  24:../../DaisyExamples/libDaisy/src/util/color.h **** {
  25:../../DaisyExamples/libDaisy/src/util/color.h ****   public:
  26:../../DaisyExamples/libDaisy/src/util/color.h ****     Color() {}
  27:../../DaisyExamples/libDaisy/src/util/color.h ****     ~Color() {}
  60              		.loc 3 27 5 is_stmt 1 view -0
  61              		.cfi_startproc
  62              		@ args = 0, pretend = 0, frame = 0
  63              		@ frame_needed = 0, uses_anonymous_args = 0
  64              		@ link register save eliminated.
  65              		.loc 3 27 15 is_stmt 0 view .LVU5
  66 0000 7047     		bx	lr
  67              		.cfi_endproc
  68              	.LFE1852:
  70              		.weak	_ZN5daisy5ColorD1Ev
  71              		.thumb_set _ZN5daisy5ColorD1Ev,_ZN5daisy5ColorD2Ev
  72 0002 00BF     		.section	.text._ZN5daisy8DaisyPodD2Ev,"axG",%progbits,_ZN5daisy8DaisyPodD5Ev,comdat
  73              		.align	1
  74              		.p2align 2,,3
  75              		.weak	_ZN5daisy8DaisyPodD2Ev
  76              		.syntax unified
  77              		.thumb
  78              		.thumb_func
  80              	_ZN5daisy8DaisyPodD2Ev:
  81              	.LVL2:
  82              	.LFB2565:
  83              		.file 4 "../../DaisyExamples/libDaisy/src/daisy_pod.h"
   1:../../DaisyExamples/libDaisy/src/daisy_pod.h **** #pragma once
   2:../../DaisyExamples/libDaisy/src/daisy_pod.h **** #ifndef DSY_POD_BSP_H
   3:../../DaisyExamples/libDaisy/src/daisy_pod.h **** #define DSY_POD_BSP_H
   4:../../DaisyExamples/libDaisy/src/daisy_pod.h **** 
   5:../../DaisyExamples/libDaisy/src/daisy_pod.h **** #include "daisy_seed.h"
   6:../../DaisyExamples/libDaisy/src/daisy_pod.h **** 
   7:../../DaisyExamples/libDaisy/src/daisy_pod.h **** namespace daisy
   8:../../DaisyExamples/libDaisy/src/daisy_pod.h **** {
   9:../../DaisyExamples/libDaisy/src/daisy_pod.h **** /**
  10:../../DaisyExamples/libDaisy/src/daisy_pod.h ****     @brief Class that handles initializing all of the hardware specific to the Daisy Patch Board. \
  11:../../DaisyExamples/libDaisy/src/daisy_pod.h ****     Helper funtions are also in place to provide easy access to built-in controls and peripherals.
  12:../../DaisyExamples/libDaisy/src/daisy_pod.h ****     @author Stephen Hensley
  13:../../DaisyExamples/libDaisy/src/daisy_pod.h ****     @date November 2019
  14:../../DaisyExamples/libDaisy/src/daisy_pod.h ****     @ingroup boards
  15:../../DaisyExamples/libDaisy/src/daisy_pod.h **** */
  16:../../DaisyExamples/libDaisy/src/daisy_pod.h **** class DaisyPod
ARM GAS  /var/folders/hp/45mn71hd0ps5f5pnytxy5bt00000gn/T//ccy0eSy4.s 			page 4


  17:../../DaisyExamples/libDaisy/src/daisy_pod.h **** {
  18:../../DaisyExamples/libDaisy/src/daisy_pod.h ****   public:
  19:../../DaisyExamples/libDaisy/src/daisy_pod.h ****     /** Switches */
  20:../../DaisyExamples/libDaisy/src/daisy_pod.h ****     enum Sw
  21:../../DaisyExamples/libDaisy/src/daisy_pod.h ****     {
  22:../../DaisyExamples/libDaisy/src/daisy_pod.h ****         BUTTON_1,    /** & */
  23:../../DaisyExamples/libDaisy/src/daisy_pod.h ****         BUTTON_2,    /** & */
  24:../../DaisyExamples/libDaisy/src/daisy_pod.h ****         BUTTON_LAST, /** &  */
  25:../../DaisyExamples/libDaisy/src/daisy_pod.h ****     };
  26:../../DaisyExamples/libDaisy/src/daisy_pod.h **** 
  27:../../DaisyExamples/libDaisy/src/daisy_pod.h ****     /** Knobs */
  28:../../DaisyExamples/libDaisy/src/daisy_pod.h ****     enum Knob
  29:../../DaisyExamples/libDaisy/src/daisy_pod.h ****     {
  30:../../DaisyExamples/libDaisy/src/daisy_pod.h ****         KNOB_1,    /** &  */
  31:../../DaisyExamples/libDaisy/src/daisy_pod.h ****         KNOB_2,    /** & */
  32:../../DaisyExamples/libDaisy/src/daisy_pod.h ****         KNOB_LAST, /** & */
  33:../../DaisyExamples/libDaisy/src/daisy_pod.h ****     };
  34:../../DaisyExamples/libDaisy/src/daisy_pod.h **** 
  35:../../DaisyExamples/libDaisy/src/daisy_pod.h ****     DaisyPod() {}
  36:../../DaisyExamples/libDaisy/src/daisy_pod.h ****     ~DaisyPod() {}
  84              		.loc 4 36 5 is_stmt 1 view -0
  85              		.cfi_startproc
  86              		@ args = 0, pretend = 0, frame = 0
  87              		@ frame_needed = 0, uses_anonymous_args = 0
  88              		@ link register save eliminated.
  89              	.LBB367:
  90              	.LBI367:
  91              		.file 5 "../../DaisyExamples/libDaisy/src/hid/midi.h"
   1:../../DaisyExamples/libDaisy/src/hid/midi.h **** #pragma once
   2:../../DaisyExamples/libDaisy/src/hid/midi.h **** #ifndef DSY_MIDI_H
   3:../../DaisyExamples/libDaisy/src/hid/midi.h **** #define DSY_MIDI_H
   4:../../DaisyExamples/libDaisy/src/hid/midi.h **** 
   5:../../DaisyExamples/libDaisy/src/hid/midi.h **** #include <stdint.h>
   6:../../DaisyExamples/libDaisy/src/hid/midi.h **** #include <stdlib.h>
   7:../../DaisyExamples/libDaisy/src/hid/midi.h **** #include <algorithm>
   8:../../DaisyExamples/libDaisy/src/hid/midi.h **** #include "per/uart.h"
   9:../../DaisyExamples/libDaisy/src/hid/midi.h **** #include "util/ringbuffer.h"
  10:../../DaisyExamples/libDaisy/src/hid/midi.h **** #include "util/FIFO.h"
  11:../../DaisyExamples/libDaisy/src/hid/midi.h **** #include "hid/midi_parser.h"
  12:../../DaisyExamples/libDaisy/src/hid/midi.h **** #include "hid/usb_midi.h"
  13:../../DaisyExamples/libDaisy/src/hid/midi.h **** #include "sys/dma.h"
  14:../../DaisyExamples/libDaisy/src/hid/midi.h **** #include "sys/system.h"
  15:../../DaisyExamples/libDaisy/src/hid/midi.h **** 
  16:../../DaisyExamples/libDaisy/src/hid/midi.h **** namespace daisy
  17:../../DaisyExamples/libDaisy/src/hid/midi.h **** {
  18:../../DaisyExamples/libDaisy/src/hid/midi.h **** /** @brief   Transport layer for sending and receiving MIDI data over UART
  19:../../DaisyExamples/libDaisy/src/hid/midi.h ****  *  @details This is the mode of communication used for TRS and DIN MIDI
  20:../../DaisyExamples/libDaisy/src/hid/midi.h ****  *           There is an additional 2kB of RAM data used within this class
  21:../../DaisyExamples/libDaisy/src/hid/midi.h ****  *           for processing bulk data from the UART peripheral
  22:../../DaisyExamples/libDaisy/src/hid/midi.h ****  *  @ingroup midi
  23:../../DaisyExamples/libDaisy/src/hid/midi.h **** */
  24:../../DaisyExamples/libDaisy/src/hid/midi.h **** class MidiUartTransport
  25:../../DaisyExamples/libDaisy/src/hid/midi.h **** {
  26:../../DaisyExamples/libDaisy/src/hid/midi.h ****   public:
  27:../../DaisyExamples/libDaisy/src/hid/midi.h ****     typedef void (*MidiRxParseCallback)(uint8_t* data,
  28:../../DaisyExamples/libDaisy/src/hid/midi.h ****                                         size_t   size,
  29:../../DaisyExamples/libDaisy/src/hid/midi.h ****                                         void*    context);
ARM GAS  /var/folders/hp/45mn71hd0ps5f5pnytxy5bt00000gn/T//ccy0eSy4.s 			page 5


  30:../../DaisyExamples/libDaisy/src/hid/midi.h **** 
  31:../../DaisyExamples/libDaisy/src/hid/midi.h ****     MidiUartTransport() {}
  32:../../DaisyExamples/libDaisy/src/hid/midi.h ****     ~MidiUartTransport() {}
  33:../../DaisyExamples/libDaisy/src/hid/midi.h **** 
  34:../../DaisyExamples/libDaisy/src/hid/midi.h ****     /** @brief Configuration structure for UART MIDI */
  35:../../DaisyExamples/libDaisy/src/hid/midi.h ****     struct Config
  36:../../DaisyExamples/libDaisy/src/hid/midi.h ****     {
  37:../../DaisyExamples/libDaisy/src/hid/midi.h ****         UartHandler::Config::Peripheral periph;
  38:../../DaisyExamples/libDaisy/src/hid/midi.h ****         dsy_gpio_pin                    rx;
  39:../../DaisyExamples/libDaisy/src/hid/midi.h ****         dsy_gpio_pin                    tx;
  40:../../DaisyExamples/libDaisy/src/hid/midi.h **** 
  41:../../DaisyExamples/libDaisy/src/hid/midi.h ****         /** Pointer to buffer for DMA UART rx byte transfer in background.
  42:../../DaisyExamples/libDaisy/src/hid/midi.h ****          *
  43:../../DaisyExamples/libDaisy/src/hid/midi.h ****          *  @details By default this uses a shared buffer in DMA_BUFFER_MEM_SECTION,
  44:../../DaisyExamples/libDaisy/src/hid/midi.h ****          *           which can only be utilized for a single UART peripheral. To
  45:../../DaisyExamples/libDaisy/src/hid/midi.h ****          *           use MIDI with multiple UART peripherals, you must provide your own
  46:../../DaisyExamples/libDaisy/src/hid/midi.h ****          *           buffer, allocated to a DMA-capable memory section.
  47:../../DaisyExamples/libDaisy/src/hid/midi.h ****          */
  48:../../DaisyExamples/libDaisy/src/hid/midi.h ****         uint8_t* rx_buffer;
  49:../../DaisyExamples/libDaisy/src/hid/midi.h **** 
  50:../../DaisyExamples/libDaisy/src/hid/midi.h ****         /** Size in bytes of rx_buffer.
  51:../../DaisyExamples/libDaisy/src/hid/midi.h ****          *
  52:../../DaisyExamples/libDaisy/src/hid/midi.h ****          *  @details This size determines the maximum Rx bytes readable by the UART in the backgrou
  53:../../DaisyExamples/libDaisy/src/hid/midi.h ****          *           By default it's set to the size of the default shared rx_buffer (256 bytes).
  54:../../DaisyExamples/libDaisy/src/hid/midi.h ****          *           While much smaller sizes can be used, data can get missed if the buffer is too
  55:../../DaisyExamples/libDaisy/src/hid/midi.h ****          */
  56:../../DaisyExamples/libDaisy/src/hid/midi.h ****         size_t rx_buffer_size;
  57:../../DaisyExamples/libDaisy/src/hid/midi.h **** 
  58:../../DaisyExamples/libDaisy/src/hid/midi.h ****         Config();
  59:../../DaisyExamples/libDaisy/src/hid/midi.h ****     };
  60:../../DaisyExamples/libDaisy/src/hid/midi.h **** 
  61:../../DaisyExamples/libDaisy/src/hid/midi.h ****     /** @brief Initialization of UART using config struct */
  62:../../DaisyExamples/libDaisy/src/hid/midi.h ****     inline void Init(Config config)
  63:../../DaisyExamples/libDaisy/src/hid/midi.h ****     {
  64:../../DaisyExamples/libDaisy/src/hid/midi.h ****         UartHandler::Config uart_config;
  65:../../DaisyExamples/libDaisy/src/hid/midi.h **** 
  66:../../DaisyExamples/libDaisy/src/hid/midi.h ****         //defaults
  67:../../DaisyExamples/libDaisy/src/hid/midi.h ****         uart_config.baudrate   = 31250;
  68:../../DaisyExamples/libDaisy/src/hid/midi.h ****         uart_config.stopbits   = UartHandler::Config::StopBits::BITS_1;
  69:../../DaisyExamples/libDaisy/src/hid/midi.h ****         uart_config.parity     = UartHandler::Config::Parity::NONE;
  70:../../DaisyExamples/libDaisy/src/hid/midi.h ****         uart_config.mode       = UartHandler::Config::Mode::TX_RX;
  71:../../DaisyExamples/libDaisy/src/hid/midi.h ****         uart_config.wordlength = UartHandler::Config::WordLength::BITS_8;
  72:../../DaisyExamples/libDaisy/src/hid/midi.h **** 
  73:../../DaisyExamples/libDaisy/src/hid/midi.h ****         //user settings
  74:../../DaisyExamples/libDaisy/src/hid/midi.h ****         uart_config.periph        = config.periph;
  75:../../DaisyExamples/libDaisy/src/hid/midi.h ****         uart_config.pin_config.rx = config.rx;
  76:../../DaisyExamples/libDaisy/src/hid/midi.h ****         uart_config.pin_config.tx = config.tx;
  77:../../DaisyExamples/libDaisy/src/hid/midi.h **** 
  78:../../DaisyExamples/libDaisy/src/hid/midi.h ****         rx_buffer      = config.rx_buffer;
  79:../../DaisyExamples/libDaisy/src/hid/midi.h ****         rx_buffer_size = config.rx_buffer_size;
  80:../../DaisyExamples/libDaisy/src/hid/midi.h **** 
  81:../../DaisyExamples/libDaisy/src/hid/midi.h ****         /** zero the buffer to ensure emptiness regardless of source memory */
  82:../../DaisyExamples/libDaisy/src/hid/midi.h ****         std::fill(rx_buffer, rx_buffer + rx_buffer_size, 0);
  83:../../DaisyExamples/libDaisy/src/hid/midi.h **** 
  84:../../DaisyExamples/libDaisy/src/hid/midi.h ****         uart_.Init(uart_config);
  85:../../DaisyExamples/libDaisy/src/hid/midi.h ****     }
  86:../../DaisyExamples/libDaisy/src/hid/midi.h **** 
ARM GAS  /var/folders/hp/45mn71hd0ps5f5pnytxy5bt00000gn/T//ccy0eSy4.s 			page 6


  87:../../DaisyExamples/libDaisy/src/hid/midi.h ****     /** @brief Start the UART peripheral in listening mode.
  88:../../DaisyExamples/libDaisy/src/hid/midi.h ****      *  This will fill an internal data structure in the background */
  89:../../DaisyExamples/libDaisy/src/hid/midi.h ****     inline void StartRx(MidiRxParseCallback parse_callback, void* context)
  90:../../DaisyExamples/libDaisy/src/hid/midi.h ****     {
  91:../../DaisyExamples/libDaisy/src/hid/midi.h ****         parse_context_  = context;
  92:../../DaisyExamples/libDaisy/src/hid/midi.h ****         parse_callback_ = parse_callback;
  93:../../DaisyExamples/libDaisy/src/hid/midi.h ****         dsy_dma_clear_cache_for_buffer((uint8_t*)this,
  94:../../DaisyExamples/libDaisy/src/hid/midi.h ****                                        sizeof(MidiUartTransport));
  95:../../DaisyExamples/libDaisy/src/hid/midi.h ****         uart_.DmaListenStart(
  96:../../DaisyExamples/libDaisy/src/hid/midi.h ****             rx_buffer, rx_buffer_size, MidiUartTransport::rxCallback, this);
  97:../../DaisyExamples/libDaisy/src/hid/midi.h ****     }
  98:../../DaisyExamples/libDaisy/src/hid/midi.h **** 
  99:../../DaisyExamples/libDaisy/src/hid/midi.h ****     /** @brief returns whether the UART peripheral is actively listening in the background or not *
 100:../../DaisyExamples/libDaisy/src/hid/midi.h ****     inline bool RxActive() { return uart_.IsListening(); }
 101:../../DaisyExamples/libDaisy/src/hid/midi.h **** 
 102:../../DaisyExamples/libDaisy/src/hid/midi.h ****     /** @brief This is a no-op for UART transport - Rx is via DMA callback with circular buffer */
 103:../../DaisyExamples/libDaisy/src/hid/midi.h ****     inline void FlushRx() {}
 104:../../DaisyExamples/libDaisy/src/hid/midi.h **** 
 105:../../DaisyExamples/libDaisy/src/hid/midi.h ****     /** @brief sends the buffer of bytes out of the UART peripheral */
 106:../../DaisyExamples/libDaisy/src/hid/midi.h ****     inline void Tx(uint8_t* buff, size_t size) { uart_.PollTx(buff, size); }
 107:../../DaisyExamples/libDaisy/src/hid/midi.h **** 
 108:../../DaisyExamples/libDaisy/src/hid/midi.h ****   private:
 109:../../DaisyExamples/libDaisy/src/hid/midi.h ****     UartHandler         uart_;
 110:../../DaisyExamples/libDaisy/src/hid/midi.h ****     uint8_t*            rx_buffer;
 111:../../DaisyExamples/libDaisy/src/hid/midi.h ****     size_t              rx_buffer_size;
 112:../../DaisyExamples/libDaisy/src/hid/midi.h ****     void*               parse_context_;
 113:../../DaisyExamples/libDaisy/src/hid/midi.h ****     MidiRxParseCallback parse_callback_;
 114:../../DaisyExamples/libDaisy/src/hid/midi.h **** 
 115:../../DaisyExamples/libDaisy/src/hid/midi.h ****     /** Static callback for Uart MIDI that occurs when
 116:../../DaisyExamples/libDaisy/src/hid/midi.h ****          *  new data is available from the peripheral.
 117:../../DaisyExamples/libDaisy/src/hid/midi.h ****          *  The new data is transferred from the peripheral to the
 118:../../DaisyExamples/libDaisy/src/hid/midi.h ****          *  MIDI instance's byte FIFO that feeds the MIDI parser.
 119:../../DaisyExamples/libDaisy/src/hid/midi.h ****          *
 120:../../DaisyExamples/libDaisy/src/hid/midi.h ****          *  TODO: Handle UartHandler errors better/at all.
 121:../../DaisyExamples/libDaisy/src/hid/midi.h ****          *  (If there is a UART error, there's not really any recovery
 122:../../DaisyExamples/libDaisy/src/hid/midi.h ****          *  option at the moment)
 123:../../DaisyExamples/libDaisy/src/hid/midi.h ****          */
 124:../../DaisyExamples/libDaisy/src/hid/midi.h ****     static void rxCallback(uint8_t*            data,
 125:../../DaisyExamples/libDaisy/src/hid/midi.h ****                            size_t              size,
 126:../../DaisyExamples/libDaisy/src/hid/midi.h ****                            void*               context,
 127:../../DaisyExamples/libDaisy/src/hid/midi.h ****                            UartHandler::Result res)
 128:../../DaisyExamples/libDaisy/src/hid/midi.h ****     {
 129:../../DaisyExamples/libDaisy/src/hid/midi.h ****         /** Read context as transport type */
 130:../../DaisyExamples/libDaisy/src/hid/midi.h ****         MidiUartTransport* transport
 131:../../DaisyExamples/libDaisy/src/hid/midi.h ****             = reinterpret_cast<MidiUartTransport*>(context);
 132:../../DaisyExamples/libDaisy/src/hid/midi.h ****         if(res == UartHandler::Result::OK)
 133:../../DaisyExamples/libDaisy/src/hid/midi.h ****         {
 134:../../DaisyExamples/libDaisy/src/hid/midi.h ****             if(transport->parse_callback_)
 135:../../DaisyExamples/libDaisy/src/hid/midi.h ****             {
 136:../../DaisyExamples/libDaisy/src/hid/midi.h ****                 transport->parse_callback_(
 137:../../DaisyExamples/libDaisy/src/hid/midi.h ****                     data, size, transport->parse_context_);
 138:../../DaisyExamples/libDaisy/src/hid/midi.h ****             }
 139:../../DaisyExamples/libDaisy/src/hid/midi.h ****         }
 140:../../DaisyExamples/libDaisy/src/hid/midi.h ****     }
 141:../../DaisyExamples/libDaisy/src/hid/midi.h **** };
 142:../../DaisyExamples/libDaisy/src/hid/midi.h **** 
 143:../../DaisyExamples/libDaisy/src/hid/midi.h **** /**
ARM GAS  /var/folders/hp/45mn71hd0ps5f5pnytxy5bt00000gn/T//ccy0eSy4.s 			page 7


 144:../../DaisyExamples/libDaisy/src/hid/midi.h ****     @brief Simple MIDI Handler \n
 145:../../DaisyExamples/libDaisy/src/hid/midi.h ****     Parses bytes from an input into valid MidiEvents. \n
 146:../../DaisyExamples/libDaisy/src/hid/midi.h ****     The MidiEvents fill a FIFO queue that the user can pop messages from.
 147:../../DaisyExamples/libDaisy/src/hid/midi.h ****     @author shensley
 148:../../DaisyExamples/libDaisy/src/hid/midi.h ****     @date March 2020
 149:../../DaisyExamples/libDaisy/src/hid/midi.h ****     @ingroup midi
 150:../../DaisyExamples/libDaisy/src/hid/midi.h **** */
 151:../../DaisyExamples/libDaisy/src/hid/midi.h **** template <typename Transport>
 152:../../DaisyExamples/libDaisy/src/hid/midi.h **** class MidiHandler
 153:../../DaisyExamples/libDaisy/src/hid/midi.h **** {
 154:../../DaisyExamples/libDaisy/src/hid/midi.h ****   public:
 155:../../DaisyExamples/libDaisy/src/hid/midi.h ****     MidiHandler() {}
 156:../../DaisyExamples/libDaisy/src/hid/midi.h ****     ~MidiHandler() {}
  92              		.loc 5 156 5 view .LVU7
  93              	.LBB368:
  94              	.LBI368:
  95              		.file 6 "../../DaisyExamples/libDaisy/src/util/FIFO.h"
   1:../../DaisyExamples/libDaisy/src/util/FIFO.h **** #pragma once
   2:../../DaisyExamples/libDaisy/src/util/FIFO.h **** 
   3:../../DaisyExamples/libDaisy/src/util/FIFO.h **** #include <stdint.h>
   4:../../DaisyExamples/libDaisy/src/util/FIFO.h **** #include <stddef.h>
   5:../../DaisyExamples/libDaisy/src/util/FIFO.h **** #include <initializer_list>
   6:../../DaisyExamples/libDaisy/src/util/FIFO.h **** 
   7:../../DaisyExamples/libDaisy/src/util/FIFO.h **** namespace daisy
   8:../../DaisyExamples/libDaisy/src/util/FIFO.h **** {
   9:../../DaisyExamples/libDaisy/src/util/FIFO.h **** /** Capacity-independent base class for FIFO. Use FIFO instead. */
  10:../../DaisyExamples/libDaisy/src/util/FIFO.h **** template <typename T>
  11:../../DaisyExamples/libDaisy/src/util/FIFO.h **** class FIFOBase
  12:../../DaisyExamples/libDaisy/src/util/FIFO.h **** {
  13:../../DaisyExamples/libDaisy/src/util/FIFO.h ****   protected:
  14:../../DaisyExamples/libDaisy/src/util/FIFO.h ****     FIFOBase(T* buffer, size_t bufferSize)
  15:../../DaisyExamples/libDaisy/src/util/FIFO.h ****     : buffer_(buffer), bufferSize_(bufferSize), bufferIn_(0), bufferOut_(0)
  16:../../DaisyExamples/libDaisy/src/util/FIFO.h ****     {
  17:../../DaisyExamples/libDaisy/src/util/FIFO.h ****     }
  18:../../DaisyExamples/libDaisy/src/util/FIFO.h **** 
  19:../../DaisyExamples/libDaisy/src/util/FIFO.h ****     FIFOBase(T* buffer, size_t bufferSize, std::initializer_list<T> valuesToAdd)
  20:../../DaisyExamples/libDaisy/src/util/FIFO.h ****     : buffer_(buffer), bufferSize_(bufferSize), bufferIn_(0), bufferOut_(0)
  21:../../DaisyExamples/libDaisy/src/util/FIFO.h ****     {
  22:../../DaisyExamples/libDaisy/src/util/FIFO.h ****         PushBack(valuesToAdd);
  23:../../DaisyExamples/libDaisy/src/util/FIFO.h ****     }
  24:../../DaisyExamples/libDaisy/src/util/FIFO.h **** 
  25:../../DaisyExamples/libDaisy/src/util/FIFO.h ****   public:
  26:../../DaisyExamples/libDaisy/src/util/FIFO.h ****     /** Copies all elements from another FIFO */
  27:../../DaisyExamples/libDaisy/src/util/FIFO.h ****     FIFOBase<T>& operator=(const FIFOBase<T>& other)
  28:../../DaisyExamples/libDaisy/src/util/FIFO.h ****     {
  29:../../DaisyExamples/libDaisy/src/util/FIFO.h ****         bufferIn_ = bufferOut_ = 0;
  30:../../DaisyExamples/libDaisy/src/util/FIFO.h ****         if(!other.IsEmpty())
  31:../../DaisyExamples/libDaisy/src/util/FIFO.h ****         {
  32:../../DaisyExamples/libDaisy/src/util/FIFO.h ****             int readPtr = other.bufferOut_;
  33:../../DaisyExamples/libDaisy/src/util/FIFO.h ****             while((readPtr != other.bufferIn_) && (bufferIn_ < bufferSize_))
  34:../../DaisyExamples/libDaisy/src/util/FIFO.h ****             {
  35:../../DaisyExamples/libDaisy/src/util/FIFO.h ****                 buffer_[bufferIn_++] = other.buffer_[readPtr++];
  36:../../DaisyExamples/libDaisy/src/util/FIFO.h ****                 if(readPtr >= other.bufferSize_)
  37:../../DaisyExamples/libDaisy/src/util/FIFO.h ****                     readPtr -= other.bufferSize_;
  38:../../DaisyExamples/libDaisy/src/util/FIFO.h ****             }
  39:../../DaisyExamples/libDaisy/src/util/FIFO.h ****         }
  40:../../DaisyExamples/libDaisy/src/util/FIFO.h ****         return *this;
ARM GAS  /var/folders/hp/45mn71hd0ps5f5pnytxy5bt00000gn/T//ccy0eSy4.s 			page 8


  41:../../DaisyExamples/libDaisy/src/util/FIFO.h ****     }
  42:../../DaisyExamples/libDaisy/src/util/FIFO.h ****     ~FIFOBase() {}
  43:../../DaisyExamples/libDaisy/src/util/FIFO.h **** 
  44:../../DaisyExamples/libDaisy/src/util/FIFO.h ****     /** Removes all elements from the FIFO */
  45:../../DaisyExamples/libDaisy/src/util/FIFO.h ****     void Clear() { bufferIn_ = bufferOut_ = 0; }
  46:../../DaisyExamples/libDaisy/src/util/FIFO.h **** 
  47:../../DaisyExamples/libDaisy/src/util/FIFO.h ****     /** Adds an element to the back of the buffer, returning true on
  48:../../DaisyExamples/libDaisy/src/util/FIFO.h ****         success */
  49:../../DaisyExamples/libDaisy/src/util/FIFO.h ****     bool PushBack(const T& elementToAdd)
  50:../../DaisyExamples/libDaisy/src/util/FIFO.h ****     {
  51:../../DaisyExamples/libDaisy/src/util/FIFO.h ****         if(!IsFull())
  52:../../DaisyExamples/libDaisy/src/util/FIFO.h ****         {
  53:../../DaisyExamples/libDaisy/src/util/FIFO.h ****             buffer_[bufferIn_++] = elementToAdd;
  54:../../DaisyExamples/libDaisy/src/util/FIFO.h ****             if(bufferIn_ >= bufferSize_)
  55:../../DaisyExamples/libDaisy/src/util/FIFO.h ****                 bufferIn_ -= bufferSize_;
  56:../../DaisyExamples/libDaisy/src/util/FIFO.h ****             return true;
  57:../../DaisyExamples/libDaisy/src/util/FIFO.h ****         }
  58:../../DaisyExamples/libDaisy/src/util/FIFO.h ****         return false;
  59:../../DaisyExamples/libDaisy/src/util/FIFO.h ****     }
  60:../../DaisyExamples/libDaisy/src/util/FIFO.h **** 
  61:../../DaisyExamples/libDaisy/src/util/FIFO.h ****     /** Adds multiple elements and returns the number of elements that were added */
  62:../../DaisyExamples/libDaisy/src/util/FIFO.h ****     int PushBack(std::initializer_list<T> valuesToAdd)
  63:../../DaisyExamples/libDaisy/src/util/FIFO.h ****     {
  64:../../DaisyExamples/libDaisy/src/util/FIFO.h ****         int numAdded = 0;
  65:../../DaisyExamples/libDaisy/src/util/FIFO.h ****         for(const auto& v : valuesToAdd)
  66:../../DaisyExamples/libDaisy/src/util/FIFO.h ****         {
  67:../../DaisyExamples/libDaisy/src/util/FIFO.h ****             if(IsFull())
  68:../../DaisyExamples/libDaisy/src/util/FIFO.h ****                 return numAdded;
  69:../../DaisyExamples/libDaisy/src/util/FIFO.h **** 
  70:../../DaisyExamples/libDaisy/src/util/FIFO.h ****             PushBack(v);
  71:../../DaisyExamples/libDaisy/src/util/FIFO.h ****             numAdded++;
  72:../../DaisyExamples/libDaisy/src/util/FIFO.h ****         }
  73:../../DaisyExamples/libDaisy/src/util/FIFO.h ****         return numAdded;
  74:../../DaisyExamples/libDaisy/src/util/FIFO.h ****     }
  75:../../DaisyExamples/libDaisy/src/util/FIFO.h **** 
  76:../../DaisyExamples/libDaisy/src/util/FIFO.h ****     /** returns a reference to the last element */
  77:../../DaisyExamples/libDaisy/src/util/FIFO.h ****     T& Back()
  78:../../DaisyExamples/libDaisy/src/util/FIFO.h ****     {
  79:../../DaisyExamples/libDaisy/src/util/FIFO.h ****         if(IsEmpty())
  80:../../DaisyExamples/libDaisy/src/util/FIFO.h ****             // invalid, but better not pass a temporary T() object as a reference...
  81:../../DaisyExamples/libDaisy/src/util/FIFO.h ****             return buffer_[0];
  82:../../DaisyExamples/libDaisy/src/util/FIFO.h ****         int idx = bufferIn_ - 1;
  83:../../DaisyExamples/libDaisy/src/util/FIFO.h ****         if(idx < 0)
  84:../../DaisyExamples/libDaisy/src/util/FIFO.h ****             idx += bufferSize_;
  85:../../DaisyExamples/libDaisy/src/util/FIFO.h ****         return buffer_[idx];
  86:../../DaisyExamples/libDaisy/src/util/FIFO.h ****     }
  87:../../DaisyExamples/libDaisy/src/util/FIFO.h **** 
  88:../../DaisyExamples/libDaisy/src/util/FIFO.h ****     /** returns a reference to the last element */
  89:../../DaisyExamples/libDaisy/src/util/FIFO.h ****     const T& Back() const
  90:../../DaisyExamples/libDaisy/src/util/FIFO.h ****     {
  91:../../DaisyExamples/libDaisy/src/util/FIFO.h ****         if(IsEmpty())
  92:../../DaisyExamples/libDaisy/src/util/FIFO.h ****             // invalid, but better not pass a temporary T() object as a reference...
  93:../../DaisyExamples/libDaisy/src/util/FIFO.h ****             return buffer_[0];
  94:../../DaisyExamples/libDaisy/src/util/FIFO.h ****         int idx = bufferIn_ - 1;
  95:../../DaisyExamples/libDaisy/src/util/FIFO.h ****         if(idx < 0)
  96:../../DaisyExamples/libDaisy/src/util/FIFO.h ****             idx += bufferSize_;
  97:../../DaisyExamples/libDaisy/src/util/FIFO.h ****         return buffer_[idx];
ARM GAS  /var/folders/hp/45mn71hd0ps5f5pnytxy5bt00000gn/T//ccy0eSy4.s 			page 9


  98:../../DaisyExamples/libDaisy/src/util/FIFO.h ****     }
  99:../../DaisyExamples/libDaisy/src/util/FIFO.h **** 
 100:../../DaisyExamples/libDaisy/src/util/FIFO.h ****     /** removes and returns an element from the front of the buffer */
 101:../../DaisyExamples/libDaisy/src/util/FIFO.h ****     T PopFront()
 102:../../DaisyExamples/libDaisy/src/util/FIFO.h ****     {
 103:../../DaisyExamples/libDaisy/src/util/FIFO.h ****         if(IsEmpty())
 104:../../DaisyExamples/libDaisy/src/util/FIFO.h ****             return T();
 105:../../DaisyExamples/libDaisy/src/util/FIFO.h ****         else
 106:../../DaisyExamples/libDaisy/src/util/FIFO.h ****         {
 107:../../DaisyExamples/libDaisy/src/util/FIFO.h ****             const auto result = buffer_[bufferOut_];
 108:../../DaisyExamples/libDaisy/src/util/FIFO.h ****             bufferOut_++;
 109:../../DaisyExamples/libDaisy/src/util/FIFO.h ****             if(bufferOut_ >= bufferSize_)
 110:../../DaisyExamples/libDaisy/src/util/FIFO.h ****                 bufferOut_ -= bufferSize_;
 111:../../DaisyExamples/libDaisy/src/util/FIFO.h ****             return result;
 112:../../DaisyExamples/libDaisy/src/util/FIFO.h ****         }
 113:../../DaisyExamples/libDaisy/src/util/FIFO.h ****     }
 114:../../DaisyExamples/libDaisy/src/util/FIFO.h **** 
 115:../../DaisyExamples/libDaisy/src/util/FIFO.h ****     /** returns a copy of the first element */
 116:../../DaisyExamples/libDaisy/src/util/FIFO.h ****     T& Front()
 117:../../DaisyExamples/libDaisy/src/util/FIFO.h ****     {
 118:../../DaisyExamples/libDaisy/src/util/FIFO.h ****         if(IsEmpty())
 119:../../DaisyExamples/libDaisy/src/util/FIFO.h ****             // invalid, but better not pass a temporary T() object as a reference...
 120:../../DaisyExamples/libDaisy/src/util/FIFO.h ****             return buffer_[0];
 121:../../DaisyExamples/libDaisy/src/util/FIFO.h ****         return buffer_[bufferOut_];
 122:../../DaisyExamples/libDaisy/src/util/FIFO.h ****     }
 123:../../DaisyExamples/libDaisy/src/util/FIFO.h **** 
 124:../../DaisyExamples/libDaisy/src/util/FIFO.h ****     /** returns a reference to the first element */
 125:../../DaisyExamples/libDaisy/src/util/FIFO.h ****     const T& Front() const
 126:../../DaisyExamples/libDaisy/src/util/FIFO.h ****     {
 127:../../DaisyExamples/libDaisy/src/util/FIFO.h ****         if(IsEmpty())
 128:../../DaisyExamples/libDaisy/src/util/FIFO.h ****             // invalid, but better not pass a temporary T() object as a reference...
 129:../../DaisyExamples/libDaisy/src/util/FIFO.h ****             return buffer_[0];
 130:../../DaisyExamples/libDaisy/src/util/FIFO.h ****         return buffer_[bufferOut_];
 131:../../DaisyExamples/libDaisy/src/util/FIFO.h ****     }
 132:../../DaisyExamples/libDaisy/src/util/FIFO.h **** 
 133:../../DaisyExamples/libDaisy/src/util/FIFO.h ****     /** Returns true if the buffer contains an element equal to the provided value */
 134:../../DaisyExamples/libDaisy/src/util/FIFO.h ****     bool Contains(const T& element)
 135:../../DaisyExamples/libDaisy/src/util/FIFO.h ****     {
 136:../../DaisyExamples/libDaisy/src/util/FIFO.h ****         auto idx = bufferOut_;
 137:../../DaisyExamples/libDaisy/src/util/FIFO.h ****         while(idx != bufferIn_)
 138:../../DaisyExamples/libDaisy/src/util/FIFO.h ****         {
 139:../../DaisyExamples/libDaisy/src/util/FIFO.h ****             if(buffer_[idx] == element)
 140:../../DaisyExamples/libDaisy/src/util/FIFO.h ****                 return true;
 141:../../DaisyExamples/libDaisy/src/util/FIFO.h ****             idx++;
 142:../../DaisyExamples/libDaisy/src/util/FIFO.h ****             if(idx >= bufferSize_)
 143:../../DaisyExamples/libDaisy/src/util/FIFO.h ****                 idx -= bufferSize_;
 144:../../DaisyExamples/libDaisy/src/util/FIFO.h ****         }
 145:../../DaisyExamples/libDaisy/src/util/FIFO.h ****         return false;
 146:../../DaisyExamples/libDaisy/src/util/FIFO.h ****     }
 147:../../DaisyExamples/libDaisy/src/util/FIFO.h **** 
 148:../../DaisyExamples/libDaisy/src/util/FIFO.h ****     /** Returns the number of elements in the buffer that are equal to the provided value */
 149:../../DaisyExamples/libDaisy/src/util/FIFO.h ****     size_t CountEqualTo(const T& element)
 150:../../DaisyExamples/libDaisy/src/util/FIFO.h ****     {
 151:../../DaisyExamples/libDaisy/src/util/FIFO.h ****         size_t result = 0;
 152:../../DaisyExamples/libDaisy/src/util/FIFO.h ****         size_t idx    = bufferOut_;
 153:../../DaisyExamples/libDaisy/src/util/FIFO.h ****         while(idx != bufferIn_)
 154:../../DaisyExamples/libDaisy/src/util/FIFO.h ****         {
ARM GAS  /var/folders/hp/45mn71hd0ps5f5pnytxy5bt00000gn/T//ccy0eSy4.s 			page 10


 155:../../DaisyExamples/libDaisy/src/util/FIFO.h ****             if(buffer_[idx] == element)
 156:../../DaisyExamples/libDaisy/src/util/FIFO.h ****                 result++;
 157:../../DaisyExamples/libDaisy/src/util/FIFO.h ****             idx++;
 158:../../DaisyExamples/libDaisy/src/util/FIFO.h ****             if(idx >= bufferSize_)
 159:../../DaisyExamples/libDaisy/src/util/FIFO.h ****                 idx -= bufferSize_;
 160:../../DaisyExamples/libDaisy/src/util/FIFO.h ****         }
 161:../../DaisyExamples/libDaisy/src/util/FIFO.h ****         return result;
 162:../../DaisyExamples/libDaisy/src/util/FIFO.h ****     }
 163:../../DaisyExamples/libDaisy/src/util/FIFO.h **** 
 164:../../DaisyExamples/libDaisy/src/util/FIFO.h ****     /** returns true, if the buffer is empty */
 165:../../DaisyExamples/libDaisy/src/util/FIFO.h ****     bool IsEmpty() const { return bufferIn_ == bufferOut_; }
 166:../../DaisyExamples/libDaisy/src/util/FIFO.h **** 
 167:../../DaisyExamples/libDaisy/src/util/FIFO.h ****     /** returns true, if the buffer is Full */
 168:../../DaisyExamples/libDaisy/src/util/FIFO.h ****     bool IsFull() const { return GetNumElements() == bufferSize_ - 1; }
 169:../../DaisyExamples/libDaisy/src/util/FIFO.h **** 
 170:../../DaisyExamples/libDaisy/src/util/FIFO.h ****     /** returns the number of elements in the buffer */
 171:../../DaisyExamples/libDaisy/src/util/FIFO.h ****     size_t GetNumElements() const
 172:../../DaisyExamples/libDaisy/src/util/FIFO.h ****     {
 173:../../DaisyExamples/libDaisy/src/util/FIFO.h ****         int32_t numElements = bufferIn_ - bufferOut_;
 174:../../DaisyExamples/libDaisy/src/util/FIFO.h ****         if(numElements < 0)
 175:../../DaisyExamples/libDaisy/src/util/FIFO.h ****             numElements += bufferSize_;
 176:../../DaisyExamples/libDaisy/src/util/FIFO.h ****         return size_t(numElements);
 177:../../DaisyExamples/libDaisy/src/util/FIFO.h ****     }
 178:../../DaisyExamples/libDaisy/src/util/FIFO.h **** 
 179:../../DaisyExamples/libDaisy/src/util/FIFO.h ****     /** inserts an element "idx" positions behind the first element and returns true if successful 
 180:../../DaisyExamples/libDaisy/src/util/FIFO.h ****     bool Insert(size_t idx, const T& element)
 181:../../DaisyExamples/libDaisy/src/util/FIFO.h ****     {
 182:../../DaisyExamples/libDaisy/src/util/FIFO.h ****         if(idx > GetNumElements())
 183:../../DaisyExamples/libDaisy/src/util/FIFO.h ****             return false;
 184:../../DaisyExamples/libDaisy/src/util/FIFO.h ****         if(IsFull())
 185:../../DaisyExamples/libDaisy/src/util/FIFO.h ****             return false;
 186:../../DaisyExamples/libDaisy/src/util/FIFO.h ****         if(idx == GetNumElements())
 187:../../DaisyExamples/libDaisy/src/util/FIFO.h ****         {
 188:../../DaisyExamples/libDaisy/src/util/FIFO.h ****             PushBack(element);
 189:../../DaisyExamples/libDaisy/src/util/FIFO.h ****             return true;
 190:../../DaisyExamples/libDaisy/src/util/FIFO.h ****         }
 191:../../DaisyExamples/libDaisy/src/util/FIFO.h ****         // copy last element
 192:../../DaisyExamples/libDaisy/src/util/FIFO.h ****         PushBack(Back());
 193:../../DaisyExamples/libDaisy/src/util/FIFO.h ****         // move remaining elements: n => n+1
 194:../../DaisyExamples/libDaisy/src/util/FIFO.h ****         for(int i = GetNumElements() - 2; i > int(idx); i--)
 195:../../DaisyExamples/libDaisy/src/util/FIFO.h ****             (*this)[i] = (*this)[i - 1];
 196:../../DaisyExamples/libDaisy/src/util/FIFO.h ****         // insert element
 197:../../DaisyExamples/libDaisy/src/util/FIFO.h ****         (*this)[idx] = element;
 198:../../DaisyExamples/libDaisy/src/util/FIFO.h ****         return true;
 199:../../DaisyExamples/libDaisy/src/util/FIFO.h ****     }
 200:../../DaisyExamples/libDaisy/src/util/FIFO.h **** 
 201:../../DaisyExamples/libDaisy/src/util/FIFO.h ****     /** removes the element "idx" positions behind the first element 
 202:../../DaisyExamples/libDaisy/src/util/FIFO.h ****      *  and returns true if successful */
 203:../../DaisyExamples/libDaisy/src/util/FIFO.h ****     bool Remove(size_t idx)
 204:../../DaisyExamples/libDaisy/src/util/FIFO.h ****     {
 205:../../DaisyExamples/libDaisy/src/util/FIFO.h ****         if(idx >= GetNumElements())
 206:../../DaisyExamples/libDaisy/src/util/FIFO.h ****             return false;
 207:../../DaisyExamples/libDaisy/src/util/FIFO.h **** 
 208:../../DaisyExamples/libDaisy/src/util/FIFO.h ****         size_t index = bufferOut_ + idx;
 209:../../DaisyExamples/libDaisy/src/util/FIFO.h ****         if(index >= bufferSize_)
 210:../../DaisyExamples/libDaisy/src/util/FIFO.h ****             index -= bufferSize_;
 211:../../DaisyExamples/libDaisy/src/util/FIFO.h ****         size_t nextIndex = index + 1;
ARM GAS  /var/folders/hp/45mn71hd0ps5f5pnytxy5bt00000gn/T//ccy0eSy4.s 			page 11


 212:../../DaisyExamples/libDaisy/src/util/FIFO.h ****         if(nextIndex >= bufferSize_)
 213:../../DaisyExamples/libDaisy/src/util/FIFO.h ****             nextIndex -= bufferSize_;
 214:../../DaisyExamples/libDaisy/src/util/FIFO.h **** 
 215:../../DaisyExamples/libDaisy/src/util/FIFO.h ****         while(nextIndex != bufferIn_)
 216:../../DaisyExamples/libDaisy/src/util/FIFO.h ****         {
 217:../../DaisyExamples/libDaisy/src/util/FIFO.h ****             buffer_[index] = buffer_[nextIndex];
 218:../../DaisyExamples/libDaisy/src/util/FIFO.h ****             index++;
 219:../../DaisyExamples/libDaisy/src/util/FIFO.h ****             nextIndex++;
 220:../../DaisyExamples/libDaisy/src/util/FIFO.h ****             if(index >= bufferSize_)
 221:../../DaisyExamples/libDaisy/src/util/FIFO.h ****                 index -= bufferSize_;
 222:../../DaisyExamples/libDaisy/src/util/FIFO.h ****             if(nextIndex >= bufferSize_)
 223:../../DaisyExamples/libDaisy/src/util/FIFO.h ****                 nextIndex -= bufferSize_;
 224:../../DaisyExamples/libDaisy/src/util/FIFO.h ****         }
 225:../../DaisyExamples/libDaisy/src/util/FIFO.h **** 
 226:../../DaisyExamples/libDaisy/src/util/FIFO.h ****         int32_t nextBufferIn = int32_t(bufferIn_) - 1;
 227:../../DaisyExamples/libDaisy/src/util/FIFO.h ****         if(nextBufferIn < 0)
 228:../../DaisyExamples/libDaisy/src/util/FIFO.h ****             nextBufferIn += bufferSize_;
 229:../../DaisyExamples/libDaisy/src/util/FIFO.h ****         bufferIn_ = size_t(nextBufferIn);
 230:../../DaisyExamples/libDaisy/src/util/FIFO.h **** 
 231:../../DaisyExamples/libDaisy/src/util/FIFO.h ****         return true;
 232:../../DaisyExamples/libDaisy/src/util/FIFO.h ****     }
 233:../../DaisyExamples/libDaisy/src/util/FIFO.h **** 
 234:../../DaisyExamples/libDaisy/src/util/FIFO.h ****     /** removes all elements from the buffer for which
 235:../../DaisyExamples/libDaisy/src/util/FIFO.h ****         (buffer(index) == element) returns true and returns the number of
 236:../../DaisyExamples/libDaisy/src/util/FIFO.h ****         elements that were removed. */
 237:../../DaisyExamples/libDaisy/src/util/FIFO.h ****     size_t RemoveAllEqualTo(const T& element)
 238:../../DaisyExamples/libDaisy/src/util/FIFO.h ****     {
 239:../../DaisyExamples/libDaisy/src/util/FIFO.h ****         size_t numRemoved = 0;
 240:../../DaisyExamples/libDaisy/src/util/FIFO.h ****         int    idx        = GetNumElements() - 1;
 241:../../DaisyExamples/libDaisy/src/util/FIFO.h ****         while(idx >= 0)
 242:../../DaisyExamples/libDaisy/src/util/FIFO.h ****         {
 243:../../DaisyExamples/libDaisy/src/util/FIFO.h ****             if((*this)[idx] == element)
 244:../../DaisyExamples/libDaisy/src/util/FIFO.h ****             {
 245:../../DaisyExamples/libDaisy/src/util/FIFO.h ****                 numRemoved++;
 246:../../DaisyExamples/libDaisy/src/util/FIFO.h ****                 Remove(idx);
 247:../../DaisyExamples/libDaisy/src/util/FIFO.h ****                 // was that the last element?
 248:../../DaisyExamples/libDaisy/src/util/FIFO.h ****                 if(idx == int(GetNumElements()) - 1)
 249:../../DaisyExamples/libDaisy/src/util/FIFO.h ****                     idx--;
 250:../../DaisyExamples/libDaisy/src/util/FIFO.h ****             }
 251:../../DaisyExamples/libDaisy/src/util/FIFO.h ****             else
 252:../../DaisyExamples/libDaisy/src/util/FIFO.h ****                 idx--;
 253:../../DaisyExamples/libDaisy/src/util/FIFO.h ****         }
 254:../../DaisyExamples/libDaisy/src/util/FIFO.h ****         return numRemoved;
 255:../../DaisyExamples/libDaisy/src/util/FIFO.h ****     }
 256:../../DaisyExamples/libDaisy/src/util/FIFO.h **** 
 257:../../DaisyExamples/libDaisy/src/util/FIFO.h ****     /** returns the element "idx" positions behind the first element */
 258:../../DaisyExamples/libDaisy/src/util/FIFO.h ****     T& operator[](size_t idx)
 259:../../DaisyExamples/libDaisy/src/util/FIFO.h ****     {
 260:../../DaisyExamples/libDaisy/src/util/FIFO.h ****         if(idx >= GetNumElements())
 261:../../DaisyExamples/libDaisy/src/util/FIFO.h ****             // invalid, but better not pass a temporary T() object as a reference...
 262:../../DaisyExamples/libDaisy/src/util/FIFO.h ****             return buffer_[0];
 263:../../DaisyExamples/libDaisy/src/util/FIFO.h **** 
 264:../../DaisyExamples/libDaisy/src/util/FIFO.h ****         size_t index = bufferOut_ + idx;
 265:../../DaisyExamples/libDaisy/src/util/FIFO.h ****         if(index >= bufferSize_)
 266:../../DaisyExamples/libDaisy/src/util/FIFO.h ****             index -= bufferSize_;
 267:../../DaisyExamples/libDaisy/src/util/FIFO.h ****         return buffer_[index];
 268:../../DaisyExamples/libDaisy/src/util/FIFO.h ****     }
ARM GAS  /var/folders/hp/45mn71hd0ps5f5pnytxy5bt00000gn/T//ccy0eSy4.s 			page 12


 269:../../DaisyExamples/libDaisy/src/util/FIFO.h **** 
 270:../../DaisyExamples/libDaisy/src/util/FIFO.h ****     /** returns the element "idx" positions behind the first element */
 271:../../DaisyExamples/libDaisy/src/util/FIFO.h ****     const T& operator[](size_t idx) const
 272:../../DaisyExamples/libDaisy/src/util/FIFO.h ****     {
 273:../../DaisyExamples/libDaisy/src/util/FIFO.h ****         if(idx >= GetNumElements())
 274:../../DaisyExamples/libDaisy/src/util/FIFO.h ****             // invalid, but better not pass a temporary T() object as a reference...
 275:../../DaisyExamples/libDaisy/src/util/FIFO.h ****             return buffer_[0];
 276:../../DaisyExamples/libDaisy/src/util/FIFO.h **** 
 277:../../DaisyExamples/libDaisy/src/util/FIFO.h ****         size_t index = bufferOut_ + idx;
 278:../../DaisyExamples/libDaisy/src/util/FIFO.h ****         if(index >= bufferSize_)
 279:../../DaisyExamples/libDaisy/src/util/FIFO.h ****             index -= bufferSize_;
 280:../../DaisyExamples/libDaisy/src/util/FIFO.h ****         return buffer_[index];
 281:../../DaisyExamples/libDaisy/src/util/FIFO.h ****     }
 282:../../DaisyExamples/libDaisy/src/util/FIFO.h **** 
 283:../../DaisyExamples/libDaisy/src/util/FIFO.h ****     /** returns the total capacity */
 284:../../DaisyExamples/libDaisy/src/util/FIFO.h ****     size_t GetCapacity() const { return bufferSize_ - 1; }
 285:../../DaisyExamples/libDaisy/src/util/FIFO.h **** 
 286:../../DaisyExamples/libDaisy/src/util/FIFO.h ****   private:
 287:../../DaisyExamples/libDaisy/src/util/FIFO.h ****     FIFOBase(const FIFOBase<T>&) {} // non copyable
 288:../../DaisyExamples/libDaisy/src/util/FIFO.h **** 
 289:../../DaisyExamples/libDaisy/src/util/FIFO.h ****   private:
 290:../../DaisyExamples/libDaisy/src/util/FIFO.h ****     T*           buffer_;
 291:../../DaisyExamples/libDaisy/src/util/FIFO.h ****     const size_t bufferSize_;
 292:../../DaisyExamples/libDaisy/src/util/FIFO.h ****     size_t       bufferIn_;
 293:../../DaisyExamples/libDaisy/src/util/FIFO.h ****     size_t       bufferOut_;
 294:../../DaisyExamples/libDaisy/src/util/FIFO.h **** };
 295:../../DaisyExamples/libDaisy/src/util/FIFO.h **** 
 296:../../DaisyExamples/libDaisy/src/util/FIFO.h **** /** A simple FIFO ring buffer with a fixed size. */
 297:../../DaisyExamples/libDaisy/src/util/FIFO.h **** template <typename T, size_t capacity>
 298:../../DaisyExamples/libDaisy/src/util/FIFO.h **** class FIFO : public FIFOBase<T>
  96              		.loc 6 298 7 view .LVU8
  97              	.LBB369:
  98              	.LBI369:
  42:../../DaisyExamples/libDaisy/src/util/FIFO.h **** 
  99              		.loc 6 42 5 view .LVU9
  42:../../DaisyExamples/libDaisy/src/util/FIFO.h **** 
 100              		.loc 6 42 5 is_stmt 0 view .LVU10
 101              	.LBE369:
 102              	.LBE368:
 103              	.LBB370:
 104              	.LBI370:
 105              		.file 7 "../../DaisyExamples/libDaisy/src/hid/midi_parser.h"
   1:../../DaisyExamples/libDaisy/src/hid/midi_parser.h **** #pragma once
   2:../../DaisyExamples/libDaisy/src/hid/midi_parser.h **** #ifndef DSY_MIDI_PARSER_H
   3:../../DaisyExamples/libDaisy/src/hid/midi_parser.h **** #define DSY_MIDI_PARSER_H
   4:../../DaisyExamples/libDaisy/src/hid/midi_parser.h **** 
   5:../../DaisyExamples/libDaisy/src/hid/midi_parser.h **** #include <stdint.h>
   6:../../DaisyExamples/libDaisy/src/hid/midi_parser.h **** #include <stdlib.h>
   7:../../DaisyExamples/libDaisy/src/hid/midi_parser.h **** #include "hid/MidiEvent.h"
   8:../../DaisyExamples/libDaisy/src/hid/midi_parser.h **** 
   9:../../DaisyExamples/libDaisy/src/hid/midi_parser.h **** namespace daisy
  10:../../DaisyExamples/libDaisy/src/hid/midi_parser.h **** {
  11:../../DaisyExamples/libDaisy/src/hid/midi_parser.h **** /** @brief   Utility class for parsing raw byte streams into MIDI messages
  12:../../DaisyExamples/libDaisy/src/hid/midi_parser.h ****  *  @details Implemented as a state machine designed to parse one byte at a time
  13:../../DaisyExamples/libDaisy/src/hid/midi_parser.h ****  *  @ingroup midi
  14:../../DaisyExamples/libDaisy/src/hid/midi_parser.h ****  */
  15:../../DaisyExamples/libDaisy/src/hid/midi_parser.h **** class MidiParser
ARM GAS  /var/folders/hp/45mn71hd0ps5f5pnytxy5bt00000gn/T//ccy0eSy4.s 			page 13


  16:../../DaisyExamples/libDaisy/src/hid/midi_parser.h **** {
  17:../../DaisyExamples/libDaisy/src/hid/midi_parser.h ****   public:
  18:../../DaisyExamples/libDaisy/src/hid/midi_parser.h ****     MidiParser(){};
  19:../../DaisyExamples/libDaisy/src/hid/midi_parser.h ****     ~MidiParser() {}
 106              		.loc 7 19 5 is_stmt 1 view .LVU11
 107              		.loc 7 19 5 is_stmt 0 view .LVU12
 108              	.LBE370:
 109              	.LBB371:
 110              	.LBI371:
  32:../../DaisyExamples/libDaisy/src/hid/midi.h **** 
 111              		.loc 5 32 5 is_stmt 1 view .LVU13
  32:../../DaisyExamples/libDaisy/src/hid/midi.h **** 
 112              		.loc 5 32 5 is_stmt 0 view .LVU14
 113              	.LBE371:
 114              	.LBE367:
 115              	.LBB372:
 116              	.LBI372:
 117              		.file 8 "../../DaisyExamples/libDaisy/src/hid/rgb_led.h"
   1:../../DaisyExamples/libDaisy/src/hid/rgb_led.h **** #pragma once
   2:../../DaisyExamples/libDaisy/src/hid/rgb_led.h **** #ifndef DSY_RGB_LED_H
   3:../../DaisyExamples/libDaisy/src/hid/rgb_led.h **** #define DSY_RGB_LED_H
   4:../../DaisyExamples/libDaisy/src/hid/rgb_led.h **** #include "hid/led.h"
   5:../../DaisyExamples/libDaisy/src/hid/rgb_led.h **** #include "util/color.h"
   6:../../DaisyExamples/libDaisy/src/hid/rgb_led.h **** 
   7:../../DaisyExamples/libDaisy/src/hid/rgb_led.h **** namespace daisy
   8:../../DaisyExamples/libDaisy/src/hid/rgb_led.h **** {
   9:../../DaisyExamples/libDaisy/src/hid/rgb_led.h **** /** @addtogroup feedback
  10:../../DaisyExamples/libDaisy/src/hid/rgb_led.h ****     @{
  11:../../DaisyExamples/libDaisy/src/hid/rgb_led.h **** */
  12:../../DaisyExamples/libDaisy/src/hid/rgb_led.h **** 
  13:../../DaisyExamples/libDaisy/src/hid/rgb_led.h **** /** 3x LEDs configured as an RGB for ease of use. */
  14:../../DaisyExamples/libDaisy/src/hid/rgb_led.h **** class RgbLed
  15:../../DaisyExamples/libDaisy/src/hid/rgb_led.h **** {
  16:../../DaisyExamples/libDaisy/src/hid/rgb_led.h ****   public:
  17:../../DaisyExamples/libDaisy/src/hid/rgb_led.h ****     RgbLed() {}
  18:../../DaisyExamples/libDaisy/src/hid/rgb_led.h ****     ~RgbLed() {}
 118              		.loc 8 18 5 is_stmt 1 view .LVU15
 119              	.LBB373:
 120              	.LBI373:
 121              		.file 9 "../../DaisyExamples/libDaisy/src/hid/led.h"
   1:../../DaisyExamples/libDaisy/src/hid/led.h **** 
   2:../../DaisyExamples/libDaisy/src/hid/led.h **** #pragma once
   3:../../DaisyExamples/libDaisy/src/hid/led.h **** #ifndef DSY_LED_H
   4:../../DaisyExamples/libDaisy/src/hid/led.h **** #define DSY_LED_H
   5:../../DaisyExamples/libDaisy/src/hid/led.h **** #include "daisy_core.h"
   6:../../DaisyExamples/libDaisy/src/hid/led.h **** #include "per/gpio.h"
   7:../../DaisyExamples/libDaisy/src/hid/led.h **** 
   8:../../DaisyExamples/libDaisy/src/hid/led.h **** /* TODO - Get this set up to work with the dev_leddriver stuff as well
   9:../../DaisyExamples/libDaisy/src/hid/led.h **** - Setup Hardware PWM for pins that have it
  10:../../DaisyExamples/libDaisy/src/hid/led.h **** */
  11:../../DaisyExamples/libDaisy/src/hid/led.h **** 
  12:../../DaisyExamples/libDaisy/src/hid/led.h **** namespace daisy
  13:../../DaisyExamples/libDaisy/src/hid/led.h **** {
  14:../../DaisyExamples/libDaisy/src/hid/led.h **** /**
  15:../../DaisyExamples/libDaisy/src/hid/led.h ****     @brief LED Class providing simple Software PWM ability, etc \n 
  16:../../DaisyExamples/libDaisy/src/hid/led.h ****     Eventually this will work with hardware PWM, and external LED Driver devices as well.
  17:../../DaisyExamples/libDaisy/src/hid/led.h ****     @author shensley
ARM GAS  /var/folders/hp/45mn71hd0ps5f5pnytxy5bt00000gn/T//ccy0eSy4.s 			page 14


  18:../../DaisyExamples/libDaisy/src/hid/led.h ****     @date March 2020
  19:../../DaisyExamples/libDaisy/src/hid/led.h ****     @ingroup feedback
  20:../../DaisyExamples/libDaisy/src/hid/led.h **** */
  21:../../DaisyExamples/libDaisy/src/hid/led.h **** class Led
  22:../../DaisyExamples/libDaisy/src/hid/led.h **** {
  23:../../DaisyExamples/libDaisy/src/hid/led.h ****   public:
  24:../../DaisyExamples/libDaisy/src/hid/led.h ****     Led() {}
  25:../../DaisyExamples/libDaisy/src/hid/led.h ****     ~Led() {}
 122              		.loc 9 25 5 view .LVU16
 123              		.loc 9 25 5 is_stmt 0 view .LVU17
 124              	.LBE373:
 125              	.LBB374:
 126              	.LBI374:
 127              		.loc 9 25 5 is_stmt 1 view .LVU18
 128              		.loc 9 25 5 is_stmt 0 view .LVU19
 129              	.LBE374:
 130              	.LBB375:
 131              	.LBI375:
 132              		.loc 9 25 5 is_stmt 1 view .LVU20
 133              		.loc 9 25 5 is_stmt 0 view .LVU21
 134              	.LBE375:
 135              	.LBE372:
 136              	.LBB376:
 137              	.LBI376:
 138              		.loc 8 18 5 is_stmt 1 view .LVU22
 139              	.LBB377:
 140              	.LBI377:
 141              		.loc 9 25 5 view .LVU23
 142              		.loc 9 25 5 is_stmt 0 view .LVU24
 143              	.LBE377:
 144              	.LBB378:
 145              	.LBI378:
 146              		.loc 9 25 5 is_stmt 1 view .LVU25
 147              		.loc 9 25 5 is_stmt 0 view .LVU26
 148              	.LBE378:
 149              	.LBB379:
 150              	.LBI379:
 151              		.loc 9 25 5 is_stmt 1 view .LVU27
 152              		.loc 9 25 5 is_stmt 0 view .LVU28
 153              	.LBE379:
 154              	.LBE376:
 155              	.LBB380:
 156              	.LBI380:
 157              		.file 10 "../../DaisyExamples/libDaisy/src/hid/switch.h"
   1:../../DaisyExamples/libDaisy/src/hid/switch.h **** #pragma once
   2:../../DaisyExamples/libDaisy/src/hid/switch.h **** #ifndef DSY_SWITCH_H
   3:../../DaisyExamples/libDaisy/src/hid/switch.h **** #define DSY_SWITCH_H
   4:../../DaisyExamples/libDaisy/src/hid/switch.h **** #include "daisy_core.h"
   5:../../DaisyExamples/libDaisy/src/hid/switch.h **** #include "per/gpio.h"
   6:../../DaisyExamples/libDaisy/src/hid/switch.h **** #include "sys/system.h"
   7:../../DaisyExamples/libDaisy/src/hid/switch.h **** 
   8:../../DaisyExamples/libDaisy/src/hid/switch.h **** namespace daisy
   9:../../DaisyExamples/libDaisy/src/hid/switch.h **** {
  10:../../DaisyExamples/libDaisy/src/hid/switch.h **** /** 
  11:../../DaisyExamples/libDaisy/src/hid/switch.h ****     Generic Class for handling momentary/latching switches \n 
  12:../../DaisyExamples/libDaisy/src/hid/switch.h ****     Inspired/influenced by Mutable Instruments (pichenettes) Switch classes
  13:../../DaisyExamples/libDaisy/src/hid/switch.h ****     @author Stephen Hensley
ARM GAS  /var/folders/hp/45mn71hd0ps5f5pnytxy5bt00000gn/T//ccy0eSy4.s 			page 15


  14:../../DaisyExamples/libDaisy/src/hid/switch.h ****     @date December 2019
  15:../../DaisyExamples/libDaisy/src/hid/switch.h ****     @ingroup controls
  16:../../DaisyExamples/libDaisy/src/hid/switch.h **** */
  17:../../DaisyExamples/libDaisy/src/hid/switch.h **** class Switch
  18:../../DaisyExamples/libDaisy/src/hid/switch.h **** {
  19:../../DaisyExamples/libDaisy/src/hid/switch.h ****   public:
  20:../../DaisyExamples/libDaisy/src/hid/switch.h ****     /** Specifies the expected behavior of the switch */
  21:../../DaisyExamples/libDaisy/src/hid/switch.h ****     enum Type
  22:../../DaisyExamples/libDaisy/src/hid/switch.h ****     {
  23:../../DaisyExamples/libDaisy/src/hid/switch.h ****         TYPE_TOGGLE,    /**< & */
  24:../../DaisyExamples/libDaisy/src/hid/switch.h ****         TYPE_MOMENTARY, /**< & */
  25:../../DaisyExamples/libDaisy/src/hid/switch.h ****     };
  26:../../DaisyExamples/libDaisy/src/hid/switch.h ****     /** Specifies whether the pressed is HIGH or LOW. */
  27:../../DaisyExamples/libDaisy/src/hid/switch.h ****     enum Polarity
  28:../../DaisyExamples/libDaisy/src/hid/switch.h ****     {
  29:../../DaisyExamples/libDaisy/src/hid/switch.h ****         POLARITY_NORMAL,   /**< & */
  30:../../DaisyExamples/libDaisy/src/hid/switch.h ****         POLARITY_INVERTED, /**< & */
  31:../../DaisyExamples/libDaisy/src/hid/switch.h ****     };
  32:../../DaisyExamples/libDaisy/src/hid/switch.h **** 
  33:../../DaisyExamples/libDaisy/src/hid/switch.h ****     /** Specifies whether to use built-in Pull Up/Down resistors to hold button at a given state wh
  34:../../DaisyExamples/libDaisy/src/hid/switch.h ****     enum Pull
  35:../../DaisyExamples/libDaisy/src/hid/switch.h ****     {
  36:../../DaisyExamples/libDaisy/src/hid/switch.h ****         PULL_UP,   /**< & */
  37:../../DaisyExamples/libDaisy/src/hid/switch.h ****         PULL_DOWN, /**< & */
  38:../../DaisyExamples/libDaisy/src/hid/switch.h ****         PULL_NONE, /**< & */
  39:../../DaisyExamples/libDaisy/src/hid/switch.h ****     };
  40:../../DaisyExamples/libDaisy/src/hid/switch.h **** 
  41:../../DaisyExamples/libDaisy/src/hid/switch.h ****     Switch() {}
  42:../../DaisyExamples/libDaisy/src/hid/switch.h ****     ~Switch() {}
 158              		.loc 10 42 5 is_stmt 1 view .LVU29
 159              		.loc 10 42 5 is_stmt 0 view .LVU30
 160              	.LBE380:
 161              	.LBB381:
 162              	.LBI381:
 163              		.loc 10 42 5 is_stmt 1 view .LVU31
 164              		.loc 10 42 5 is_stmt 0 view .LVU32
 165              	.LBE381:
 166              	.LBB382:
 167              	.LBI382:
 168              		.loc 2 23 5 is_stmt 1 view .LVU33
 169              		.loc 2 23 5 is_stmt 0 view .LVU34
 170              	.LBE382:
 171              	.LBB383:
 172              	.LBI383:
 173              		.loc 2 23 5 is_stmt 1 view .LVU35
 174              		.loc 2 23 5 is_stmt 0 view .LVU36
 175              	.LBE383:
 176              	.LBB384:
 177              	.LBI384:
 178              		.file 11 "../../DaisyExamples/libDaisy/src/hid/encoder.h"
   1:../../DaisyExamples/libDaisy/src/hid/encoder.h **** #pragma once
   2:../../DaisyExamples/libDaisy/src/hid/encoder.h **** #ifndef DSY_ENCODER_H
   3:../../DaisyExamples/libDaisy/src/hid/encoder.h **** #define DSY_ENCODER_H
   4:../../DaisyExamples/libDaisy/src/hid/encoder.h **** #include "daisy_core.h"
   5:../../DaisyExamples/libDaisy/src/hid/encoder.h **** #include "per/gpio.h"
   6:../../DaisyExamples/libDaisy/src/hid/encoder.h **** #include "hid/switch.h"
   7:../../DaisyExamples/libDaisy/src/hid/encoder.h **** 
ARM GAS  /var/folders/hp/45mn71hd0ps5f5pnytxy5bt00000gn/T//ccy0eSy4.s 			page 16


   8:../../DaisyExamples/libDaisy/src/hid/encoder.h **** namespace daisy
   9:../../DaisyExamples/libDaisy/src/hid/encoder.h **** {
  10:../../DaisyExamples/libDaisy/src/hid/encoder.h **** /** 
  11:../../DaisyExamples/libDaisy/src/hid/encoder.h ****     @brief Generic Class for handling Quadrature Encoders \n 
  12:../../DaisyExamples/libDaisy/src/hid/encoder.h ****     Inspired/influenced by Mutable Instruments (pichenettes) Encoder classes
  13:../../DaisyExamples/libDaisy/src/hid/encoder.h ****     @author Stephen Hensley
  14:../../DaisyExamples/libDaisy/src/hid/encoder.h ****     @date December 2019
  15:../../DaisyExamples/libDaisy/src/hid/encoder.h ****     @ingroup controls
  16:../../DaisyExamples/libDaisy/src/hid/encoder.h **** */
  17:../../DaisyExamples/libDaisy/src/hid/encoder.h **** class Encoder
  18:../../DaisyExamples/libDaisy/src/hid/encoder.h **** {
  19:../../DaisyExamples/libDaisy/src/hid/encoder.h ****   public:
  20:../../DaisyExamples/libDaisy/src/hid/encoder.h ****     Encoder() {}
  21:../../DaisyExamples/libDaisy/src/hid/encoder.h ****     ~Encoder() {}
 179              		.loc 11 21 5 is_stmt 1 view .LVU37
 180              	.LBB385:
 181              	.LBI385:
 182              		.loc 10 42 5 view .LVU38
 183              		.loc 10 42 5 is_stmt 0 view .LVU39
 184              	.LBE385:
 185              	.LBE384:
 186              	.LBB386:
 187              	.LBI386:
 188              		.file 12 "../../DaisyExamples/libDaisy/src/daisy_seed.h"
   1:../../DaisyExamples/libDaisy/src/daisy_seed.h **** #pragma once
   2:../../DaisyExamples/libDaisy/src/daisy_seed.h **** #ifndef DSY_SEED_H
   3:../../DaisyExamples/libDaisy/src/daisy_seed.h **** #define DSY_SEED_H
   4:../../DaisyExamples/libDaisy/src/daisy_seed.h **** 
   5:../../DaisyExamples/libDaisy/src/daisy_seed.h **** #include "daisy.h"
   6:../../DaisyExamples/libDaisy/src/daisy_seed.h **** 
   7:../../DaisyExamples/libDaisy/src/daisy_seed.h **** //Uncomment this out if you're still using the rev2 hardware
   8:../../DaisyExamples/libDaisy/src/daisy_seed.h **** //#define SEED_REV2
   9:../../DaisyExamples/libDaisy/src/daisy_seed.h **** 
  10:../../DaisyExamples/libDaisy/src/daisy_seed.h **** namespace daisy
  11:../../DaisyExamples/libDaisy/src/daisy_seed.h **** {
  12:../../DaisyExamples/libDaisy/src/daisy_seed.h **** /**
  13:../../DaisyExamples/libDaisy/src/daisy_seed.h ****    @brief This is the higher-level interface for the Daisy board. \n 
  14:../../DaisyExamples/libDaisy/src/daisy_seed.h ****     All basic peripheral configuration/initialization is setup here. \n
  15:../../DaisyExamples/libDaisy/src/daisy_seed.h **** 
  16:../../DaisyExamples/libDaisy/src/daisy_seed.h ****    @ingroup boards
  17:../../DaisyExamples/libDaisy/src/daisy_seed.h **** */
  18:../../DaisyExamples/libDaisy/src/daisy_seed.h **** class DaisySeed
  19:../../DaisyExamples/libDaisy/src/daisy_seed.h **** {
  20:../../DaisyExamples/libDaisy/src/daisy_seed.h ****   public:
  21:../../DaisyExamples/libDaisy/src/daisy_seed.h ****     DaisySeed() {}
  22:../../DaisyExamples/libDaisy/src/daisy_seed.h ****     ~DaisySeed() {}
 189              		.loc 12 22 5 is_stmt 1 view .LVU40
 190              	.LBB387:
 191              	.LBI387:
 192              		.file 13 "../../DaisyExamples/libDaisy/src/sys/system.h"
   1:../../DaisyExamples/libDaisy/src/sys/system.h **** #ifndef DSY_SYSTEM_H
   2:../../DaisyExamples/libDaisy/src/sys/system.h **** #define DSY_SYSTEM_H
   3:../../DaisyExamples/libDaisy/src/sys/system.h **** 
   4:../../DaisyExamples/libDaisy/src/sys/system.h **** #ifndef UNIT_TEST // for unit tests, a dummy implementation is provided below
   5:../../DaisyExamples/libDaisy/src/sys/system.h **** 
   6:../../DaisyExamples/libDaisy/src/sys/system.h **** #include <cstdint>
   7:../../DaisyExamples/libDaisy/src/sys/system.h **** #include "per/tim.h"
ARM GAS  /var/folders/hp/45mn71hd0ps5f5pnytxy5bt00000gn/T//ccy0eSy4.s 			page 17


   8:../../DaisyExamples/libDaisy/src/sys/system.h **** 
   9:../../DaisyExamples/libDaisy/src/sys/system.h **** namespace daisy
  10:../../DaisyExamples/libDaisy/src/sys/system.h **** {
  11:../../DaisyExamples/libDaisy/src/sys/system.h **** /** A handle for interacting with the Core System.
  12:../../DaisyExamples/libDaisy/src/sys/system.h ****  ** This includes the Clock tree, MPU, global DMA initialization,
  13:../../DaisyExamples/libDaisy/src/sys/system.h ****  ** cache handling, and any other necessary global initiailzation
  14:../../DaisyExamples/libDaisy/src/sys/system.h ****  **
  15:../../DaisyExamples/libDaisy/src/sys/system.h ****  ** @author shensley
  16:../../DaisyExamples/libDaisy/src/sys/system.h ****  ** @ingroup system
  17:../../DaisyExamples/libDaisy/src/sys/system.h ****  */
  18:../../DaisyExamples/libDaisy/src/sys/system.h **** class System
  19:../../DaisyExamples/libDaisy/src/sys/system.h **** {
  20:../../DaisyExamples/libDaisy/src/sys/system.h ****   public:
  21:../../DaisyExamples/libDaisy/src/sys/system.h ****     /** Contains settings for initializing the System */
  22:../../DaisyExamples/libDaisy/src/sys/system.h ****     struct Config
  23:../../DaisyExamples/libDaisy/src/sys/system.h ****     {
  24:../../DaisyExamples/libDaisy/src/sys/system.h ****         /** Specifies the system clock frequency that feeds APB/AHB clocks, etc. */
  25:../../DaisyExamples/libDaisy/src/sys/system.h ****         enum class SysClkFreq
  26:../../DaisyExamples/libDaisy/src/sys/system.h ****         {
  27:../../DaisyExamples/libDaisy/src/sys/system.h ****             FREQ_400MHZ,
  28:../../DaisyExamples/libDaisy/src/sys/system.h ****             FREQ_480MHZ,
  29:../../DaisyExamples/libDaisy/src/sys/system.h ****         };
  30:../../DaisyExamples/libDaisy/src/sys/system.h **** 
  31:../../DaisyExamples/libDaisy/src/sys/system.h ****         /** Method to call on the struct to set to defaults
  32:../../DaisyExamples/libDaisy/src/sys/system.h ****          ** CPU Freq set to 400MHz
  33:../../DaisyExamples/libDaisy/src/sys/system.h ****          ** Cache Enabled
  34:../../DaisyExamples/libDaisy/src/sys/system.h ****          ** */
  35:../../DaisyExamples/libDaisy/src/sys/system.h ****         void Defaults()
  36:../../DaisyExamples/libDaisy/src/sys/system.h ****         {
  37:../../DaisyExamples/libDaisy/src/sys/system.h ****             cpu_freq    = SysClkFreq::FREQ_400MHZ;
  38:../../DaisyExamples/libDaisy/src/sys/system.h ****             use_dcache  = true;
  39:../../DaisyExamples/libDaisy/src/sys/system.h ****             use_icache  = true;
  40:../../DaisyExamples/libDaisy/src/sys/system.h ****             skip_clocks = false;
  41:../../DaisyExamples/libDaisy/src/sys/system.h ****         }
  42:../../DaisyExamples/libDaisy/src/sys/system.h **** 
  43:../../DaisyExamples/libDaisy/src/sys/system.h ****         /** Method to call on the struct to set to boost mode:
  44:../../DaisyExamples/libDaisy/src/sys/system.h ****          ** CPU Freq set to 480MHz
  45:../../DaisyExamples/libDaisy/src/sys/system.h ****          ** Cache Enabled
  46:../../DaisyExamples/libDaisy/src/sys/system.h ****          ** */
  47:../../DaisyExamples/libDaisy/src/sys/system.h ****         void Boost()
  48:../../DaisyExamples/libDaisy/src/sys/system.h ****         {
  49:../../DaisyExamples/libDaisy/src/sys/system.h ****             cpu_freq    = SysClkFreq::FREQ_480MHZ;
  50:../../DaisyExamples/libDaisy/src/sys/system.h ****             use_dcache  = true;
  51:../../DaisyExamples/libDaisy/src/sys/system.h ****             use_icache  = true;
  52:../../DaisyExamples/libDaisy/src/sys/system.h ****             skip_clocks = false;
  53:../../DaisyExamples/libDaisy/src/sys/system.h ****         }
  54:../../DaisyExamples/libDaisy/src/sys/system.h **** 
  55:../../DaisyExamples/libDaisy/src/sys/system.h ****         SysClkFreq cpu_freq;
  56:../../DaisyExamples/libDaisy/src/sys/system.h ****         bool       use_dcache;
  57:../../DaisyExamples/libDaisy/src/sys/system.h ****         bool       use_icache;
  58:../../DaisyExamples/libDaisy/src/sys/system.h ****         bool       skip_clocks;
  59:../../DaisyExamples/libDaisy/src/sys/system.h ****     };
  60:../../DaisyExamples/libDaisy/src/sys/system.h **** 
  61:../../DaisyExamples/libDaisy/src/sys/system.h ****     /** Describes the different regions of memory available to the Daisy */
  62:../../DaisyExamples/libDaisy/src/sys/system.h ****     enum MemoryRegion
  63:../../DaisyExamples/libDaisy/src/sys/system.h ****     {
  64:../../DaisyExamples/libDaisy/src/sys/system.h ****         INTERNAL_FLASH = 0,
ARM GAS  /var/folders/hp/45mn71hd0ps5f5pnytxy5bt00000gn/T//ccy0eSy4.s 			page 18


  65:../../DaisyExamples/libDaisy/src/sys/system.h ****         ITCMRAM,
  66:../../DaisyExamples/libDaisy/src/sys/system.h ****         DTCMRAM,
  67:../../DaisyExamples/libDaisy/src/sys/system.h ****         SRAM_D1,
  68:../../DaisyExamples/libDaisy/src/sys/system.h ****         SRAM_D2,
  69:../../DaisyExamples/libDaisy/src/sys/system.h ****         SRAM_D3,
  70:../../DaisyExamples/libDaisy/src/sys/system.h ****         SDRAM,
  71:../../DaisyExamples/libDaisy/src/sys/system.h ****         QSPI,
  72:../../DaisyExamples/libDaisy/src/sys/system.h ****         INVALID_ADDRESS,
  73:../../DaisyExamples/libDaisy/src/sys/system.h ****     };
  74:../../DaisyExamples/libDaisy/src/sys/system.h **** 
  75:../../DaisyExamples/libDaisy/src/sys/system.h ****     /** Bootloader struct for controlling bootloading parameters */
  76:../../DaisyExamples/libDaisy/src/sys/system.h ****     struct BootInfo
  77:../../DaisyExamples/libDaisy/src/sys/system.h ****     {
  78:../../DaisyExamples/libDaisy/src/sys/system.h ****         enum class Type : uint32_t
  79:../../DaisyExamples/libDaisy/src/sys/system.h ****         {
  80:../../DaisyExamples/libDaisy/src/sys/system.h ****             INVALID      = 0x00000000,
  81:../../DaisyExamples/libDaisy/src/sys/system.h ****             JUMP         = 0xDEADBEEF,
  82:../../DaisyExamples/libDaisy/src/sys/system.h ****             SKIP_TIMEOUT = 0x5AFEB007,
  83:../../DaisyExamples/libDaisy/src/sys/system.h ****             INF_TIMEOUT  = 0xB0074EFA,
  84:../../DaisyExamples/libDaisy/src/sys/system.h ****         } status;
  85:../../DaisyExamples/libDaisy/src/sys/system.h ****         uint32_t data;
  86:../../DaisyExamples/libDaisy/src/sys/system.h ****         enum class Version : uint32_t
  87:../../DaisyExamples/libDaisy/src/sys/system.h ****         {
  88:../../DaisyExamples/libDaisy/src/sys/system.h ****             LT_v6_0 = 0, // Less than v6.0
  89:../../DaisyExamples/libDaisy/src/sys/system.h ****             NONE,        // No bootloader present
  90:../../DaisyExamples/libDaisy/src/sys/system.h ****             v6_0,        // v6.0
  91:../../DaisyExamples/libDaisy/src/sys/system.h ****             v6_1,        // v6.1 or greater
  92:../../DaisyExamples/libDaisy/src/sys/system.h ****             LAST
  93:../../DaisyExamples/libDaisy/src/sys/system.h ****         } version;
  94:../../DaisyExamples/libDaisy/src/sys/system.h ****     };
  95:../../DaisyExamples/libDaisy/src/sys/system.h **** 
  96:../../DaisyExamples/libDaisy/src/sys/system.h ****     System() {}
  97:../../DaisyExamples/libDaisy/src/sys/system.h ****     ~System() {}
 193              		.loc 13 97 5 view .LVU41
 194              		.loc 13 97 5 is_stmt 0 view .LVU42
 195              	.LBE387:
 196              	.LBB388:
 197              	.LBI388:
 198              		.file 14 "../../DaisyExamples/libDaisy/src/hid/usb.h"
   1:../../DaisyExamples/libDaisy/src/hid/usb.h **** #pragma once
   2:../../DaisyExamples/libDaisy/src/hid/usb.h **** #ifndef DSY_HID_USB_H
   3:../../DaisyExamples/libDaisy/src/hid/usb.h **** #define DSY_HID_USB_H
   4:../../DaisyExamples/libDaisy/src/hid/usb.h **** #include <stdint.h>
   5:../../DaisyExamples/libDaisy/src/hid/usb.h **** #include <stdlib.h>
   6:../../DaisyExamples/libDaisy/src/hid/usb.h **** 
   7:../../DaisyExamples/libDaisy/src/hid/usb.h **** namespace daisy
   8:../../DaisyExamples/libDaisy/src/hid/usb.h **** /** @addtogroup human_interface
   9:../../DaisyExamples/libDaisy/src/hid/usb.h ****     @{
  10:../../DaisyExamples/libDaisy/src/hid/usb.h **** */
  11:../../DaisyExamples/libDaisy/src/hid/usb.h **** 
  12:../../DaisyExamples/libDaisy/src/hid/usb.h **** {
  13:../../DaisyExamples/libDaisy/src/hid/usb.h **** /** 
  14:../../DaisyExamples/libDaisy/src/hid/usb.h ****     @brief Interface for initializing and using the USB Peripherals on the daisy
  15:../../DaisyExamples/libDaisy/src/hid/usb.h ****     @author Stephen Hensley
  16:../../DaisyExamples/libDaisy/src/hid/usb.h ****     @date December 2019
  17:../../DaisyExamples/libDaisy/src/hid/usb.h **** */
  18:../../DaisyExamples/libDaisy/src/hid/usb.h **** class UsbHandle
ARM GAS  /var/folders/hp/45mn71hd0ps5f5pnytxy5bt00000gn/T//ccy0eSy4.s 			page 19


  19:../../DaisyExamples/libDaisy/src/hid/usb.h **** {
  20:../../DaisyExamples/libDaisy/src/hid/usb.h ****   public:
  21:../../DaisyExamples/libDaisy/src/hid/usb.h ****     /** Return values for USBHandle Functions */
  22:../../DaisyExamples/libDaisy/src/hid/usb.h ****     enum class Result
  23:../../DaisyExamples/libDaisy/src/hid/usb.h ****     {
  24:../../DaisyExamples/libDaisy/src/hid/usb.h ****         OK,
  25:../../DaisyExamples/libDaisy/src/hid/usb.h ****         ERR,
  26:../../DaisyExamples/libDaisy/src/hid/usb.h ****     };
  27:../../DaisyExamples/libDaisy/src/hid/usb.h **** 
  28:../../DaisyExamples/libDaisy/src/hid/usb.h ****     /** Specified which of the two USB Peripherals to initialize. */
  29:../../DaisyExamples/libDaisy/src/hid/usb.h ****     enum UsbPeriph
  30:../../DaisyExamples/libDaisy/src/hid/usb.h ****     {
  31:../../DaisyExamples/libDaisy/src/hid/usb.h ****         FS_INTERNAL, /**< Internal pin */
  32:../../DaisyExamples/libDaisy/src/hid/usb.h ****         FS_EXTERNAL, /**< FS External D+ pin is Pin 38 (GPIO32). FS External D- pin is Pin 37 (GPIO
  33:../../DaisyExamples/libDaisy/src/hid/usb.h ****         FS_BOTH,     /**< Both */
  34:../../DaisyExamples/libDaisy/src/hid/usb.h ****     };
  35:../../DaisyExamples/libDaisy/src/hid/usb.h **** 
  36:../../DaisyExamples/libDaisy/src/hid/usb.h **** 
  37:../../DaisyExamples/libDaisy/src/hid/usb.h ****     /** Function called upon reception of a buffer */
  38:../../DaisyExamples/libDaisy/src/hid/usb.h ****     typedef void (*ReceiveCallback)(uint8_t* buff, uint32_t* len);
  39:../../DaisyExamples/libDaisy/src/hid/usb.h **** 
  40:../../DaisyExamples/libDaisy/src/hid/usb.h ****     UsbHandle() {}
  41:../../DaisyExamples/libDaisy/src/hid/usb.h **** 
  42:../../DaisyExamples/libDaisy/src/hid/usb.h ****     ~UsbHandle() {}
 199              		.loc 14 42 5 is_stmt 1 view .LVU43
 200              		.loc 14 42 5 is_stmt 0 view .LVU44
 201              	.LBE388:
 202              	.LBB389:
 203              	.LBI389:
 204              		.file 15 "../../DaisyExamples/libDaisy/src/per/adc.h"
   1:../../DaisyExamples/libDaisy/src/per/adc.h **** #pragma once
   2:../../DaisyExamples/libDaisy/src/per/adc.h **** #ifndef DSY_ADC_H
   3:../../DaisyExamples/libDaisy/src/per/adc.h **** #define DSY_ADC_H /**< Macro */
   4:../../DaisyExamples/libDaisy/src/per/adc.h **** #include <stdint.h>
   5:../../DaisyExamples/libDaisy/src/per/adc.h **** #include <stdlib.h>
   6:../../DaisyExamples/libDaisy/src/per/adc.h **** #include "daisy_core.h"
   7:../../DaisyExamples/libDaisy/src/per/adc.h **** #include "per/gpio.h"
   8:../../DaisyExamples/libDaisy/src/per/adc.h **** 
   9:../../DaisyExamples/libDaisy/src/per/adc.h **** #define DSY_ADC_MAX_CHANNELS 16 /**< Maximum number of ADC channels */
  10:../../DaisyExamples/libDaisy/src/per/adc.h **** 
  11:../../DaisyExamples/libDaisy/src/per/adc.h **** namespace daisy
  12:../../DaisyExamples/libDaisy/src/per/adc.h **** {
  13:../../DaisyExamples/libDaisy/src/per/adc.h **** /** @addtogroup per_analog
  14:../../DaisyExamples/libDaisy/src/per/adc.h ****     @{
  15:../../DaisyExamples/libDaisy/src/per/adc.h **** */
  16:../../DaisyExamples/libDaisy/src/per/adc.h **** 
  17:../../DaisyExamples/libDaisy/src/per/adc.h **** /* While there may not be many configuration options here,
  18:../../DaisyExamples/libDaisy/src/per/adc.h **** using a struct like this allows us to add more configuration
  19:../../DaisyExamples/libDaisy/src/per/adc.h **** later without breaking existing functionality.
  20:../../DaisyExamples/libDaisy/src/per/adc.h **** */
  21:../../DaisyExamples/libDaisy/src/per/adc.h **** 
  22:../../DaisyExamples/libDaisy/src/per/adc.h **** /** @brief   Configuration Structure for an ADC Channel 
  23:../../DaisyExamples/libDaisy/src/per/adc.h ****  *  @details This can be used to configure a a single input, 
  24:../../DaisyExamples/libDaisy/src/per/adc.h ****  *           or a multiplexed input, allowing up to 8 inputs on 
  25:../../DaisyExamples/libDaisy/src/per/adc.h ****  *           one channel.
  26:../../DaisyExamples/libDaisy/src/per/adc.h ****  *  @note    Sharing data lines to multiple muxes _is_ possible, but
  27:../../DaisyExamples/libDaisy/src/per/adc.h ****  *           each channel sharing data lines must be set to the maximum
ARM GAS  /var/folders/hp/45mn71hd0ps5f5pnytxy5bt00000gn/T//ccy0eSy4.s 			page 20


  28:../../DaisyExamples/libDaisy/src/per/adc.h ****  *           number of channels, even if some multiplexers have fewer
  29:../../DaisyExamples/libDaisy/src/per/adc.h ****  *           inputs connected.
  30:../../DaisyExamples/libDaisy/src/per/adc.h **** */
  31:../../DaisyExamples/libDaisy/src/per/adc.h **** struct AdcChannelConfig
  32:../../DaisyExamples/libDaisy/src/per/adc.h **** {
  33:../../DaisyExamples/libDaisy/src/per/adc.h ****     /** Which pin to use for multiplexing */
  34:../../DaisyExamples/libDaisy/src/per/adc.h ****     enum MuxPin
  35:../../DaisyExamples/libDaisy/src/per/adc.h ****     {
  36:../../DaisyExamples/libDaisy/src/per/adc.h ****         MUX_SEL_0,    /**< & */
  37:../../DaisyExamples/libDaisy/src/per/adc.h ****         MUX_SEL_1,    /**< & */
  38:../../DaisyExamples/libDaisy/src/per/adc.h ****         MUX_SEL_2,    /**< & */
  39:../../DaisyExamples/libDaisy/src/per/adc.h ****         MUX_SEL_LAST, /**< & */
  40:../../DaisyExamples/libDaisy/src/per/adc.h ****     };
  41:../../DaisyExamples/libDaisy/src/per/adc.h **** 
  42:../../DaisyExamples/libDaisy/src/per/adc.h ****     /** \brief per channel conversion speed added to fixed time based on bitdepth, etc. */
  43:../../DaisyExamples/libDaisy/src/per/adc.h ****     enum ConversionSpeed
  44:../../DaisyExamples/libDaisy/src/per/adc.h ****     {
  45:../../DaisyExamples/libDaisy/src/per/adc.h ****         SPEED_1CYCLES_5,
  46:../../DaisyExamples/libDaisy/src/per/adc.h ****         SPEED_2CYCLES_5,
  47:../../DaisyExamples/libDaisy/src/per/adc.h ****         SPEED_8CYCLES_5,
  48:../../DaisyExamples/libDaisy/src/per/adc.h ****         SPEED_16CYCLES_5,
  49:../../DaisyExamples/libDaisy/src/per/adc.h ****         SPEED_32CYCLES_5,
  50:../../DaisyExamples/libDaisy/src/per/adc.h ****         SPEED_64CYCLES_5,
  51:../../DaisyExamples/libDaisy/src/per/adc.h ****         SPEED_387CYCLES_5,
  52:../../DaisyExamples/libDaisy/src/per/adc.h ****         SPEED_810CYCLES_5,
  53:../../DaisyExamples/libDaisy/src/per/adc.h ****     };
  54:../../DaisyExamples/libDaisy/src/per/adc.h **** 
  55:../../DaisyExamples/libDaisy/src/per/adc.h ****     /** Initializes a single ADC pin as an ADC. 
  56:../../DaisyExamples/libDaisy/src/per/adc.h ****     \param pin Pin to init.
  57:../../DaisyExamples/libDaisy/src/per/adc.h ****     \param speed conversion speed for this pin defaults to 8.5 cycles
  58:../../DaisyExamples/libDaisy/src/per/adc.h ****      */
  59:../../DaisyExamples/libDaisy/src/per/adc.h ****     void InitSingle(dsy_gpio_pin pin, ConversionSpeed speed = SPEED_8CYCLES_5);
  60:../../DaisyExamples/libDaisy/src/per/adc.h **** 
  61:../../DaisyExamples/libDaisy/src/per/adc.h ****     /** 
  62:../../DaisyExamples/libDaisy/src/per/adc.h ****     Initializes a single ADC pin as a Multiplexed ADC.
  63:../../DaisyExamples/libDaisy/src/per/adc.h ****     Requires a CD405X Multiplexer connected to the pin.
  64:../../DaisyExamples/libDaisy/src/per/adc.h ****     You only need to supply the mux pins that are required,
  65:../../DaisyExamples/libDaisy/src/per/adc.h ****     e.g. a 4052 mux would only require mux_0 and mux_1.
  66:../../DaisyExamples/libDaisy/src/per/adc.h ****     Internal Callbacks handle the pin addressing.
  67:../../DaisyExamples/libDaisy/src/per/adc.h ****     \param adc_pin &
  68:../../DaisyExamples/libDaisy/src/per/adc.h ****     \param mux_channels must be 1-8
  69:../../DaisyExamples/libDaisy/src/per/adc.h ****     \param mux_0 First mux pin
  70:../../DaisyExamples/libDaisy/src/per/adc.h ****     \param mux_1 Second mux pin
  71:../../DaisyExamples/libDaisy/src/per/adc.h ****     \param mux_2 Third mux pin
  72:../../DaisyExamples/libDaisy/src/per/adc.h ****     \param speed conversion speed for this pin defaults to 8.5 cycles
  73:../../DaisyExamples/libDaisy/src/per/adc.h ****     */
  74:../../DaisyExamples/libDaisy/src/per/adc.h ****     void InitMux(dsy_gpio_pin    adc_pin,
  75:../../DaisyExamples/libDaisy/src/per/adc.h ****                  size_t          mux_channels,
  76:../../DaisyExamples/libDaisy/src/per/adc.h ****                  dsy_gpio_pin    mux_0,
  77:../../DaisyExamples/libDaisy/src/per/adc.h ****                  dsy_gpio_pin    mux_1 = {DSY_GPIOX, 0},
  78:../../DaisyExamples/libDaisy/src/per/adc.h ****                  dsy_gpio_pin    mux_2 = {DSY_GPIOX, 0},
  79:../../DaisyExamples/libDaisy/src/per/adc.h ****                  ConversionSpeed speed = SPEED_8CYCLES_5);
  80:../../DaisyExamples/libDaisy/src/per/adc.h **** 
  81:../../DaisyExamples/libDaisy/src/per/adc.h ****     dsy_gpio        pin_;                   /**< & */
  82:../../DaisyExamples/libDaisy/src/per/adc.h ****     dsy_gpio        mux_pin_[MUX_SEL_LAST]; /**< & */
  83:../../DaisyExamples/libDaisy/src/per/adc.h ****     uint8_t         mux_channels_;          /**< & */
  84:../../DaisyExamples/libDaisy/src/per/adc.h ****     ConversionSpeed speed_;
ARM GAS  /var/folders/hp/45mn71hd0ps5f5pnytxy5bt00000gn/T//ccy0eSy4.s 			page 21


  85:../../DaisyExamples/libDaisy/src/per/adc.h **** };
  86:../../DaisyExamples/libDaisy/src/per/adc.h **** 
  87:../../DaisyExamples/libDaisy/src/per/adc.h **** /**
  88:../../DaisyExamples/libDaisy/src/per/adc.h ****    @brief Handler for analog to digital conversion
  89:../../DaisyExamples/libDaisy/src/per/adc.h **** */
  90:../../DaisyExamples/libDaisy/src/per/adc.h **** class AdcHandle
  91:../../DaisyExamples/libDaisy/src/per/adc.h **** {
  92:../../DaisyExamples/libDaisy/src/per/adc.h ****   public:
  93:../../DaisyExamples/libDaisy/src/per/adc.h ****     /** Supported oversampling amounts */
  94:../../DaisyExamples/libDaisy/src/per/adc.h ****     enum OverSampling
  95:../../DaisyExamples/libDaisy/src/per/adc.h ****     {
  96:../../DaisyExamples/libDaisy/src/per/adc.h ****         OVS_NONE, /**< & */
  97:../../DaisyExamples/libDaisy/src/per/adc.h ****         OVS_4,    /**< & */
  98:../../DaisyExamples/libDaisy/src/per/adc.h ****         OVS_8,    /**< & */
  99:../../DaisyExamples/libDaisy/src/per/adc.h ****         OVS_16,   /**< & */
 100:../../DaisyExamples/libDaisy/src/per/adc.h ****         OVS_32,   /**< & */
 101:../../DaisyExamples/libDaisy/src/per/adc.h ****         OVS_64,   /**< & */
 102:../../DaisyExamples/libDaisy/src/per/adc.h ****         OVS_128,  /**< & */
 103:../../DaisyExamples/libDaisy/src/per/adc.h ****         OVS_256,  /**< & */
 104:../../DaisyExamples/libDaisy/src/per/adc.h ****         OVS_512,  /**< & */
 105:../../DaisyExamples/libDaisy/src/per/adc.h ****         OVS_1024, /**< & */
 106:../../DaisyExamples/libDaisy/src/per/adc.h ****         OVS_LAST, /**< & */
 107:../../DaisyExamples/libDaisy/src/per/adc.h ****     };
 108:../../DaisyExamples/libDaisy/src/per/adc.h **** 
 109:../../DaisyExamples/libDaisy/src/per/adc.h ****     AdcHandle() {}
 110:../../DaisyExamples/libDaisy/src/per/adc.h ****     ~AdcHandle() {}
 205              		.loc 15 110 5 is_stmt 1 view .LVU45
 206              		.loc 15 110 5 is_stmt 0 view .LVU46
 207              	.LBE389:
 208              	.LBB390:
 209              	.LBI390:
 210              		.file 16 "../../DaisyExamples/libDaisy/src/hid/audio.h"
   1:../../DaisyExamples/libDaisy/src/hid/audio.h **** #ifndef DSY_AUDIO_H
   2:../../DaisyExamples/libDaisy/src/hid/audio.h **** #define DSY_AUDIO_H /**< & */
   3:../../DaisyExamples/libDaisy/src/hid/audio.h **** 
   4:../../DaisyExamples/libDaisy/src/hid/audio.h **** #include "per/sai.h"
   5:../../DaisyExamples/libDaisy/src/hid/audio.h **** 
   6:../../DaisyExamples/libDaisy/src/hid/audio.h **** namespace daisy
   7:../../DaisyExamples/libDaisy/src/hid/audio.h **** {
   8:../../DaisyExamples/libDaisy/src/hid/audio.h **** /** @brief Audio Engine Handle
   9:../../DaisyExamples/libDaisy/src/hid/audio.h ****  *  @ingroup audio 
  10:../../DaisyExamples/libDaisy/src/hid/audio.h ****  *  @details This class allows for higher level access to an audio engine.
  11:../../DaisyExamples/libDaisy/src/hid/audio.h ****  *           If you're using a SOM like the DaisySeed or DaisyPatchSM (or any 
  12:../../DaisyExamples/libDaisy/src/hid/audio.h ****  *            board that includes one of those objects) then the intialization
  13:../../DaisyExamples/libDaisy/src/hid/audio.h ****  *            is already taken  care of.
  14:../../DaisyExamples/libDaisy/src/hid/audio.h ****  *           If you're setting up your own custom hardware, or need to make changes
  15:../../DaisyExamples/libDaisy/src/hid/audio.h ****  *           you will have to take the following steps:
  16:../../DaisyExamples/libDaisy/src/hid/audio.h ****  *             1. Create and Initialize an SaiHandle or two depending on your requirements
  17:../../DaisyExamples/libDaisy/src/hid/audio.h ****  *             2. Initialize the Audio Handle with the desired settings and the Initialized SaiHand
  18:../../DaisyExamples/libDaisy/src/hid/audio.h ****  *             3. If the connected codec requires special configuration or initialization, do so
  19:../../DaisyExamples/libDaisy/src/hid/audio.h ****  *             4. Write a callback method using either the AudioCallback or the InterleavingAudioCa
  20:../../DaisyExamples/libDaisy/src/hid/audio.h ****  *             5. Start the Audio using one of the StartAudio function
  21:../../DaisyExamples/libDaisy/src/hid/audio.h ****  */
  22:../../DaisyExamples/libDaisy/src/hid/audio.h **** class AudioHandle
  23:../../DaisyExamples/libDaisy/src/hid/audio.h **** {
  24:../../DaisyExamples/libDaisy/src/hid/audio.h ****   public:
  25:../../DaisyExamples/libDaisy/src/hid/audio.h ****     /** Manually configurable details about the Audio Engine */
ARM GAS  /var/folders/hp/45mn71hd0ps5f5pnytxy5bt00000gn/T//ccy0eSy4.s 			page 22


  26:../../DaisyExamples/libDaisy/src/hid/audio.h ****     /** TODO: Figure out how to get samplerate in here. */
  27:../../DaisyExamples/libDaisy/src/hid/audio.h ****     struct Config
  28:../../DaisyExamples/libDaisy/src/hid/audio.h ****     {
  29:../../DaisyExamples/libDaisy/src/hid/audio.h ****         /** number of samples to process per callback */
  30:../../DaisyExamples/libDaisy/src/hid/audio.h ****         size_t blocksize;
  31:../../DaisyExamples/libDaisy/src/hid/audio.h **** 
  32:../../DaisyExamples/libDaisy/src/hid/audio.h ****         /**< Sample rate of audio */
  33:../../DaisyExamples/libDaisy/src/hid/audio.h ****         SaiHandle::Config::SampleRate samplerate;
  34:../../DaisyExamples/libDaisy/src/hid/audio.h **** 
  35:../../DaisyExamples/libDaisy/src/hid/audio.h ****         /** factor for adjustment before and after callback for hardware that may have extra headro
  36:../../DaisyExamples/libDaisy/src/hid/audio.h ****         float postgain;
  37:../../DaisyExamples/libDaisy/src/hid/audio.h **** 
  38:../../DaisyExamples/libDaisy/src/hid/audio.h ****         /** factor for additional one-sided compensation to audio path for hardware that may
  39:../../DaisyExamples/libDaisy/src/hid/audio.h ****          *  have unequal input/output ranges
  40:../../DaisyExamples/libDaisy/src/hid/audio.h ****          */
  41:../../DaisyExamples/libDaisy/src/hid/audio.h ****         float output_compensation;
  42:../../DaisyExamples/libDaisy/src/hid/audio.h **** 
  43:../../DaisyExamples/libDaisy/src/hid/audio.h ****         /** Sets default values for config struct */
  44:../../DaisyExamples/libDaisy/src/hid/audio.h ****         Config()
  45:../../DaisyExamples/libDaisy/src/hid/audio.h ****         : blocksize(48),
  46:../../DaisyExamples/libDaisy/src/hid/audio.h ****           samplerate(SaiHandle::Config::SampleRate::SAI_48KHZ),
  47:../../DaisyExamples/libDaisy/src/hid/audio.h ****           postgain(1.f),
  48:../../DaisyExamples/libDaisy/src/hid/audio.h ****           output_compensation(1.f)
  49:../../DaisyExamples/libDaisy/src/hid/audio.h ****         {
  50:../../DaisyExamples/libDaisy/src/hid/audio.h ****         }
  51:../../DaisyExamples/libDaisy/src/hid/audio.h ****     };
  52:../../DaisyExamples/libDaisy/src/hid/audio.h **** 
  53:../../DaisyExamples/libDaisy/src/hid/audio.h ****     enum class Result
  54:../../DaisyExamples/libDaisy/src/hid/audio.h ****     {
  55:../../DaisyExamples/libDaisy/src/hid/audio.h ****         OK,
  56:../../DaisyExamples/libDaisy/src/hid/audio.h ****         ERR,
  57:../../DaisyExamples/libDaisy/src/hid/audio.h ****     };
  58:../../DaisyExamples/libDaisy/src/hid/audio.h **** 
  59:../../DaisyExamples/libDaisy/src/hid/audio.h ****     /** Non-Interleaving input buffer
  60:../../DaisyExamples/libDaisy/src/hid/audio.h ****      * Buffer arranged by float[chn][sample] 
  61:../../DaisyExamples/libDaisy/src/hid/audio.h ****      * const so that the user can't modify the input
  62:../../DaisyExamples/libDaisy/src/hid/audio.h ****      */
  63:../../DaisyExamples/libDaisy/src/hid/audio.h ****     typedef const float* const* InputBuffer;
  64:../../DaisyExamples/libDaisy/src/hid/audio.h **** 
  65:../../DaisyExamples/libDaisy/src/hid/audio.h ****     /** Non-Interleaving output buffer
  66:../../DaisyExamples/libDaisy/src/hid/audio.h ****      * Arranged by float[chn][sample] 
  67:../../DaisyExamples/libDaisy/src/hid/audio.h ****      */
  68:../../DaisyExamples/libDaisy/src/hid/audio.h ****     typedef float** OutputBuffer;
  69:../../DaisyExamples/libDaisy/src/hid/audio.h **** 
  70:../../DaisyExamples/libDaisy/src/hid/audio.h ****     /** Type for a Non-Interleaving audio callback 
  71:../../DaisyExamples/libDaisy/src/hid/audio.h ****      * Non-Interleaving audio callbacks in daisy will be of this type
  72:../../DaisyExamples/libDaisy/src/hid/audio.h ****      */
  73:../../DaisyExamples/libDaisy/src/hid/audio.h ****     typedef void (*AudioCallback)(InputBuffer  in,
  74:../../DaisyExamples/libDaisy/src/hid/audio.h ****                                   OutputBuffer out,
  75:../../DaisyExamples/libDaisy/src/hid/audio.h ****                                   size_t       size);
  76:../../DaisyExamples/libDaisy/src/hid/audio.h **** 
  77:../../DaisyExamples/libDaisy/src/hid/audio.h ****     /** Interleaving Input buffer
  78:../../DaisyExamples/libDaisy/src/hid/audio.h ****      ** audio is prepared as { L0, R0, L1, R1, . . . LN, RN }]
  79:../../DaisyExamples/libDaisy/src/hid/audio.h ****      ** this is const, as the user shouldn't modify it
  80:../../DaisyExamples/libDaisy/src/hid/audio.h ****     */
  81:../../DaisyExamples/libDaisy/src/hid/audio.h ****     typedef const float* InterleavingInputBuffer;
  82:../../DaisyExamples/libDaisy/src/hid/audio.h **** 
ARM GAS  /var/folders/hp/45mn71hd0ps5f5pnytxy5bt00000gn/T//ccy0eSy4.s 			page 23


  83:../../DaisyExamples/libDaisy/src/hid/audio.h ****     /** Interleaving Output buffer 
  84:../../DaisyExamples/libDaisy/src/hid/audio.h ****      ** audio is prepared as { L0, R0, L1, R1, . . . LN, RN }
  85:../../DaisyExamples/libDaisy/src/hid/audio.h ****     */
  86:../../DaisyExamples/libDaisy/src/hid/audio.h ****     typedef float* InterleavingOutputBuffer;
  87:../../DaisyExamples/libDaisy/src/hid/audio.h **** 
  88:../../DaisyExamples/libDaisy/src/hid/audio.h ****     /** Interleaving Audio Callback 
  89:../../DaisyExamples/libDaisy/src/hid/audio.h ****      * Interleaving audio callbacks in daisy must be of this type
  90:../../DaisyExamples/libDaisy/src/hid/audio.h ****      */
  91:../../DaisyExamples/libDaisy/src/hid/audio.h ****     typedef void (*InterleavingAudioCallback)(InterleavingInputBuffer  in,
  92:../../DaisyExamples/libDaisy/src/hid/audio.h ****                                               InterleavingOutputBuffer out,
  93:../../DaisyExamples/libDaisy/src/hid/audio.h ****                                               size_t                   size);
  94:../../DaisyExamples/libDaisy/src/hid/audio.h **** 
  95:../../DaisyExamples/libDaisy/src/hid/audio.h ****     AudioHandle() : pimpl_(nullptr) {}
  96:../../DaisyExamples/libDaisy/src/hid/audio.h ****     ~AudioHandle() {}
 211              		.loc 16 96 5 is_stmt 1 view .LVU47
 212              		.loc 16 96 5 is_stmt 0 view .LVU48
 213              	.LBE390:
 214              	.LBE386:
 215              		.loc 4 36 18 view .LVU49
 216 0000 7047     		bx	lr
 217              		.cfi_endproc
 218              	.LFE2565:
 220              		.weak	_ZN5daisy8DaisyPodD1Ev
 221              		.thumb_set _ZN5daisy8DaisyPodD1Ev,_ZN5daisy8DaisyPodD2Ev
 222 0002 00BF     		.section	.text._ZN7daisysp5AdEnvD2Ev,"axG",%progbits,_ZN7daisysp5AdEnvD5Ev,comdat
 223              		.align	1
 224              		.p2align 2,,3
 225              		.weak	_ZN7daisysp5AdEnvD2Ev
 226              		.syntax unified
 227              		.thumb
 228              		.thumb_func
 230              	_ZN7daisysp5AdEnvD2Ev:
 231              	.LVL3:
 232              	.LFB2572:
 233              		.file 17 "../../DaisyExamples/DaisySP/Source/Control/adenv.h"
   1:../../DaisyExamples/DaisySP/Source/Control/adenv.h **** /*
   2:../../DaisyExamples/DaisySP/Source/Control/adenv.h **** Copyright (c) 2020 Electrosmith, Corp
   3:../../DaisyExamples/DaisySP/Source/Control/adenv.h **** 
   4:../../DaisyExamples/DaisySP/Source/Control/adenv.h **** Use of this source code is governed by an MIT-style
   5:../../DaisyExamples/DaisySP/Source/Control/adenv.h **** license that can be found in the LICENSE file or at
   6:../../DaisyExamples/DaisySP/Source/Control/adenv.h **** https://opensource.org/licenses/MIT.
   7:../../DaisyExamples/DaisySP/Source/Control/adenv.h **** */
   8:../../DaisyExamples/DaisySP/Source/Control/adenv.h **** 
   9:../../DaisyExamples/DaisySP/Source/Control/adenv.h **** #pragma once
  10:../../DaisyExamples/DaisySP/Source/Control/adenv.h **** #ifndef ADENV_H
  11:../../DaisyExamples/DaisySP/Source/Control/adenv.h **** #define ADENV_H
  12:../../DaisyExamples/DaisySP/Source/Control/adenv.h **** #include <stdint.h>
  13:../../DaisyExamples/DaisySP/Source/Control/adenv.h **** #ifdef __cplusplus
  14:../../DaisyExamples/DaisySP/Source/Control/adenv.h **** 
  15:../../DaisyExamples/DaisySP/Source/Control/adenv.h **** namespace daisysp
  16:../../DaisyExamples/DaisySP/Source/Control/adenv.h **** {
  17:../../DaisyExamples/DaisySP/Source/Control/adenv.h **** /** Distinct stages that the phase of the envelope can be located in.
  18:../../DaisyExamples/DaisySP/Source/Control/adenv.h ****     @see AdEnv
  19:../../DaisyExamples/DaisySP/Source/Control/adenv.h **** */
  20:../../DaisyExamples/DaisySP/Source/Control/adenv.h **** enum AdEnvSegment
  21:../../DaisyExamples/DaisySP/Source/Control/adenv.h **** {
  22:../../DaisyExamples/DaisySP/Source/Control/adenv.h ****     /** located at phase location 0, and not currently running */
ARM GAS  /var/folders/hp/45mn71hd0ps5f5pnytxy5bt00000gn/T//ccy0eSy4.s 			page 24


  23:../../DaisyExamples/DaisySP/Source/Control/adenv.h ****     ADENV_SEG_IDLE,
  24:../../DaisyExamples/DaisySP/Source/Control/adenv.h ****     /** First segment of envelope where phase moves from MIN value to MAX value */
  25:../../DaisyExamples/DaisySP/Source/Control/adenv.h ****     ADENV_SEG_ATTACK,
  26:../../DaisyExamples/DaisySP/Source/Control/adenv.h ****     /** Second segment of envelope where phase moves from MAX to MIN value */
  27:../../DaisyExamples/DaisySP/Source/Control/adenv.h ****     ADENV_SEG_DECAY,
  28:../../DaisyExamples/DaisySP/Source/Control/adenv.h ****     /** The final segment of the envelope (currently decay) */
  29:../../DaisyExamples/DaisySP/Source/Control/adenv.h ****     ADENV_SEG_LAST,
  30:../../DaisyExamples/DaisySP/Source/Control/adenv.h **** };
  31:../../DaisyExamples/DaisySP/Source/Control/adenv.h **** 
  32:../../DaisyExamples/DaisySP/Source/Control/adenv.h **** /** Trigger-able envelope with adjustable min/max, and independent per-segment time control.
  33:../../DaisyExamples/DaisySP/Source/Control/adenv.h **** 
  34:../../DaisyExamples/DaisySP/Source/Control/adenv.h ****     \author shensley
  35:../../DaisyExamples/DaisySP/Source/Control/adenv.h ****     \todo - Add Cycling
  36:../../DaisyExamples/DaisySP/Source/Control/adenv.h ****     \todo - Implement Curve (its only linear for now).
  37:../../DaisyExamples/DaisySP/Source/Control/adenv.h ****     \todo - Maybe make this an ADsr_ that has AD/AR/Asr_ modes.
  38:../../DaisyExamples/DaisySP/Source/Control/adenv.h ****  */
  39:../../DaisyExamples/DaisySP/Source/Control/adenv.h **** class AdEnv
  40:../../DaisyExamples/DaisySP/Source/Control/adenv.h **** {
  41:../../DaisyExamples/DaisySP/Source/Control/adenv.h ****   public:
  42:../../DaisyExamples/DaisySP/Source/Control/adenv.h ****     AdEnv() {}
  43:../../DaisyExamples/DaisySP/Source/Control/adenv.h ****     ~AdEnv() {}
 234              		.loc 17 43 5 is_stmt 1 view -0
 235              		.cfi_startproc
 236              		@ args = 0, pretend = 0, frame = 0
 237              		@ frame_needed = 0, uses_anonymous_args = 0
 238              		@ link register save eliminated.
 239              		.loc 17 43 15 is_stmt 0 view .LVU51
 240 0000 7047     		bx	lr
 241              		.cfi_endproc
 242              	.LFE2572:
 244              		.weak	_ZN7daisysp5AdEnvD1Ev
 245              		.thumb_set _ZN7daisysp5AdEnvD1Ev,_ZN7daisysp5AdEnvD2Ev
 246 0002 00BF     		.section	.text._ZN7daisysp10OscillatorD2Ev,"axG",%progbits,_ZN7daisysp10OscillatorD5Ev,comdat
 247              		.align	1
 248              		.p2align 2,,3
 249              		.weak	_ZN7daisysp10OscillatorD2Ev
 250              		.syntax unified
 251              		.thumb
 252              		.thumb_func
 254              	_ZN7daisysp10OscillatorD2Ev:
 255              	.LVL4:
 256              	.LFB4248:
 257              		.file 18 "../../DaisyExamples/DaisySP/Source/Synthesis/oscillator.h"
   1:../../DaisyExamples/DaisySP/Source/Synthesis/oscillator.h **** /*
   2:../../DaisyExamples/DaisySP/Source/Synthesis/oscillator.h **** Copyright (c) 2020 Electrosmith, Corp
   3:../../DaisyExamples/DaisySP/Source/Synthesis/oscillator.h **** 
   4:../../DaisyExamples/DaisySP/Source/Synthesis/oscillator.h **** Use of this source code is governed by an MIT-style
   5:../../DaisyExamples/DaisySP/Source/Synthesis/oscillator.h **** license that can be found in the LICENSE file or at
   6:../../DaisyExamples/DaisySP/Source/Synthesis/oscillator.h **** https://opensource.org/licenses/MIT.
   7:../../DaisyExamples/DaisySP/Source/Synthesis/oscillator.h **** */
   8:../../DaisyExamples/DaisySP/Source/Synthesis/oscillator.h **** 
   9:../../DaisyExamples/DaisySP/Source/Synthesis/oscillator.h **** #pragma once
  10:../../DaisyExamples/DaisySP/Source/Synthesis/oscillator.h **** #ifndef DSY_OSCILLATOR_H
  11:../../DaisyExamples/DaisySP/Source/Synthesis/oscillator.h **** #define DSY_OSCILLATOR_H
  12:../../DaisyExamples/DaisySP/Source/Synthesis/oscillator.h **** #include <stdint.h>
  13:../../DaisyExamples/DaisySP/Source/Synthesis/oscillator.h **** #include "Utility/dsp.h"
  14:../../DaisyExamples/DaisySP/Source/Synthesis/oscillator.h **** #ifdef __cplusplus
ARM GAS  /var/folders/hp/45mn71hd0ps5f5pnytxy5bt00000gn/T//ccy0eSy4.s 			page 25


  15:../../DaisyExamples/DaisySP/Source/Synthesis/oscillator.h **** 
  16:../../DaisyExamples/DaisySP/Source/Synthesis/oscillator.h **** namespace daisysp
  17:../../DaisyExamples/DaisySP/Source/Synthesis/oscillator.h **** {
  18:../../DaisyExamples/DaisySP/Source/Synthesis/oscillator.h **** /** Synthesis of several waveforms, including polyBLEP bandlimited waveforms.
  19:../../DaisyExamples/DaisySP/Source/Synthesis/oscillator.h **** */
  20:../../DaisyExamples/DaisySP/Source/Synthesis/oscillator.h **** class Oscillator
  21:../../DaisyExamples/DaisySP/Source/Synthesis/oscillator.h **** {
  22:../../DaisyExamples/DaisySP/Source/Synthesis/oscillator.h ****   public:
  23:../../DaisyExamples/DaisySP/Source/Synthesis/oscillator.h ****     Oscillator() {}
  24:../../DaisyExamples/DaisySP/Source/Synthesis/oscillator.h ****     ~Oscillator() {}
 258              		.loc 18 24 5 is_stmt 1 view -0
 259              		.cfi_startproc
 260              		@ args = 0, pretend = 0, frame = 0
 261              		@ frame_needed = 0, uses_anonymous_args = 0
 262              		@ link register save eliminated.
 263              		.loc 18 24 20 is_stmt 0 view .LVU53
 264 0000 7047     		bx	lr
 265              		.cfi_endproc
 266              	.LFE4248:
 268              		.weak	_ZN7daisysp10OscillatorD1Ev
 269              		.thumb_set _ZN7daisysp10OscillatorD1Ev,_ZN7daisysp10OscillatorD2Ev
 270 0002 00BF     		.section	.text._ZL13AudioCallbackPKfPfj,"ax",%progbits
 271              		.align	1
 272              		.p2align 2,,3
 273              		.syntax unified
 274              		.thumb
 275              		.thumb_func
 277              	_ZL13AudioCallbackPKfPfj:
 278              	.LVL5:
 279              	.LFB4854:
 280              		.file 19 "SynthV4.cpp"
   1:SynthV4.cpp   **** #include "daisy_pod.h"
   2:SynthV4.cpp   **** #include "daisysp.h"
   3:SynthV4.cpp   **** #include <stdio.h>
   4:SynthV4.cpp   **** 
   5:SynthV4.cpp   **** using namespace daisy;
   6:SynthV4.cpp   **** using namespace daisysp;
   7:SynthV4.cpp   **** 
   8:SynthV4.cpp   **** static DaisyPod pod;
   9:SynthV4.cpp   **** static Oscillator osc;
  10:SynthV4.cpp   **** static AdEnv ad;
  11:SynthV4.cpp   **** static Parameter  p_freq;
  12:SynthV4.cpp   **** static Parameter p_release;
  13:SynthV4.cpp   **** 
  14:SynthV4.cpp   **** Color color;
  15:SynthV4.cpp   **** 
  16:SynthV4.cpp   **** static float volChange; // variable for Volume 
  17:SynthV4.cpp   **** static float inc;
  18:SynthV4.cpp   **** float freq;
  19:SynthV4.cpp   **** float adRelease;
  20:SynthV4.cpp   **** bool adCycle;
  21:SynthV4.cpp   **** bool isVolumeOn; // Variable for muting audio
  22:SynthV4.cpp   **** 
  23:SynthV4.cpp   **** static void AudioCallback(AudioHandle::InterleavingInputBuffer  in,
  24:SynthV4.cpp   ****                           AudioHandle::InterleavingOutputBuffer out,
  25:SynthV4.cpp   ****                           size_t                                size)
  26:SynthV4.cpp   **** {
ARM GAS  /var/folders/hp/45mn71hd0ps5f5pnytxy5bt00000gn/T//ccy0eSy4.s 			page 26


 281              		.loc 19 26 1 is_stmt 1 view -0
 282              		.cfi_startproc
 283              		@ args = 0, pretend = 0, frame = 0
 284              		@ frame_needed = 0, uses_anonymous_args = 0
  27:SynthV4.cpp   ****     pod.ProcessAnalogControls();
 285              		.loc 19 27 5 view .LVU55
  26:SynthV4.cpp   ****     pod.ProcessAnalogControls();
 286              		.loc 19 26 1 is_stmt 0 view .LVU56
 287 0000 2DE9F84F 		push	{r3, r4, r5, r6, r7, r8, r9, r10, fp, lr}
 288              		.cfi_def_cfa_offset 40
 289              		.cfi_offset 3, -40
 290              		.cfi_offset 4, -36
 291              		.cfi_offset 5, -32
 292              		.cfi_offset 6, -28
 293              		.cfi_offset 7, -24
 294              		.cfi_offset 8, -20
 295              		.cfi_offset 9, -16
 296              		.cfi_offset 10, -12
 297              		.cfi_offset 11, -8
 298              		.cfi_offset 14, -4
 299              		.loc 19 27 30 view .LVU57
 300 0004 6C4D     		ldr	r5, .L53+8
  26:SynthV4.cpp   ****     pod.ProcessAnalogControls();
 301              		.loc 19 26 1 view .LVU58
 302 0006 0C46     		mov	r4, r1
 303 0008 9246     		mov	r10, r2
 304              		.loc 19 27 30 view .LVU59
 305 000a 2846     		mov	r0, r5
 306              	.LVL6:
  26:SynthV4.cpp   ****     pod.ProcessAnalogControls();
 307              		.loc 19 26 1 view .LVU60
 308 000c 2DED028B 		vpush.64	{d8}
 309              		.cfi_def_cfa_offset 48
 310              		.cfi_offset 80, -48
 311              		.cfi_offset 81, -44
 312              		.loc 19 27 30 view .LVU61
 313 0010 FFF7FEFF 		bl	_ZN5daisy8DaisyPod21ProcessAnalogControlsEv
 314              	.LVL7:
  28:SynthV4.cpp   ****     pod.ProcessDigitalControls();
 315              		.loc 19 28 5 is_stmt 1 view .LVU62
 316              		.loc 19 28 31 is_stmt 0 view .LVU63
 317 0014 2846     		mov	r0, r5
 318 0016 FFF7FEFF 		bl	_ZN5daisy8DaisyPod22ProcessDigitalControlsEv
 319              	.LVL8:
  29:SynthV4.cpp   **** 
  30:SynthV4.cpp   ****     if(pod.button1.RisingEdge() || (adCycle && !ad.IsRunning()))
 320              		.loc 19 30 5 is_stmt 1 view .LVU64
 321              	.LBB391:
 322              	.LBI391:
  43:../../DaisyExamples/libDaisy/src/hid/switch.h **** 
  44:../../DaisyExamples/libDaisy/src/hid/switch.h ****     /** 
  45:../../DaisyExamples/libDaisy/src/hid/switch.h ****     Initializes the switch object with a given port/pin combo.
  46:../../DaisyExamples/libDaisy/src/hid/switch.h ****     \param pin port/pin object to tell the switch which hardware pin to use.
  47:../../DaisyExamples/libDaisy/src/hid/switch.h ****     \param update_rate Does nothing. Backwards compatibility until next breaking update.
  48:../../DaisyExamples/libDaisy/src/hid/switch.h ****     \param t switch type -- Default: TYPE_MOMENTARY
  49:../../DaisyExamples/libDaisy/src/hid/switch.h ****     \param pol switch polarity -- Default: POLARITY_INVERTED
  50:../../DaisyExamples/libDaisy/src/hid/switch.h ****     \param pu switch pull up/down -- Default: PULL_UP
ARM GAS  /var/folders/hp/45mn71hd0ps5f5pnytxy5bt00000gn/T//ccy0eSy4.s 			page 27


  51:../../DaisyExamples/libDaisy/src/hid/switch.h ****     */
  52:../../DaisyExamples/libDaisy/src/hid/switch.h ****     void
  53:../../DaisyExamples/libDaisy/src/hid/switch.h ****     Init(dsy_gpio_pin pin, float update_rate, Type t, Polarity pol, Pull pu);
  54:../../DaisyExamples/libDaisy/src/hid/switch.h **** 
  55:../../DaisyExamples/libDaisy/src/hid/switch.h ****     /**
  56:../../DaisyExamples/libDaisy/src/hid/switch.h ****        Simplified Init.
  57:../../DaisyExamples/libDaisy/src/hid/switch.h ****        \param pin port/pin object to tell the switch which hardware pin to use.
  58:../../DaisyExamples/libDaisy/src/hid/switch.h ****        \param update_rate Left for backwards compatibility until next breaking change.
  59:../../DaisyExamples/libDaisy/src/hid/switch.h ****     */
  60:../../DaisyExamples/libDaisy/src/hid/switch.h ****     void Init(dsy_gpio_pin pin, float update_rate = 0.f);
  61:../../DaisyExamples/libDaisy/src/hid/switch.h **** 
  62:../../DaisyExamples/libDaisy/src/hid/switch.h ****     /** 
  63:../../DaisyExamples/libDaisy/src/hid/switch.h ****     Called at update_rate to debounce and handle timing for the switch.
  64:../../DaisyExamples/libDaisy/src/hid/switch.h ****     In order for events not to be missed, its important that the Edge/Pressed checks
  65:../../DaisyExamples/libDaisy/src/hid/switch.h ****     be made at the same rate as the debounce function is being called.
  66:../../DaisyExamples/libDaisy/src/hid/switch.h ****     */
  67:../../DaisyExamples/libDaisy/src/hid/switch.h ****     void Debounce();
  68:../../DaisyExamples/libDaisy/src/hid/switch.h **** 
  69:../../DaisyExamples/libDaisy/src/hid/switch.h ****     /** \return true if a button was just pressed. */
  70:../../DaisyExamples/libDaisy/src/hid/switch.h ****     inline bool RisingEdge() const { return updated_ ? state_ == 0x7f : false; }
 323              		.loc 10 70 17 view .LVU65
 324              	.LBB392:
 325              		.loc 10 70 38 view .LVU66
 326              		.loc 10 70 54 is_stmt 0 view .LVU67
 327 001a 95F8B430 		ldrb	r3, [r5, #180]	@ zero_extendqisi2
 328 001e 002B     		cmp	r3, #0
 329 0020 74D0     		beq	.L8
 330              	.LVL9:
 331              		.loc 10 70 54 view .LVU68
 332              	.LBE392:
 333              	.LBE391:
 334              		.loc 19 30 33 view .LVU69
 335 0022 95F8BA30 		ldrb	r3, [r5, #186]	@ zero_extendqisi2
 336 0026 7F2B     		cmp	r3, #127
 337 0028 70D1     		bne	.L8
 338 002a 644E     		ldr	r6, .L53+12
 339              	.L9:
  31:SynthV4.cpp   ****     {
  32:SynthV4.cpp   ****         ad.Trigger();
 340              		.loc 19 32 9 is_stmt 1 discriminator 5 view .LVU70
 341              	.LVL10:
 342              	.LBB393:
 343              	.LBI393:
  44:../../DaisyExamples/DaisySP/Source/Control/adenv.h ****     /** Initializes the ad envelope.
  45:../../DaisyExamples/DaisySP/Source/Control/adenv.h **** 
  46:../../DaisyExamples/DaisySP/Source/Control/adenv.h ****         Defaults:
  47:../../DaisyExamples/DaisySP/Source/Control/adenv.h ****             - current segment = idle
  48:../../DaisyExamples/DaisySP/Source/Control/adenv.h ****             - curve = linear
  49:../../DaisyExamples/DaisySP/Source/Control/adenv.h ****             - phase = 0
  50:../../DaisyExamples/DaisySP/Source/Control/adenv.h ****             - min = 0
  51:../../DaisyExamples/DaisySP/Source/Control/adenv.h ****             - max = 1
  52:../../DaisyExamples/DaisySP/Source/Control/adenv.h **** 
  53:../../DaisyExamples/DaisySP/Source/Control/adenv.h ****         \param sample_rate      sample rate of the audio engine being run
  54:../../DaisyExamples/DaisySP/Source/Control/adenv.h ****     */
  55:../../DaisyExamples/DaisySP/Source/Control/adenv.h ****     void Init(float sample_rate);
  56:../../DaisyExamples/DaisySP/Source/Control/adenv.h **** 
  57:../../DaisyExamples/DaisySP/Source/Control/adenv.h ****     /** Processes the current sample of the envelope. This should be called once
ARM GAS  /var/folders/hp/45mn71hd0ps5f5pnytxy5bt00000gn/T//ccy0eSy4.s 			page 28


  58:../../DaisyExamples/DaisySP/Source/Control/adenv.h ****         per sample period.
  59:../../DaisyExamples/DaisySP/Source/Control/adenv.h ****         \return the current envelope value.
  60:../../DaisyExamples/DaisySP/Source/Control/adenv.h ****     */
  61:../../DaisyExamples/DaisySP/Source/Control/adenv.h ****     float Process();
  62:../../DaisyExamples/DaisySP/Source/Control/adenv.h **** 
  63:../../DaisyExamples/DaisySP/Source/Control/adenv.h ****     /** Starts or retriggers the envelope.*/
  64:../../DaisyExamples/DaisySP/Source/Control/adenv.h ****     inline void Trigger() { trigger_ = 1; }
 344              		.loc 17 64 17 discriminator 5 view .LVU71
 345              	.LBB394:
 346              		.loc 17 64 29 discriminator 5 view .LVU72
 347              		.loc 17 64 38 is_stmt 0 discriminator 5 view .LVU73
 348 002c 0123     		movs	r3, #1
 349 002e 86F83430 		strb	r3, [r6, #52]
 350              	.LVL11:
 351              	.L10:
 352              		.loc 17 64 38 discriminator 5 view .LVU74
 353              	.LBE394:
 354              	.LBE393:
  33:SynthV4.cpp   ****     }
  34:SynthV4.cpp   **** 
  35:SynthV4.cpp   ****     if(pod.button2.RisingEdge())
 355              		.loc 19 35 5 is_stmt 1 view .LVU75
 356              	.LBB395:
 357              	.LBI395:
 358              		.loc 10 70 17 view .LVU76
 359              	.LBB396:
 360              		.loc 10 70 38 view .LVU77
 361              		.loc 10 70 54 is_stmt 0 view .LVU78
 362 0032 95F8C430 		ldrb	r3, [r5, #196]	@ zero_extendqisi2
 363 0036 23B1     		cbz	r3, .L11
 364              	.LVL12:
 365              		.loc 10 70 54 view .LVU79
 366              	.LBE396:
 367              	.LBE395:
 368              		.loc 19 35 5 view .LVU80
 369 0038 95F8CA30 		ldrb	r3, [r5, #202]	@ zero_extendqisi2
 370 003c 7F2B     		cmp	r3, #127
 371 003e 00F09E80 		beq	.L49
 372              	.L11:
  36:SynthV4.cpp   ****     {
  37:SynthV4.cpp   ****         adCycle = !adCycle;
  38:SynthV4.cpp   ****     }
  39:SynthV4.cpp   ****     freq = p_freq.Process();
 373              		.loc 19 39 5 is_stmt 1 view .LVU81
 374              		.loc 19 39 26 is_stmt 0 view .LVU82
 375 0042 5F48     		ldr	r0, .L53+16
 376              		.loc 19 39 10 view .LVU83
 377 0044 5F4F     		ldr	r7, .L53+20
 378              		.loc 19 39 26 view .LVU84
 379 0046 FFF7FEFF 		bl	_ZN5daisy9Parameter7ProcessEv
 380              	.LVL13:
  40:SynthV4.cpp   ****     adRelease = p_release.Process();
 381              		.loc 19 40 34 view .LVU85
 382 004a 5F48     		ldr	r0, .L53+24
  39:SynthV4.cpp   ****     adRelease = p_release.Process();
 383              		.loc 19 39 10 view .LVU86
 384 004c 87ED000A 		vstr.32	s0, [r7]
ARM GAS  /var/folders/hp/45mn71hd0ps5f5pnytxy5bt00000gn/T//ccy0eSy4.s 			page 29


 385              		.loc 19 40 5 is_stmt 1 view .LVU87
 386              		.loc 19 40 34 is_stmt 0 view .LVU88
 387 0050 FFF7FEFF 		bl	_ZN5daisy9Parameter7ProcessEv
 388              	.LVL14:
 389              		.loc 19 40 15 view .LVU89
 390 0054 5D4B     		ldr	r3, .L53+28
 391 0056 83ED000A 		vstr.32	s0, [r3]
  41:SynthV4.cpp   **** 
  42:SynthV4.cpp   ****     // Set encoder change point
  43:SynthV4.cpp   ****     inc = pod.encoder.Increment();
 392              		.loc 19 43 5 is_stmt 1 view .LVU90
 393              	.LVL15:
 394              	.LBB397:
 395              	.LBI397:
  22:../../DaisyExamples/libDaisy/src/hid/encoder.h **** 
  23:../../DaisyExamples/libDaisy/src/hid/encoder.h ****     /** Initializes the encoder with the specified hardware pins.
  24:../../DaisyExamples/libDaisy/src/hid/encoder.h ****      * Update rate is to be deprecated in a future release
  25:../../DaisyExamples/libDaisy/src/hid/encoder.h ****      */
  26:../../DaisyExamples/libDaisy/src/hid/encoder.h ****     void Init(dsy_gpio_pin a,
  27:../../DaisyExamples/libDaisy/src/hid/encoder.h ****               dsy_gpio_pin b,
  28:../../DaisyExamples/libDaisy/src/hid/encoder.h ****               dsy_gpio_pin click,
  29:../../DaisyExamples/libDaisy/src/hid/encoder.h ****               float        update_rate = 0.f);
  30:../../DaisyExamples/libDaisy/src/hid/encoder.h ****     /** Called at update_rate to debounce and handle timing for the switch.
  31:../../DaisyExamples/libDaisy/src/hid/encoder.h ****      * In order for events not to be missed, its important that the Edge/Pressed checks be made at 
  32:../../DaisyExamples/libDaisy/src/hid/encoder.h ****      */
  33:../../DaisyExamples/libDaisy/src/hid/encoder.h ****     void Debounce();
  34:../../DaisyExamples/libDaisy/src/hid/encoder.h **** 
  35:../../DaisyExamples/libDaisy/src/hid/encoder.h ****     /** Returns +1 if the encoder was turned clockwise, -1 if it was turned counter-clockwise, or 0
  36:../../DaisyExamples/libDaisy/src/hid/encoder.h ****     inline int32_t Increment() const { return updated_ ? inc_ : 0; }
 396              		.loc 11 36 20 view .LVU91
 397              	.LBB398:
 398              		.loc 11 36 40 view .LVU92
 399              		.loc 11 36 56 is_stmt 0 view .LVU93
 400 005a 95F84430 		ldrb	r3, [r5, #68]	@ zero_extendqisi2
 401 005e 002B     		cmp	r3, #0
 402 0060 5DD1     		bne	.L12
 403              	.LVL16:
 404              	.L16:
 405              		.loc 11 36 56 view .LVU94
 406              	.LBE398:
 407              	.LBE397:
  44:SynthV4.cpp   ****     if(inc > 0)
  45:SynthV4.cpp   ****         volChange += 0.02;
  46:SynthV4.cpp   ****     else if(inc < 0)
  47:SynthV4.cpp   ****         volChange -= 0.02;
  48:SynthV4.cpp   ****     // Handle max and min encoder values
  49:SynthV4.cpp   ****     if (volChange > 1)
 408              		.loc 19 49 19 view .LVU95
 409 0062 DFF87491 		ldr	r9, .L53+40
 410 0066 99ED007A 		vldr.32	s14, [r9]
 411              	.L13:
 412              		.loc 19 49 5 is_stmt 1 view .LVU96
 413 006a F7EE007A 		vmov.f32	s15, #1.0e+0
 414 006e B4EEE77A 		vcmpe.f32	s14, s15
 415 0072 F1EE10FA 		vmrs	APSR_nzcv, FPSCR
 416 0076 70DD     		ble	.L47
 417              	.L52:
ARM GAS  /var/folders/hp/45mn71hd0ps5f5pnytxy5bt00000gn/T//ccy0eSy4.s 			page 30


  50:SynthV4.cpp   ****         volChange = 1;
 418              		.loc 19 50 9 view .LVU97
 419              		.loc 19 50 19 is_stmt 0 view .LVU98
 420 0078 C9ED007A 		vstr.32	s15, [r9]
 421              	.L20:
  51:SynthV4.cpp   ****     else if(volChange < 0)
  52:SynthV4.cpp   ****         volChange = 0;
  53:SynthV4.cpp   ****     // Set mute states
  54:SynthV4.cpp   ****     if(pod.encoder.RisingEdge())
 422              		.loc 19 54 5 is_stmt 1 view .LVU99
 423              	.LVL17:
 424              	.LBB399:
 425              	.LBI399:
  37:../../DaisyExamples/libDaisy/src/hid/encoder.h **** 
  38:../../DaisyExamples/libDaisy/src/hid/encoder.h ****     /** Returns true if the encoder was just pressed. */
  39:../../DaisyExamples/libDaisy/src/hid/encoder.h ****     inline bool RisingEdge() const { return sw_.RisingEdge(); }
 426              		.loc 11 39 17 view .LVU100
 427              	.LBE399:
 428              		.loc 11 39 38 view .LVU101
 429              	.LBB402:
 430              	.LBB400:
 431              	.LBI400:
 432              		.loc 10 70 17 view .LVU102
 433              	.LBB401:
 434              		.loc 10 70 38 view .LVU103
 435              		.loc 10 70 54 is_stmt 0 view .LVU104
 436 007c 95F84C30 		ldrb	r3, [r5, #76]	@ zero_extendqisi2
 437 0080 1BB1     		cbz	r3, .L22
 438              	.LVL18:
 439              		.loc 10 70 54 view .LVU105
 440              	.LBE401:
 441              	.LBE400:
 442              	.LBE402:
 443              		.loc 19 54 5 view .LVU106
 444 0082 95F85230 		ldrb	r3, [r5, #82]	@ zero_extendqisi2
 445 0086 7F2B     		cmp	r3, #127
 446 0088 70D0     		beq	.L50
 447              	.L22:
 448              	.LVL19:
 449              	.LBB403:
  55:SynthV4.cpp   ****         isVolumeOn = !isVolumeOn;
  56:SynthV4.cpp   **** 
  57:SynthV4.cpp   ****     for(size_t i = 0; i < size; i += 2)
 450              		.loc 19 57 25 is_stmt 1 discriminator 3 view .LVU107
 451 008a BAF1000F 		cmp	r10, #0
 452 008e 39D0     		beq	.L7
 453 0090 0AF1FF3A 		add	r10, r10, #-1
 454              	.LVL20:
 455              		.loc 19 57 25 is_stmt 0 view .LVU108
 456 0094 4FF0000B 		mov	fp, #0
 457 0098 484E     		ldr	r6, .L53+12
 458 009a 4FEA5A0A 		lsr	r10, r10, #1
 459              	.LVL21:
 460              		.loc 19 57 25 view .LVU109
 461 009e DFF83C81 		ldr	r8, .L53+44
 462 00a2 4B4D     		ldr	r5, .L53+32
 463 00a4 02E0     		b	.L24
ARM GAS  /var/folders/hp/45mn71hd0ps5f5pnytxy5bt00000gn/T//ccy0eSy4.s 			page 31


 464              	.LVL22:
 465              	.L51:
 466              	.LBB404:
  58:SynthV4.cpp   ****     {
  59:SynthV4.cpp   ****         float sig;
  60:SynthV4.cpp   ****         float adOut;
  61:SynthV4.cpp   **** 
  62:SynthV4.cpp   ****         ad.SetTime(ADENV_SEG_DECAY, adRelease);
 467              		.loc 19 62 19 view .LVU110
 468 00a6 494B     		ldr	r3, .L53+28
 469 00a8 93ED000A 		vldr.32	s0, [r3]
 470              	.LVL23:
 471              	.L24:
  59:SynthV4.cpp   ****         float adOut;
 472              		.loc 19 59 9 is_stmt 1 discriminator 2 view .LVU111
  60:SynthV4.cpp   **** 
 473              		.loc 19 60 9 discriminator 2 view .LVU112
 474              		.loc 19 62 9 discriminator 2 view .LVU113
 475              	.LBB405:
 476              	.LBI405:
  65:../../DaisyExamples/DaisySP/Source/Control/adenv.h ****     /** Sets the length of time (in seconds) for a specific segment. */
  66:../../DaisyExamples/DaisySP/Source/Control/adenv.h ****     inline void SetTime(uint8_t seg, float time) { segment_time_[seg] = time; }
 477              		.loc 17 66 17 discriminator 2 view .LVU114
 478              	.LBB406:
 479              		.loc 17 66 52 discriminator 2 view .LVU115
 480              	.LBE406:
 481              	.LBE405:
  63:SynthV4.cpp   ****         adOut = ad.Process();
 482              		.loc 19 63 27 is_stmt 0 discriminator 2 view .LVU116
 483 00ac 4348     		ldr	r0, .L53+12
 484              	.LBE404:
  57:SynthV4.cpp   ****     {
 485              		.loc 19 57 25 discriminator 2 view .LVU117
 486 00ae 0834     		adds	r4, r4, #8
 487              	.LBB413:
 488              	.LBB408:
 489              	.LBB407:
 490              		.loc 17 66 71 discriminator 2 view .LVU118
 491 00b0 86ED030A 		vstr.32	s0, [r6, #12]
 492              	.LVL24:
 493              		.loc 17 66 71 discriminator 2 view .LVU119
 494              	.LBE407:
 495              	.LBE408:
 496              		.loc 19 63 9 is_stmt 1 discriminator 2 view .LVU120
 497              		.loc 19 63 27 is_stmt 0 discriminator 2 view .LVU121
 498 00b4 FFF7FEFF 		bl	_ZN7daisysp5AdEnv7ProcessEv
 499              	.LVL25:
  64:SynthV4.cpp   ****         osc.SetFreq(freq);
 500              		.loc 19 64 20 discriminator 2 view .LVU122
 501 00b8 D7ED007A 		vldr.32	s15, [r7]
  63:SynthV4.cpp   ****         adOut = ad.Process();
 502              		.loc 19 63 27 discriminator 2 view .LVU123
 503 00bc B0EE408A 		vmov.f32	s16, s0
 504              	.LVL26:
 505              		.loc 19 64 9 is_stmt 1 discriminator 2 view .LVU124
 506              	.LBB409:
 507              	.LBI409:
ARM GAS  /var/folders/hp/45mn71hd0ps5f5pnytxy5bt00000gn/T//ccy0eSy4.s 			page 32


  25:../../DaisyExamples/DaisySP/Source/Synthesis/oscillator.h ****     /** Choices for output waveforms, POLYBLEP are appropriately labeled. Others are naive forms.
  26:../../DaisyExamples/DaisySP/Source/Synthesis/oscillator.h ****     */
  27:../../DaisyExamples/DaisySP/Source/Synthesis/oscillator.h ****     enum
  28:../../DaisyExamples/DaisySP/Source/Synthesis/oscillator.h ****     {
  29:../../DaisyExamples/DaisySP/Source/Synthesis/oscillator.h ****         WAVE_SIN,
  30:../../DaisyExamples/DaisySP/Source/Synthesis/oscillator.h ****         WAVE_TRI,
  31:../../DaisyExamples/DaisySP/Source/Synthesis/oscillator.h ****         WAVE_SAW,
  32:../../DaisyExamples/DaisySP/Source/Synthesis/oscillator.h ****         WAVE_RAMP,
  33:../../DaisyExamples/DaisySP/Source/Synthesis/oscillator.h ****         WAVE_SQUARE,
  34:../../DaisyExamples/DaisySP/Source/Synthesis/oscillator.h ****         WAVE_POLYBLEP_TRI,
  35:../../DaisyExamples/DaisySP/Source/Synthesis/oscillator.h ****         WAVE_POLYBLEP_SAW,
  36:../../DaisyExamples/DaisySP/Source/Synthesis/oscillator.h ****         WAVE_POLYBLEP_SQUARE,
  37:../../DaisyExamples/DaisySP/Source/Synthesis/oscillator.h ****         WAVE_LAST,
  38:../../DaisyExamples/DaisySP/Source/Synthesis/oscillator.h ****     };
  39:../../DaisyExamples/DaisySP/Source/Synthesis/oscillator.h **** 
  40:../../DaisyExamples/DaisySP/Source/Synthesis/oscillator.h **** 
  41:../../DaisyExamples/DaisySP/Source/Synthesis/oscillator.h ****     /** Initializes the Oscillator
  42:../../DaisyExamples/DaisySP/Source/Synthesis/oscillator.h **** 
  43:../../DaisyExamples/DaisySP/Source/Synthesis/oscillator.h ****         \param sample_rate - sample rate of the audio engine being run, and the frequency that the 
  44:../../DaisyExamples/DaisySP/Source/Synthesis/oscillator.h **** 
  45:../../DaisyExamples/DaisySP/Source/Synthesis/oscillator.h ****         Defaults:
  46:../../DaisyExamples/DaisySP/Source/Synthesis/oscillator.h ****         - freq_ = 100 Hz
  47:../../DaisyExamples/DaisySP/Source/Synthesis/oscillator.h ****         - amp_ = 0.5
  48:../../DaisyExamples/DaisySP/Source/Synthesis/oscillator.h ****         - waveform_ = sine wave.
  49:../../DaisyExamples/DaisySP/Source/Synthesis/oscillator.h ****     */
  50:../../DaisyExamples/DaisySP/Source/Synthesis/oscillator.h ****     void Init(float sample_rate)
  51:../../DaisyExamples/DaisySP/Source/Synthesis/oscillator.h ****     {
  52:../../DaisyExamples/DaisySP/Source/Synthesis/oscillator.h ****         sr_        = sample_rate;
  53:../../DaisyExamples/DaisySP/Source/Synthesis/oscillator.h ****         sr_recip_  = 1.0f / sample_rate;
  54:../../DaisyExamples/DaisySP/Source/Synthesis/oscillator.h ****         freq_      = 100.0f;
  55:../../DaisyExamples/DaisySP/Source/Synthesis/oscillator.h ****         amp_       = 0.5f;
  56:../../DaisyExamples/DaisySP/Source/Synthesis/oscillator.h ****         pw_        = 0.5f;
  57:../../DaisyExamples/DaisySP/Source/Synthesis/oscillator.h ****         phase_     = 0.0f;
  58:../../DaisyExamples/DaisySP/Source/Synthesis/oscillator.h ****         phase_inc_ = CalcPhaseInc(freq_);
  59:../../DaisyExamples/DaisySP/Source/Synthesis/oscillator.h ****         waveform_  = WAVE_SIN;
  60:../../DaisyExamples/DaisySP/Source/Synthesis/oscillator.h ****         eoc_       = true;
  61:../../DaisyExamples/DaisySP/Source/Synthesis/oscillator.h ****         eor_       = true;
  62:../../DaisyExamples/DaisySP/Source/Synthesis/oscillator.h ****     }
  63:../../DaisyExamples/DaisySP/Source/Synthesis/oscillator.h **** 
  64:../../DaisyExamples/DaisySP/Source/Synthesis/oscillator.h **** 
  65:../../DaisyExamples/DaisySP/Source/Synthesis/oscillator.h ****     /** Changes the frequency of the Oscillator, and recalculates phase increment.
  66:../../DaisyExamples/DaisySP/Source/Synthesis/oscillator.h ****     */
  67:../../DaisyExamples/DaisySP/Source/Synthesis/oscillator.h ****     inline void SetFreq(const float f)
 508              		.loc 18 67 17 discriminator 2 view .LVU125
 509              	.LBB410:
  68:../../DaisyExamples/DaisySP/Source/Synthesis/oscillator.h ****     {
  69:../../DaisyExamples/DaisySP/Source/Synthesis/oscillator.h ****         freq_      = f;
 510              		.loc 18 69 9 discriminator 2 view .LVU126
  70:../../DaisyExamples/DaisySP/Source/Synthesis/oscillator.h ****         phase_inc_ = CalcPhaseInc(f);
 511              		.loc 18 70 34 is_stmt 0 discriminator 2 view .LVU127
 512 00c0 4348     		ldr	r0, .L53+32
 513 00c2 B0EE670A 		vmov.f32	s0, s15
 514              	.LVL27:
  69:../../DaisyExamples/DaisySP/Source/Synthesis/oscillator.h ****         phase_inc_ = CalcPhaseInc(f);
 515              		.loc 18 69 20 discriminator 2 view .LVU128
 516 00c6 C5ED027A 		vstr.32	s15, [r5, #8]
 517              		.loc 18 70 9 is_stmt 1 discriminator 2 view .LVU129
ARM GAS  /var/folders/hp/45mn71hd0ps5f5pnytxy5bt00000gn/T//ccy0eSy4.s 			page 33


 518              		.loc 18 70 34 is_stmt 0 discriminator 2 view .LVU130
 519 00ca FFF7FEFF 		bl	_ZN7daisysp10Oscillator12CalcPhaseIncEf
 520              	.LVL28:
 521              		.loc 18 70 34 discriminator 2 view .LVU131
 522              	.LBE410:
 523              	.LBE409:
  65:SynthV4.cpp   ****         sig = osc.Process();
 524              		.loc 19 65 26 discriminator 2 view .LVU132
 525 00ce 4048     		ldr	r0, .L53+32
 526              	.LBB412:
 527              	.LBB411:
 528              		.loc 18 70 20 discriminator 2 view .LVU133
 529 00d0 85ED070A 		vstr.32	s0, [r5, #28]
 530              	.LVL29:
 531              		.loc 18 70 20 discriminator 2 view .LVU134
 532              	.LBE411:
 533              	.LBE412:
 534              		.loc 19 65 9 is_stmt 1 discriminator 2 view .LVU135
 535              		.loc 19 65 26 is_stmt 0 discriminator 2 view .LVU136
 536 00d4 FFF7FEFF 		bl	_ZN7daisysp10Oscillator7ProcessEv
 537              	.LVL30:
  66:SynthV4.cpp   ****         sig *= adOut;
 538              		.loc 19 66 9 is_stmt 1 discriminator 2 view .LVU137
  67:SynthV4.cpp   ****         sig *= volChange;
  68:SynthV4.cpp   ****         sig *= isVolumeOn; // Mute point
 539              		.loc 19 68 13 is_stmt 0 discriminator 2 view .LVU138
 540 00d8 98F80030 		ldrb	r3, [r8]	@ zero_extendqisi2
  66:SynthV4.cpp   ****         sig *= adOut;
 541              		.loc 19 66 13 discriminator 2 view .LVU139
 542 00dc 28EE000A 		vmul.f32	s0, s16, s0
 543              	.LVL31:
  67:SynthV4.cpp   ****         sig *= volChange;
 544              		.loc 19 67 9 is_stmt 1 discriminator 2 view .LVU140
  67:SynthV4.cpp   ****         sig *= volChange;
 545              		.loc 19 67 13 is_stmt 0 discriminator 2 view .LVU141
 546 00e0 D9ED007A 		vldr.32	s15, [r9]
 547              	.LBE413:
  57:SynthV4.cpp   ****     {
 548              		.loc 19 57 25 discriminator 2 view .LVU142
 549 00e4 D345     		cmp	fp, r10
 550              	.LBB414:
 551              		.loc 19 68 13 discriminator 2 view .LVU143
 552 00e6 07EE103A 		vmov	s14, r3	@ int
 553 00ea 0BF1010B 		add	fp, fp, #1
 554              	.LVL32:
  67:SynthV4.cpp   ****         sig *= volChange;
 555              		.loc 19 67 13 discriminator 2 view .LVU144
 556 00ee 20EE270A 		vmul.f32	s0, s0, s15
 557              	.LVL33:
 558              		.loc 19 68 9 is_stmt 1 discriminator 2 view .LVU145
 559              		.loc 19 68 13 is_stmt 0 discriminator 2 view .LVU146
 560 00f2 B8EEC78A 		vcvt.f32.s32	s16, s14
 561              	.LVL34:
 562              		.loc 19 68 13 discriminator 2 view .LVU147
 563 00f6 28EE000A 		vmul.f32	s0, s16, s0
 564              	.LVL35:
  69:SynthV4.cpp   ****         out[i] = sig;
ARM GAS  /var/folders/hp/45mn71hd0ps5f5pnytxy5bt00000gn/T//ccy0eSy4.s 			page 34


 565              		.loc 19 69 9 is_stmt 1 discriminator 2 view .LVU148
 566              		.loc 19 69 16 is_stmt 0 discriminator 2 view .LVU149
 567 00fa 04ED020A 		vstr.32	s0, [r4, #-8]
  70:SynthV4.cpp   ****         out[i + 1] = sig;
 568              		.loc 19 70 9 is_stmt 1 discriminator 2 view .LVU150
 569              		.loc 19 70 20 is_stmt 0 discriminator 2 view .LVU151
 570 00fe 04ED010A 		vstr.32	s0, [r4, #-4]
 571              	.LBE414:
  57:SynthV4.cpp   ****     {
 572              		.loc 19 57 5 is_stmt 1 discriminator 2 view .LVU152
 573              	.LVL36:
  57:SynthV4.cpp   ****     {
 574              		.loc 19 57 25 discriminator 2 view .LVU153
 575 0102 D0D1     		bne	.L51
 576              	.LVL37:
 577              	.L7:
  57:SynthV4.cpp   ****     {
 578              		.loc 19 57 25 is_stmt 0 discriminator 2 view .LVU154
 579              	.LBE403:
  71:SynthV4.cpp   ****     }
  72:SynthV4.cpp   **** }
 580              		.loc 19 72 1 view .LVU155
 581 0104 BDEC028B 		vldm	sp!, {d8}
 582              		.cfi_remember_state
 583              		.cfi_restore 80
 584              		.cfi_restore 81
 585              		.cfi_def_cfa_offset 40
 586 0108 BDE8F88F 		pop	{r3, r4, r5, r6, r7, r8, r9, r10, fp, pc}
 587              	.LVL38:
 588              	.L8:
 589              		.cfi_restore_state
  30:SynthV4.cpp   ****     {
 590              		.loc 19 30 33 discriminator 2 view .LVU156
 591 010c 314B     		ldr	r3, .L53+36
 592 010e 1B78     		ldrb	r3, [r3]	@ zero_extendqisi2
 593 0110 002B     		cmp	r3, #0
 594 0112 8ED0     		beq	.L10
 595              	.LVL39:
 596              	.LBB415:
 597              	.LBI415:
  67:../../DaisyExamples/DaisySP/Source/Control/adenv.h ****     /** Sets the amount of curve applied. A positve value will create a log
  68:../../DaisyExamples/DaisySP/Source/Control/adenv.h ****         curve. Input range: -100 to 100.  (or more)
  69:../../DaisyExamples/DaisySP/Source/Control/adenv.h ****     */
  70:../../DaisyExamples/DaisySP/Source/Control/adenv.h ****     inline void SetCurve(float scalar) { curve_scalar_ = scalar; }
  71:../../DaisyExamples/DaisySP/Source/Control/adenv.h ****     /** Sets the minimum value of the envelope output.
  72:../../DaisyExamples/DaisySP/Source/Control/adenv.h ****         Input range: -FLTmax_, to FLTmax_
  73:../../DaisyExamples/DaisySP/Source/Control/adenv.h ****     */
  74:../../DaisyExamples/DaisySP/Source/Control/adenv.h ****     inline void SetMin(float min) { min_ = min; }
  75:../../DaisyExamples/DaisySP/Source/Control/adenv.h ****     /** Sets the maximum value of the envelope output.
  76:../../DaisyExamples/DaisySP/Source/Control/adenv.h ****         Input range: -FLTmax_, to FLTmax_
  77:../../DaisyExamples/DaisySP/Source/Control/adenv.h ****     */
  78:../../DaisyExamples/DaisySP/Source/Control/adenv.h ****     inline void SetMax(float max) { max_ = max; }
  79:../../DaisyExamples/DaisySP/Source/Control/adenv.h ****     /** Returns the current output value without processing the next sample */
  80:../../DaisyExamples/DaisySP/Source/Control/adenv.h ****     inline float GetValue() const { return (output_ * (max_ - min_)) + min_; }
  81:../../DaisyExamples/DaisySP/Source/Control/adenv.h ****     /** Returns the segment of the envelope that the phase is currently located
  82:../../DaisyExamples/DaisySP/Source/Control/adenv.h ****         in.
  83:../../DaisyExamples/DaisySP/Source/Control/adenv.h ****     */
ARM GAS  /var/folders/hp/45mn71hd0ps5f5pnytxy5bt00000gn/T//ccy0eSy4.s 			page 35


  84:../../DaisyExamples/DaisySP/Source/Control/adenv.h ****     inline uint8_t GetCurrentSegment() { return current_segment_; }
  85:../../DaisyExamples/DaisySP/Source/Control/adenv.h ****     /** Returns true if the envelope is currently in any stage apart from idle.
  86:../../DaisyExamples/DaisySP/Source/Control/adenv.h ****     */
  87:../../DaisyExamples/DaisySP/Source/Control/adenv.h ****     inline bool IsRunning() const { return current_segment_ != ADENV_SEG_IDLE; }
 598              		.loc 17 87 17 is_stmt 1 view .LVU157
 599              	.LBB416:
 600              		.loc 17 87 37 view .LVU158
 601              		.loc 17 87 44 is_stmt 0 view .LVU159
 602 0114 294E     		ldr	r6, .L53+12
 603              	.LBE416:
 604              	.LBE415:
  30:SynthV4.cpp   ****     {
 605              		.loc 19 30 45 view .LVU160
 606 0116 3378     		ldrb	r3, [r6]	@ zero_extendqisi2
 607 0118 002B     		cmp	r3, #0
 608 011a 8AD1     		bne	.L10
 609 011c 86E7     		b	.L9
 610              	.LVL40:
 611              	.L12:
  43:SynthV4.cpp   ****     if(inc > 0)
 612              		.loc 19 43 9 view .LVU161
 613 011e D5ED197A 		vldr.32	s15, [r5, #100]	@ int
 614 0122 F8EEE77A 		vcvt.f32.s32	s15, s15
  44:SynthV4.cpp   ****         volChange += 0.02;
 615              		.loc 19 44 5 is_stmt 1 view .LVU162
 616 0126 F5EEC07A 		vcmpe.f32	s15, #0
 617 012a F1EE10FA 		vmrs	APSR_nzcv, FPSCR
 618 012e 2CDD     		ble	.L46
  45:SynthV4.cpp   ****     else if(inc < 0)
 619              		.loc 19 45 9 view .LVU163
  45:SynthV4.cpp   ****     else if(inc < 0)
 620              		.loc 19 45 19 is_stmt 0 view .LVU164
 621 0130 DFF8A490 		ldr	r9, .L53+40
 622 0134 99ED007A 		vldr.32	s14, [r9]
 623 0138 9FED1D6B 		vldr.64	d6, .L53
 624 013c B7EEC77A 		vcvt.f64.f32	d7, s14
 625 0140 37EE067B 		vadd.f64	d7, d7, d6
 626 0144 B7EEC77B 		vcvt.f32.f64	s14, d7
  49:SynthV4.cpp   ****         volChange = 1;
 627              		.loc 19 49 5 view .LVU165
 628 0148 F7EE007A 		vmov.f32	s15, #1.0e+0
  45:SynthV4.cpp   ****     else if(inc < 0)
 629              		.loc 19 45 19 view .LVU166
 630 014c 89ED007A 		vstr.32	s14, [r9]
  49:SynthV4.cpp   ****         volChange = 1;
 631              		.loc 19 49 5 is_stmt 1 view .LVU167
 632 0150 B4EEE77A 		vcmpe.f32	s14, s15
 633 0154 F1EE10FA 		vmrs	APSR_nzcv, FPSCR
 634 0158 8EDC     		bgt	.L52
 635              	.L47:
  51:SynthV4.cpp   ****         volChange = 0;
 636              		.loc 19 51 10 view .LVU168
 637 015a B5EEC07A 		vcmpe.f32	s14, #0
 638 015e 0023     		movs	r3, #0
 639 0160 F1EE10FA 		vmrs	APSR_nzcv, FPSCR
  52:SynthV4.cpp   ****     // Set mute states
 640              		.loc 19 52 9 view .LVU169
ARM GAS  /var/folders/hp/45mn71hd0ps5f5pnytxy5bt00000gn/T//ccy0eSy4.s 			page 36


  52:SynthV4.cpp   ****     // Set mute states
 641              		.loc 19 52 19 is_stmt 0 view .LVU170
 642 0164 48BF     		it	mi
 643 0166 C9F80030 		strmi	r3, [r9]	@ float
 644 016a 87E7     		b	.L20
 645              	.L50:
  55:SynthV4.cpp   **** 
 646              		.loc 19 55 9 is_stmt 1 view .LVU171
  55:SynthV4.cpp   **** 
 647              		.loc 19 55 20 is_stmt 0 view .LVU172
 648 016c DFF86C80 		ldr	r8, .L53+44
  55:SynthV4.cpp   **** 
 649              		.loc 19 55 22 view .LVU173
 650 0170 98F80030 		ldrb	r3, [r8]	@ zero_extendqisi2
 651 0174 83F00103 		eor	r3, r3, #1
  55:SynthV4.cpp   **** 
 652              		.loc 19 55 20 view .LVU174
 653 0178 88F80030 		strb	r3, [r8]
 654 017c 85E7     		b	.L22
 655              	.L49:
  37:SynthV4.cpp   ****     }
 656              		.loc 19 37 9 is_stmt 1 view .LVU175
  37:SynthV4.cpp   ****     }
 657              		.loc 19 37 17 is_stmt 0 view .LVU176
 658 017e 154A     		ldr	r2, .L53+36
  37:SynthV4.cpp   ****     }
 659              		.loc 19 37 19 view .LVU177
 660 0180 1378     		ldrb	r3, [r2]	@ zero_extendqisi2
 661 0182 83F00103 		eor	r3, r3, #1
  37:SynthV4.cpp   ****     }
 662              		.loc 19 37 17 view .LVU178
 663 0186 1370     		strb	r3, [r2]
 664 0188 5BE7     		b	.L11
 665              	.L46:
  46:SynthV4.cpp   ****         volChange -= 0.02;
 666              		.loc 19 46 10 is_stmt 1 view .LVU179
 667 018a 7FF56AAF 		bpl	.L16
  47:SynthV4.cpp   ****     // Handle max and min encoder values
 668              		.loc 19 47 9 view .LVU180
  47:SynthV4.cpp   ****     // Handle max and min encoder values
 669              		.loc 19 47 19 is_stmt 0 view .LVU181
 670 018e DFF84890 		ldr	r9, .L53+40
 671 0192 99ED007A 		vldr.32	s14, [r9]
 672 0196 9FED066B 		vldr.64	d6, .L53
 673 019a B7EEC77A 		vcvt.f64.f32	d7, s14
 674 019e 37EE467B 		vsub.f64	d7, d7, d6
 675 01a2 B7EEC77B 		vcvt.f32.f64	s14, d7
 676 01a6 89ED007A 		vstr.32	s14, [r9]
 677 01aa 5EE7     		b	.L13
 678              	.L54:
 679 01ac AFF30080 		.align	3
 680              	.L53:
 681 01b0 7B14AE47 		.word	1202590843
 682 01b4 E17A943F 		.word	1066695393
 683 01b8 00000000 		.word	_ZL3pod
 684 01bc 00000000 		.word	.LANCHOR1
 685 01c0 00000000 		.word	.LANCHOR2
ARM GAS  /var/folders/hp/45mn71hd0ps5f5pnytxy5bt00000gn/T//ccy0eSy4.s 			page 37


 686 01c4 00000000 		.word	.LANCHOR3
 687 01c8 00000000 		.word	.LANCHOR4
 688 01cc 00000000 		.word	.LANCHOR5
 689 01d0 00000000 		.word	.LANCHOR8
 690 01d4 00000000 		.word	.LANCHOR0
 691 01d8 00000000 		.word	.LANCHOR6
 692 01dc 00000000 		.word	.LANCHOR7
 693              		.cfi_endproc
 694              	.LFE4854:
 696              		.section	.text.startup.main,"ax",%progbits
 697              		.align	1
 698              		.p2align 2,,3
 699              		.global	main
 700              		.syntax unified
 701              		.thumb
 702              		.thumb_func
 704              	main:
 705              	.LFB4855:
  73:SynthV4.cpp   **** int main(void)
  74:SynthV4.cpp   **** {
 706              		.loc 19 74 1 is_stmt 1 view -0
 707              		.cfi_startproc
 708              		@ args = 0, pretend = 0, frame = 32
 709              		@ frame_needed = 0, uses_anonymous_args = 0
  75:SynthV4.cpp   ****     float samplerate;
 710              		.loc 19 75 5 view .LVU183
  76:SynthV4.cpp   **** 
  77:SynthV4.cpp   ****     pod.Init();
 711              		.loc 19 77 5 view .LVU184
  74:SynthV4.cpp   ****     float samplerate;
 712              		.loc 19 74 1 is_stmt 0 view .LVU185
 713 0000 2DE9F041 		push	{r4, r5, r6, r7, r8, lr}
 714              		.cfi_def_cfa_offset 24
 715              		.cfi_offset 4, -24
 716              		.cfi_offset 5, -20
 717              		.cfi_offset 6, -16
 718              		.cfi_offset 7, -12
 719              		.cfi_offset 8, -8
 720              		.cfi_offset 14, -4
 721              		.loc 19 77 13 view .LVU186
 722 0004 0021     		movs	r1, #0
 723 0006 3B48     		ldr	r0, .L58
  78:SynthV4.cpp   ****     pod.SetAudioBlockSize(4);
  79:SynthV4.cpp   ****     samplerate = pod.AudioSampleRate();
  80:SynthV4.cpp   **** 
  81:SynthV4.cpp   ****     volChange = 0.5;
 724              		.loc 19 81 15 view .LVU187
 725 0008 4FF07C57 		mov	r7, #1056964608
 726              	.LBB437:
 727              	.LBB438:
  52:../../DaisyExamples/DaisySP/Source/Synthesis/oscillator.h ****         sr_recip_  = 1.0f / sample_rate;
 728              		.loc 18 52 20 view .LVU188
 729 000c 3A4C     		ldr	r4, .L58+4
 730              	.LBE438:
 731              	.LBE437:
  82:SynthV4.cpp   ****     isVolumeOn = true;
 732              		.loc 19 82 16 view .LVU189
ARM GAS  /var/folders/hp/45mn71hd0ps5f5pnytxy5bt00000gn/T//ccy0eSy4.s 			page 38


 733 000e 0125     		movs	r5, #1
 734              	.LBB446:
 735              	.LBB439:
  57:../../DaisyExamples/DaisySP/Source/Synthesis/oscillator.h ****         phase_inc_ = CalcPhaseInc(freq_);
 736              		.loc 18 57 20 view .LVU190
 737 0010 4FF00008 		mov	r8, #0
 738              	.LBE439:
 739              	.LBE446:
  83:SynthV4.cpp   ****     inc = 0;
  84:SynthV4.cpp   **** 
  85:SynthV4.cpp   ****     osc.Init(samplerate);
  86:SynthV4.cpp   ****     osc.SetWaveform(osc.WAVE_TRI);
  87:SynthV4.cpp   ****     osc.SetAmp(0.1f);
  88:SynthV4.cpp   **** 
  89:SynthV4.cpp   ****     ad.Init(samplerate);
 740              		.loc 19 89 12 view .LVU191
 741 0014 394E     		ldr	r6, .L58+8
  74:SynthV4.cpp   ****     float samplerate;
 742              		.loc 19 74 1 view .LVU192
 743 0016 2DED048B 		vpush.64	{d8, d9}
 744              		.cfi_def_cfa_offset 40
 745              		.cfi_offset 80, -40
 746              		.cfi_offset 81, -36
 747              		.cfi_offset 82, -32
 748              		.cfi_offset 83, -28
 749 001a 88B0     		sub	sp, sp, #32
 750              		.cfi_def_cfa_offset 72
 751              	.LBB447:
 752              	.LBB440:
  53:../../DaisyExamples/DaisySP/Source/Synthesis/oscillator.h ****         freq_      = 100.0f;
 753              		.loc 18 53 27 view .LVU193
 754 001c F7EE008A 		vmov.f32	s17, #1.0e+0
 755              	.LBE440:
 756              	.LBE447:
  77:SynthV4.cpp   ****     pod.SetAudioBlockSize(4);
 757              		.loc 19 77 13 view .LVU194
 758 0020 FFF7FEFF 		bl	_ZN5daisy8DaisyPod4InitEb
 759              	.LVL41:
  78:SynthV4.cpp   ****     samplerate = pod.AudioSampleRate();
 760              		.loc 19 78 5 is_stmt 1 view .LVU195
  78:SynthV4.cpp   ****     samplerate = pod.AudioSampleRate();
 761              		.loc 19 78 26 is_stmt 0 view .LVU196
 762 0024 0421     		movs	r1, #4
 763 0026 3348     		ldr	r0, .L58
 764 0028 FFF7FEFF 		bl	_ZN5daisy8DaisyPod17SetAudioBlockSizeEj
 765              	.LVL42:
  79:SynthV4.cpp   **** 
 766              		.loc 19 79 5 is_stmt 1 view .LVU197
  79:SynthV4.cpp   **** 
 767              		.loc 19 79 37 is_stmt 0 view .LVU198
 768 002c 3148     		ldr	r0, .L58
 769 002e FFF7FEFF 		bl	_ZN5daisy8DaisyPod15AudioSampleRateEv
 770              	.LVL43:
 771 0032 B0EE408A 		vmov.f32	s16, s0
 772              	.LVL44:
  81:SynthV4.cpp   ****     isVolumeOn = true;
 773              		.loc 19 81 5 is_stmt 1 view .LVU199
ARM GAS  /var/folders/hp/45mn71hd0ps5f5pnytxy5bt00000gn/T//ccy0eSy4.s 			page 39


  81:SynthV4.cpp   ****     isVolumeOn = true;
 774              		.loc 19 81 15 is_stmt 0 view .LVU200
 775 0036 324B     		ldr	r3, .L58+12
 776              	.LBB448:
 777              	.LBB441:
  58:../../DaisyExamples/DaisySP/Source/Synthesis/oscillator.h ****         waveform_  = WAVE_SIN;
 778              		.loc 18 58 34 view .LVU201
 779 0038 2046     		mov	r0, r4
  54:../../DaisyExamples/DaisySP/Source/Synthesis/oscillator.h ****         amp_       = 0.5f;
 780              		.loc 18 54 20 view .LVU202
 781 003a 9FED320A 		vldr.32	s0, .L58+16
 782              	.LVL45:
  53:../../DaisyExamples/DaisySP/Source/Synthesis/oscillator.h ****         freq_      = 100.0f;
 783              		.loc 18 53 27 view .LVU203
 784 003e C8EE887A 		vdiv.f32	s15, s17, s16
 785              	.LBE441:
 786              	.LBE448:
  81:SynthV4.cpp   ****     isVolumeOn = true;
 787              		.loc 19 81 15 view .LVU204
 788 0042 1F60     		str	r7, [r3]	@ float
  82:SynthV4.cpp   ****     inc = 0;
 789              		.loc 19 82 5 is_stmt 1 view .LVU205
  82:SynthV4.cpp   ****     inc = 0;
 790              		.loc 19 82 16 is_stmt 0 view .LVU206
 791 0044 304B     		ldr	r3, .L58+20
 792              	.LBB449:
 793              	.LBB442:
  52:../../DaisyExamples/DaisySP/Source/Synthesis/oscillator.h ****         sr_recip_  = 1.0f / sample_rate;
 794              		.loc 18 52 20 view .LVU207
 795 0046 84ED048A 		vstr.32	s16, [r4, #16]
 796              	.LBE442:
 797              	.LBE449:
  82:SynthV4.cpp   ****     inc = 0;
 798              		.loc 19 82 16 view .LVU208
 799 004a 1D70     		strb	r5, [r3]
  83:SynthV4.cpp   **** 
 800              		.loc 19 83 5 is_stmt 1 view .LVU209
  85:SynthV4.cpp   ****     osc.SetWaveform(osc.WAVE_TRI);
 801              		.loc 19 85 5 view .LVU210
 802              	.LVL46:
 803              	.LBB450:
 804              	.LBI437:
  50:../../DaisyExamples/DaisySP/Source/Synthesis/oscillator.h ****     {
 805              		.loc 18 50 10 view .LVU211
 806              	.LBB443:
  52:../../DaisyExamples/DaisySP/Source/Synthesis/oscillator.h ****         sr_recip_  = 1.0f / sample_rate;
 807              		.loc 18 52 9 view .LVU212
  53:../../DaisyExamples/DaisySP/Source/Synthesis/oscillator.h ****         freq_      = 100.0f;
 808              		.loc 18 53 9 view .LVU213
  54:../../DaisyExamples/DaisySP/Source/Synthesis/oscillator.h ****         amp_       = 0.5f;
 809              		.loc 18 54 20 is_stmt 0 view .LVU214
 810 004c 84ED020A 		vstr.32	s0, [r4, #8]
  55:../../DaisyExamples/DaisySP/Source/Synthesis/oscillator.h ****         pw_        = 0.5f;
 811              		.loc 18 55 20 view .LVU215
 812 0050 6760     		str	r7, [r4, #4]	@ float
  56:../../DaisyExamples/DaisySP/Source/Synthesis/oscillator.h ****         phase_     = 0.0f;
 813              		.loc 18 56 20 view .LVU216
ARM GAS  /var/folders/hp/45mn71hd0ps5f5pnytxy5bt00000gn/T//ccy0eSy4.s 			page 40


 814 0052 E760     		str	r7, [r4, #12]	@ float
  57:../../DaisyExamples/DaisySP/Source/Synthesis/oscillator.h ****         phase_inc_ = CalcPhaseInc(freq_);
 815              		.loc 18 57 20 view .LVU217
 816 0054 C4F81880 		str	r8, [r4, #24]	@ float
 817              	.LBE443:
 818              	.LBE450:
 819              	.LBB451:
 820              	.LBB452:
  66:../../DaisyExamples/DaisySP/Source/Control/adenv.h ****     /** Sets the amount of curve applied. A positve value will create a log
 821              		.loc 17 66 71 view .LVU218
 822 0058 9FED2C9A 		vldr.32	s18, .L58+24
 823              	.LBE452:
 824              	.LBE451:
 825              	.LBB455:
 826              	.LBB444:
  53:../../DaisyExamples/DaisySP/Source/Synthesis/oscillator.h ****         freq_      = 100.0f;
 827              		.loc 18 53 20 view .LVU219
 828 005c C4ED057A 		vstr.32	s15, [r4, #20]
  54:../../DaisyExamples/DaisySP/Source/Synthesis/oscillator.h ****         amp_       = 0.5f;
 829              		.loc 18 54 9 is_stmt 1 view .LVU220
  55:../../DaisyExamples/DaisySP/Source/Synthesis/oscillator.h ****         pw_        = 0.5f;
 830              		.loc 18 55 9 view .LVU221
  56:../../DaisyExamples/DaisySP/Source/Synthesis/oscillator.h ****         phase_     = 0.0f;
 831              		.loc 18 56 9 view .LVU222
  57:../../DaisyExamples/DaisySP/Source/Synthesis/oscillator.h ****         phase_inc_ = CalcPhaseInc(freq_);
 832              		.loc 18 57 9 view .LVU223
  58:../../DaisyExamples/DaisySP/Source/Synthesis/oscillator.h ****         waveform_  = WAVE_SIN;
 833              		.loc 18 58 9 view .LVU224
  58:../../DaisyExamples/DaisySP/Source/Synthesis/oscillator.h ****         waveform_  = WAVE_SIN;
 834              		.loc 18 58 34 is_stmt 0 view .LVU225
 835 0060 FFF7FEFF 		bl	_ZN7daisysp10Oscillator12CalcPhaseIncEf
 836              	.LVL47:
  61:../../DaisyExamples/DaisySP/Source/Synthesis/oscillator.h ****     }
 837              		.loc 18 61 20 view .LVU226
 838 0064 40F20113 		movw	r3, #257
  58:../../DaisyExamples/DaisySP/Source/Synthesis/oscillator.h ****         waveform_  = WAVE_SIN;
 839              		.loc 18 58 34 view .LVU227
 840 0068 F0EE407A 		vmov.f32	s15, s0
 841              	.LBE444:
 842              	.LBE455:
 843              	.LBB456:
 844              	.LBB457:
  71:../../DaisyExamples/DaisySP/Source/Synthesis/oscillator.h ****     }
  72:../../DaisyExamples/DaisySP/Source/Synthesis/oscillator.h **** 
  73:../../DaisyExamples/DaisySP/Source/Synthesis/oscillator.h **** 
  74:../../DaisyExamples/DaisySP/Source/Synthesis/oscillator.h ****     /** Sets the amplitude of the waveform.
  75:../../DaisyExamples/DaisySP/Source/Synthesis/oscillator.h ****     */
  76:../../DaisyExamples/DaisySP/Source/Synthesis/oscillator.h ****     inline void SetAmp(const float a) { amp_ = a; }
 845              		.loc 18 76 46 view .LVU228
 846 006c 284A     		ldr	r2, .L58+28
 847              	.LBE457:
 848              	.LBE456:
 849              		.loc 19 89 12 view .LVU229
 850 006e B0EE480A 		vmov.f32	s0, s16
 851              	.LBB460:
 852              	.LBB461:
  77:../../DaisyExamples/DaisySP/Source/Synthesis/oscillator.h ****     /** Sets the waveform to be synthesized by the Process() function.
ARM GAS  /var/folders/hp/45mn71hd0ps5f5pnytxy5bt00000gn/T//ccy0eSy4.s 			page 41


  78:../../DaisyExamples/DaisySP/Source/Synthesis/oscillator.h ****     */
  79:../../DaisyExamples/DaisySP/Source/Synthesis/oscillator.h ****     inline void SetWaveform(const uint8_t wf)
  80:../../DaisyExamples/DaisySP/Source/Synthesis/oscillator.h ****     {
  81:../../DaisyExamples/DaisySP/Source/Synthesis/oscillator.h ****         waveform_ = wf < WAVE_LAST ? wf : WAVE_SIN;
 853              		.loc 18 81 19 view .LVU230
 854 0072 2570     		strb	r5, [r4]
 855              	.LBE461:
 856              	.LBE460:
 857              		.loc 19 89 12 view .LVU231
 858 0074 3046     		mov	r0, r6
  90:SynthV4.cpp   ****     ad.SetTime(ADENV_SEG_ATTACK, 0.01f);
  91:SynthV4.cpp   ****     ad.SetTime(ADENV_SEG_DECAY, 1.0f);
  92:SynthV4.cpp   ****     ad.SetMax(1);
  93:SynthV4.cpp   ****     ad.SetMin(0);
  94:SynthV4.cpp   ****     ad.SetCurve(0.5);
  95:SynthV4.cpp   **** 
  96:SynthV4.cpp   ****     p_freq.Init(pod.knob1, 50.0f, 5000.0f, Parameter::LOGARITHMIC);
 859              		.loc 19 96 21 view .LVU232
 860 0076 274D     		ldr	r5, .L58+32
 861              	.LBB463:
 862              	.LBB445:
  61:../../DaisyExamples/DaisySP/Source/Synthesis/oscillator.h ****     }
 863              		.loc 18 61 20 view .LVU233
 864 0078 2385     		strh	r3, [r4, #40]	@ movhi
  58:../../DaisyExamples/DaisySP/Source/Synthesis/oscillator.h ****         waveform_  = WAVE_SIN;
 865              		.loc 18 58 20 view .LVU234
 866 007a C4ED077A 		vstr.32	s15, [r4, #28]
  59:../../DaisyExamples/DaisySP/Source/Synthesis/oscillator.h ****         eoc_       = true;
 867              		.loc 18 59 9 is_stmt 1 view .LVU235
  60:../../DaisyExamples/DaisySP/Source/Synthesis/oscillator.h ****         eor_       = true;
 868              		.loc 18 60 9 view .LVU236
  61:../../DaisyExamples/DaisySP/Source/Synthesis/oscillator.h ****     }
 869              		.loc 18 61 9 view .LVU237
 870              	.LVL48:
  61:../../DaisyExamples/DaisySP/Source/Synthesis/oscillator.h ****     }
 871              		.loc 18 61 9 is_stmt 0 view .LVU238
 872              	.LBE445:
 873              	.LBE463:
  86:SynthV4.cpp   ****     osc.SetAmp(0.1f);
 874              		.loc 19 86 5 is_stmt 1 view .LVU239
 875              	.LBB464:
 876              	.LBI460:
  79:../../DaisyExamples/DaisySP/Source/Synthesis/oscillator.h ****     {
 877              		.loc 18 79 17 view .LVU240
 878              	.LBB462:
 879              		.loc 18 81 9 view .LVU241
 880              		.loc 18 81 9 is_stmt 0 view .LVU242
 881              	.LBE462:
 882              	.LBE464:
  87:SynthV4.cpp   **** 
 883              		.loc 19 87 5 is_stmt 1 view .LVU243
 884              	.LBB465:
 885              	.LBI456:
  76:../../DaisyExamples/DaisySP/Source/Synthesis/oscillator.h ****     /** Sets the waveform to be synthesized by the Process() function.
 886              		.loc 18 76 17 view .LVU244
 887              	.LBB458:
  76:../../DaisyExamples/DaisySP/Source/Synthesis/oscillator.h ****     /** Sets the waveform to be synthesized by the Process() function.
ARM GAS  /var/folders/hp/45mn71hd0ps5f5pnytxy5bt00000gn/T//ccy0eSy4.s 			page 42


 888              		.loc 18 76 41 view .LVU245
  76:../../DaisyExamples/DaisySP/Source/Synthesis/oscillator.h ****     /** Sets the waveform to be synthesized by the Process() function.
 889              		.loc 18 76 41 is_stmt 0 view .LVU246
 890              	.LBE458:
 891              	.LBE465:
  89:SynthV4.cpp   ****     ad.SetTime(ADENV_SEG_ATTACK, 0.01f);
 892              		.loc 19 89 5 is_stmt 1 view .LVU247
 893              	.LBB466:
 894              	.LBB459:
  76:../../DaisyExamples/DaisySP/Source/Synthesis/oscillator.h ****     /** Sets the waveform to be synthesized by the Process() function.
 895              		.loc 18 76 46 is_stmt 0 view .LVU248
 896 007e 6260     		str	r2, [r4, #4]	@ float
 897              	.LBE459:
 898              	.LBE466:
  89:SynthV4.cpp   ****     ad.SetTime(ADENV_SEG_ATTACK, 0.01f);
 899              		.loc 19 89 12 view .LVU249
 900 0080 FFF7FEFF 		bl	_ZN7daisysp5AdEnv4InitEf
 901              	.LVL49:
  90:SynthV4.cpp   ****     ad.SetTime(ADENV_SEG_DECAY, 1.0f);
 902              		.loc 19 90 5 is_stmt 1 view .LVU250
 903              	.LBB467:
 904              	.LBI451:
  66:../../DaisyExamples/DaisySP/Source/Control/adenv.h ****     /** Sets the amount of curve applied. A positve value will create a log
 905              		.loc 17 66 17 view .LVU251
 906              	.LBB453:
  66:../../DaisyExamples/DaisySP/Source/Control/adenv.h ****     /** Sets the amount of curve applied. A positve value will create a log
 907              		.loc 17 66 52 view .LVU252
 908              	.LBE453:
 909              	.LBE467:
 910              		.loc 19 96 21 is_stmt 0 view .LVU253
 911 0084 6C46     		mov	r4, sp
 912              		.loc 19 96 16 view .LVU254
 913 0086 DFED240A 		vldr.32	s1, .L58+36
 914 008a 9FED240A 		vldr.32	s0, .L58+40
 915              	.LBB468:
 916              	.LBB454:
  66:../../DaisyExamples/DaisySP/Source/Control/adenv.h ****     /** Sets the amount of curve applied. A positve value will create a log
 917              		.loc 17 66 71 view .LVU255
 918 008e 86ED029A 		vstr.32	s18, [r6, #8]
 919              	.LVL50:
  66:../../DaisyExamples/DaisySP/Source/Control/adenv.h ****     /** Sets the amount of curve applied. A positve value will create a log
 920              		.loc 17 66 71 view .LVU256
 921              	.LBE454:
 922              	.LBE468:
  91:SynthV4.cpp   ****     ad.SetMax(1);
 923              		.loc 19 91 5 is_stmt 1 view .LVU257
 924              	.LBB469:
 925              	.LBI469:
  66:../../DaisyExamples/DaisySP/Source/Control/adenv.h ****     /** Sets the amount of curve applied. A positve value will create a log
 926              		.loc 17 66 17 view .LVU258
 927              	.LBB470:
  66:../../DaisyExamples/DaisySP/Source/Control/adenv.h ****     /** Sets the amount of curve applied. A positve value will create a log
 928              		.loc 17 66 52 view .LVU259
  66:../../DaisyExamples/DaisySP/Source/Control/adenv.h ****     /** Sets the amount of curve applied. A positve value will create a log
 929              		.loc 17 66 71 is_stmt 0 view .LVU260
 930 0092 C6ED038A 		vstr.32	s17, [r6, #12]
 931              	.LVL51:
ARM GAS  /var/folders/hp/45mn71hd0ps5f5pnytxy5bt00000gn/T//ccy0eSy4.s 			page 43


  66:../../DaisyExamples/DaisySP/Source/Control/adenv.h ****     /** Sets the amount of curve applied. A positve value will create a log
 932              		.loc 17 66 71 view .LVU261
 933              	.LBE470:
 934              	.LBE469:
  92:SynthV4.cpp   ****     ad.SetMin(0);
 935              		.loc 19 92 5 is_stmt 1 view .LVU262
 936              	.LBB471:
 937              	.LBI471:
  78:../../DaisyExamples/DaisySP/Source/Control/adenv.h ****     /** Returns the current output value without processing the next sample */
 938              		.loc 17 78 17 view .LVU263
 939              	.LBB472:
  78:../../DaisyExamples/DaisySP/Source/Control/adenv.h ****     /** Returns the current output value without processing the next sample */
 940              		.loc 17 78 37 view .LVU264
  78:../../DaisyExamples/DaisySP/Source/Control/adenv.h ****     /** Returns the current output value without processing the next sample */
 941              		.loc 17 78 42 is_stmt 0 view .LVU265
 942 0096 C6ED068A 		vstr.32	s17, [r6, #24]
 943              	.LVL52:
  78:../../DaisyExamples/DaisySP/Source/Control/adenv.h ****     /** Returns the current output value without processing the next sample */
 944              		.loc 17 78 42 view .LVU266
 945              	.LBE472:
 946              	.LBE471:
  93:SynthV4.cpp   ****     ad.SetCurve(0.5);
 947              		.loc 19 93 5 is_stmt 1 view .LVU267
 948              	.LBB473:
 949              	.LBI473:
  74:../../DaisyExamples/DaisySP/Source/Control/adenv.h ****     /** Sets the maximum value of the envelope output.
 950              		.loc 17 74 17 view .LVU268
 951              	.LBB474:
  74:../../DaisyExamples/DaisySP/Source/Control/adenv.h ****     /** Sets the maximum value of the envelope output.
 952              		.loc 17 74 37 view .LVU269
  74:../../DaisyExamples/DaisySP/Source/Control/adenv.h ****     /** Sets the maximum value of the envelope output.
 953              		.loc 17 74 42 is_stmt 0 view .LVU270
 954 009a C6F81480 		str	r8, [r6, #20]	@ float
 955              	.LVL53:
  74:../../DaisyExamples/DaisySP/Source/Control/adenv.h ****     /** Sets the maximum value of the envelope output.
 956              		.loc 17 74 42 view .LVU271
 957              	.LBE474:
 958              	.LBE473:
  94:SynthV4.cpp   **** 
 959              		.loc 19 94 5 is_stmt 1 view .LVU272
 960              	.LBB475:
 961              	.LBI475:
  70:../../DaisyExamples/DaisySP/Source/Control/adenv.h ****     /** Sets the minimum value of the envelope output.
 962              		.loc 17 70 17 view .LVU273
 963              	.LBB476:
  70:../../DaisyExamples/DaisySP/Source/Control/adenv.h ****     /** Sets the minimum value of the envelope output.
 964              		.loc 17 70 42 view .LVU274
  70:../../DaisyExamples/DaisySP/Source/Control/adenv.h ****     /** Sets the minimum value of the envelope output.
 965              		.loc 17 70 56 is_stmt 0 view .LVU275
 966 009e 3762     		str	r7, [r6, #32]	@ float
 967              	.LVL54:
  70:../../DaisyExamples/DaisySP/Source/Control/adenv.h ****     /** Sets the minimum value of the envelope output.
 968              		.loc 17 70 56 view .LVU276
 969              	.LBE476:
 970              	.LBE475:
 971              		.loc 19 96 5 is_stmt 1 view .LVU277
 972              		.loc 19 96 21 is_stmt 0 view .LVU278
ARM GAS  /var/folders/hp/45mn71hd0ps5f5pnytxy5bt00000gn/T//ccy0eSy4.s 			page 44


 973 00a0 0FCD     		ldmia	r5!, {r0, r1, r2, r3}
 974 00a2 0FC4     		stmia	r4!, {r0, r1, r2, r3}
 975 00a4 95E80F00 		ldm	r5, {r0, r1, r2, r3}
 976 00a8 84E80F00 		stm	r4, {r0, r1, r2, r3}
 977              		.loc 19 96 16 view .LVU279
 978 00ac 0222     		movs	r2, #2
 979 00ae 6946     		mov	r1, sp
 980 00b0 1B48     		ldr	r0, .L58+44
 981 00b2 FFF7FEFF 		bl	_ZN5daisy9Parameter4InitENS_13AnalogControlEffNS0_5CurveE
 982              	.LVL55:
 983              	.LBB477:
 984              	.LBI477:
 985              		.loc 2 23 5 is_stmt 1 view .LVU280
 986              		.loc 2 23 5 is_stmt 0 view .LVU281
 987              	.LBE477:
  97:SynthV4.cpp   ****     p_release.Init(pod.knob2, 0.01f, 0.7f, Parameter::LINEAR);
 988              		.loc 19 97 5 is_stmt 1 view .LVU282
 989              		.loc 19 97 24 is_stmt 0 view .LVU283
 990 00b6 05F1100C 		add	ip, r5, #16
 991 00ba EE46     		mov	lr, sp
 992              		.loc 19 97 19 view .LVU284
 993 00bc B0EE490A 		vmov.f32	s0, s18
 994 00c0 DFED180A 		vldr.32	s1, .L58+48
 995              		.loc 19 97 24 view .LVU285
 996 00c4 BCE80F00 		ldmia	ip!, {r0, r1, r2, r3}
 997 00c8 AEE80F00 		stmia	lr!, {r0, r1, r2, r3}
 998 00cc 9CE80F00 		ldm	ip, {r0, r1, r2, r3}
 999 00d0 84E80F00 		stm	r4, {r0, r1, r2, r3}
 1000              		.loc 19 97 19 view .LVU286
 1001 00d4 6946     		mov	r1, sp
 1002 00d6 0022     		movs	r2, #0
 1003 00d8 1348     		ldr	r0, .L58+52
 1004 00da FFF7FEFF 		bl	_ZN5daisy9Parameter4InitENS_13AnalogControlEffNS0_5CurveE
 1005              	.LVL56:
 1006              	.LBB478:
 1007              	.LBI478:
 1008              		.loc 2 23 5 is_stmt 1 view .LVU287
 1009              		.loc 2 23 5 is_stmt 0 view .LVU288
 1010              	.LBE478:
  98:SynthV4.cpp   **** 
  99:SynthV4.cpp   ****     pod.StartAdc();
 1011              		.loc 19 99 5 is_stmt 1 view .LVU289
 1012              		.loc 19 99 17 is_stmt 0 view .LVU290
 1013 00de A5F17800 		sub	r0, r5, #120
 1014 00e2 FFF7FEFF 		bl	_ZN5daisy8DaisyPod8StartAdcEv
 1015              	.LVL57:
 100:SynthV4.cpp   ****     pod.StartAudio(AudioCallback);
 1016              		.loc 19 100 5 is_stmt 1 view .LVU291
 1017              		.loc 19 100 19 is_stmt 0 view .LVU292
 1018 00e6 1149     		ldr	r1, .L58+56
 1019 00e8 A5F17800 		sub	r0, r5, #120
 1020 00ec FFF7FEFF 		bl	_ZN5daisy8DaisyPod10StartAudioEPFvPKfPfjE
 1021              	.LVL58:
 1022              	.L56:
 101:SynthV4.cpp   **** 
 102:SynthV4.cpp   ****     while (1) {}
 1023              		.loc 19 102 5 is_stmt 1 discriminator 1 view .LVU293
ARM GAS  /var/folders/hp/45mn71hd0ps5f5pnytxy5bt00000gn/T//ccy0eSy4.s 			page 45


 1024              		.loc 19 102 5 discriminator 1 view .LVU294
 1025              		.loc 19 102 5 discriminator 1 view .LVU295
 1026              		.loc 19 102 5 discriminator 1 view .LVU296
 1027 00f0 FEE7     		b	.L56
 1028              	.L59:
 1029 00f2 00BF     		.align	2
 1030              	.L58:
 1031 00f4 00000000 		.word	_ZL3pod
 1032 00f8 00000000 		.word	.LANCHOR8
 1033 00fc 00000000 		.word	.LANCHOR1
 1034 0100 00000000 		.word	.LANCHOR6
 1035 0104 0000C842 		.word	1120403456
 1036 0108 00000000 		.word	.LANCHOR7
 1037 010c 0AD7233C 		.word	1008981770
 1038 0110 CDCCCC3D 		.word	1036831949
 1039 0114 68000000 		.word	_ZL3pod+104
 1040 0118 00409C45 		.word	1167867904
 1041 011c 00004842 		.word	1112014848
 1042 0120 00000000 		.word	.LANCHOR2
 1043 0124 3333333F 		.word	1060320051
 1044 0128 00000000 		.word	.LANCHOR4
 1045 012c 00000000 		.word	_ZL13AudioCallbackPKfPfj
 1046              		.cfi_endproc
 1047              	.LFE4855:
 1049              		.section	.text.startup._GLOBAL__sub_I_color,"ax",%progbits
 1050              		.align	1
 1051              		.p2align 2,,3
 1052              		.syntax unified
 1053              		.thumb
 1054              		.thumb_func
 1056              	_GLOBAL__sub_I_color:
 1057              	.LFB5439:
 103:SynthV4.cpp   **** }
 1058              		.loc 19 103 1 view -0
 1059              		.cfi_startproc
 1060              		@ args = 0, pretend = 0, frame = 0
 1061              		@ frame_needed = 0, uses_anonymous_args = 0
 1062              	.LBB563:
 1063              	.LBI563:
 1064              		.loc 19 103 1 view .LVU298
 1065              	.LVL59:
 1066              	.LBB564:
 1067              	.LBB565:
 1068              	.LBI565:
  35:../../DaisyExamples/libDaisy/src/daisy_pod.h ****     ~DaisyPod() {}
 1069              		.loc 4 35 5 view .LVU299
 1070              	.LBB566:
 1071              	.LBB567:
 1072              	.LBI567:
  21:../../DaisyExamples/libDaisy/src/daisy_seed.h ****     ~DaisySeed() {}
 1073              		.loc 12 21 5 view .LVU300
 1074              	.LBB568:
 1075              	.LBB569:
 1076              	.LBI569:
 1077              		.file 20 "../../DaisyExamples/libDaisy/src/per/qspi.h"
   1:../../DaisyExamples/libDaisy/src/per/qspi.h **** #ifndef DSY_QSPI
   2:../../DaisyExamples/libDaisy/src/per/qspi.h **** #define DSY_QSPI /**< Macro */
ARM GAS  /var/folders/hp/45mn71hd0ps5f5pnytxy5bt00000gn/T//ccy0eSy4.s 			page 46


   3:../../DaisyExamples/libDaisy/src/per/qspi.h **** 
   4:../../DaisyExamples/libDaisy/src/per/qspi.h **** #ifndef UNIT_TEST // for unit tests, a dummy implementation
   5:../../DaisyExamples/libDaisy/src/per/qspi.h **** 
   6:../../DaisyExamples/libDaisy/src/per/qspi.h **** #include <cstdint>
   7:../../DaisyExamples/libDaisy/src/per/qspi.h **** #include "daisy_core.h" // Added for dsy_gpio_pin typedef
   8:../../DaisyExamples/libDaisy/src/per/qspi.h **** 
   9:../../DaisyExamples/libDaisy/src/per/qspi.h **** #define DSY_QSPI_TEXT       \
  10:../../DaisyExamples/libDaisy/src/per/qspi.h ****     __attribute__((section( \
  11:../../DaisyExamples/libDaisy/src/per/qspi.h ****         ".qspiflash_text"))) /**< used for reading memory in memory_mapped mode. */
  12:../../DaisyExamples/libDaisy/src/per/qspi.h **** #define DSY_QSPI_DATA       \
  13:../../DaisyExamples/libDaisy/src/per/qspi.h ****     __attribute__((section( \
  14:../../DaisyExamples/libDaisy/src/per/qspi.h ****         ".qspiflash_data"))) /**< used for reading memory in memory_mapped mode. */
  15:../../DaisyExamples/libDaisy/src/per/qspi.h **** #define DSY_QSPI_BSS        \
  16:../../DaisyExamples/libDaisy/src/per/qspi.h ****     __attribute__((section( \
  17:../../DaisyExamples/libDaisy/src/per/qspi.h ****         ".qspiflash_bss"))) /**< used for reading memory in memory_mapped mode. */
  18:../../DaisyExamples/libDaisy/src/per/qspi.h **** 
  19:../../DaisyExamples/libDaisy/src/per/qspi.h **** namespace daisy
  20:../../DaisyExamples/libDaisy/src/per/qspi.h **** {
  21:../../DaisyExamples/libDaisy/src/per/qspi.h **** /** @addtogroup serial
  22:../../DaisyExamples/libDaisy/src/per/qspi.h **** @{
  23:../../DaisyExamples/libDaisy/src/per/qspi.h **** */
  24:../../DaisyExamples/libDaisy/src/per/qspi.h **** 
  25:../../DaisyExamples/libDaisy/src/per/qspi.h **** /** 
  26:../../DaisyExamples/libDaisy/src/per/qspi.h ****  Driver for QSPI peripheral to interface with external flash memory. \n 
  27:../../DaisyExamples/libDaisy/src/per/qspi.h ****     Currently supported QSPI Devices: \n 
  28:../../DaisyExamples/libDaisy/src/per/qspi.h ****     * IS25LP080D
  29:../../DaisyExamples/libDaisy/src/per/qspi.h **** */
  30:../../DaisyExamples/libDaisy/src/per/qspi.h **** class QSPIHandle
  31:../../DaisyExamples/libDaisy/src/per/qspi.h **** {
  32:../../DaisyExamples/libDaisy/src/per/qspi.h ****   public:
  33:../../DaisyExamples/libDaisy/src/per/qspi.h ****     enum Result
  34:../../DaisyExamples/libDaisy/src/per/qspi.h ****     {
  35:../../DaisyExamples/libDaisy/src/per/qspi.h ****         OK = 0,
  36:../../DaisyExamples/libDaisy/src/per/qspi.h ****         ERR
  37:../../DaisyExamples/libDaisy/src/per/qspi.h ****     };
  38:../../DaisyExamples/libDaisy/src/per/qspi.h **** 
  39:../../DaisyExamples/libDaisy/src/per/qspi.h ****     /** Indicates the current status of the module. 
  40:../../DaisyExamples/libDaisy/src/per/qspi.h ****          *  Warnings are indicated by a leading W.
  41:../../DaisyExamples/libDaisy/src/per/qspi.h ****          *  Errors are indicated by a leading E and cause an immediate exit.
  42:../../DaisyExamples/libDaisy/src/per/qspi.h ****          * 
  43:../../DaisyExamples/libDaisy/src/per/qspi.h ****          *  \param GOOD - No errors have been reported.
  44:../../DaisyExamples/libDaisy/src/per/qspi.h ****          *  \param E_HAL_ERROR - HAL code did not return HAL_OK.
  45:../../DaisyExamples/libDaisy/src/per/qspi.h ****          *  \param E_SWITCHING_MODES - An error was encountered while switching QSPI peripheral mod
  46:../../DaisyExamples/libDaisy/src/per/qspi.h ****          *  \param E_INVALID_MODE - QSPI should not be written to while the program is executing fr
  47:../../DaisyExamples/libDaisy/src/per/qspi.h ****          */
  48:../../DaisyExamples/libDaisy/src/per/qspi.h ****     enum Status
  49:../../DaisyExamples/libDaisy/src/per/qspi.h ****     {
  50:../../DaisyExamples/libDaisy/src/per/qspi.h ****         GOOD = 0,
  51:../../DaisyExamples/libDaisy/src/per/qspi.h ****         E_HAL_ERROR,
  52:../../DaisyExamples/libDaisy/src/per/qspi.h ****         E_SWITCHING_MODES,
  53:../../DaisyExamples/libDaisy/src/per/qspi.h ****         E_INVALID_MODE,
  54:../../DaisyExamples/libDaisy/src/per/qspi.h ****     };
  55:../../DaisyExamples/libDaisy/src/per/qspi.h **** 
  56:../../DaisyExamples/libDaisy/src/per/qspi.h ****     /** Configuration structure for interfacing with QSPI Driver */
  57:../../DaisyExamples/libDaisy/src/per/qspi.h ****     struct Config
  58:../../DaisyExamples/libDaisy/src/per/qspi.h ****     {
  59:../../DaisyExamples/libDaisy/src/per/qspi.h ****         /** Flash Devices supported. (Both of these are more-or-less the same, just different sizes
ARM GAS  /var/folders/hp/45mn71hd0ps5f5pnytxy5bt00000gn/T//ccy0eSy4.s 			page 47


  60:../../DaisyExamples/libDaisy/src/per/qspi.h ****         enum Device
  61:../../DaisyExamples/libDaisy/src/per/qspi.h ****         {
  62:../../DaisyExamples/libDaisy/src/per/qspi.h ****             IS25LP080D,  /**< & */
  63:../../DaisyExamples/libDaisy/src/per/qspi.h ****             IS25LP064A,  /**< & */
  64:../../DaisyExamples/libDaisy/src/per/qspi.h ****             DEVICE_LAST, /**< & */
  65:../../DaisyExamples/libDaisy/src/per/qspi.h ****         };
  66:../../DaisyExamples/libDaisy/src/per/qspi.h **** 
  67:../../DaisyExamples/libDaisy/src/per/qspi.h ****         /** 
  68:../../DaisyExamples/libDaisy/src/per/qspi.h ****         Modes of operation.
  69:../../DaisyExamples/libDaisy/src/per/qspi.h ****         Memory Mapped mode: QSPI configured so that the QSPI can be
  70:../../DaisyExamples/libDaisy/src/per/qspi.h ****         read from starting address 0x90000000. Writing is not
  71:../../DaisyExamples/libDaisy/src/per/qspi.h ****         possible in this mode. \n 
  72:../../DaisyExamples/libDaisy/src/per/qspi.h ****         Indirect Polling mode: Device driver enabled. 
  73:../../DaisyExamples/libDaisy/src/per/qspi.h ****         */
  74:../../DaisyExamples/libDaisy/src/per/qspi.h ****         enum Mode
  75:../../DaisyExamples/libDaisy/src/per/qspi.h ****         {
  76:../../DaisyExamples/libDaisy/src/per/qspi.h ****             MEMORY_MAPPED,    /**< & */
  77:../../DaisyExamples/libDaisy/src/per/qspi.h ****             INDIRECT_POLLING, /**< & */
  78:../../DaisyExamples/libDaisy/src/per/qspi.h ****             MODE_LAST,
  79:../../DaisyExamples/libDaisy/src/per/qspi.h ****         };
  80:../../DaisyExamples/libDaisy/src/per/qspi.h **** 
  81:../../DaisyExamples/libDaisy/src/per/qspi.h ****         //SCK,  CE# (active low)
  82:../../DaisyExamples/libDaisy/src/per/qspi.h ****         struct
  83:../../DaisyExamples/libDaisy/src/per/qspi.h ****         {
  84:../../DaisyExamples/libDaisy/src/per/qspi.h ****             dsy_gpio_pin io0; /**< & */
  85:../../DaisyExamples/libDaisy/src/per/qspi.h ****             dsy_gpio_pin io1; /**< & */
  86:../../DaisyExamples/libDaisy/src/per/qspi.h ****             dsy_gpio_pin io2; /**< & */
  87:../../DaisyExamples/libDaisy/src/per/qspi.h ****             dsy_gpio_pin io3; /**< & */
  88:../../DaisyExamples/libDaisy/src/per/qspi.h ****             dsy_gpio_pin clk; /**< & */
  89:../../DaisyExamples/libDaisy/src/per/qspi.h ****             dsy_gpio_pin ncs; /**< & */
  90:../../DaisyExamples/libDaisy/src/per/qspi.h ****         } pin_config;
  91:../../DaisyExamples/libDaisy/src/per/qspi.h **** 
  92:../../DaisyExamples/libDaisy/src/per/qspi.h ****         Device device;
  93:../../DaisyExamples/libDaisy/src/per/qspi.h ****         Mode   mode;
  94:../../DaisyExamples/libDaisy/src/per/qspi.h ****     };
  95:../../DaisyExamples/libDaisy/src/per/qspi.h **** 
  96:../../DaisyExamples/libDaisy/src/per/qspi.h ****     /** 
  97:../../DaisyExamples/libDaisy/src/per/qspi.h ****         Initializes QSPI peripheral, and Resets, and prepares memory for access.
  98:../../DaisyExamples/libDaisy/src/per/qspi.h ****         \param config should be populated with the mode, device and pin_config before calling this 
  99:../../DaisyExamples/libDaisy/src/per/qspi.h ****         \return Result::OK or Result::ERR
 100:../../DaisyExamples/libDaisy/src/per/qspi.h ****         */
 101:../../DaisyExamples/libDaisy/src/per/qspi.h ****     Result Init(const Config& config);
 102:../../DaisyExamples/libDaisy/src/per/qspi.h **** 
 103:../../DaisyExamples/libDaisy/src/per/qspi.h ****     /** Returns the current config. */
 104:../../DaisyExamples/libDaisy/src/per/qspi.h ****     const Config& GetConfig() const;
 105:../../DaisyExamples/libDaisy/src/per/qspi.h **** 
 106:../../DaisyExamples/libDaisy/src/per/qspi.h ****     // Couldn't this just be called before anything else in init? That
 107:../../DaisyExamples/libDaisy/src/per/qspi.h ****     // would make manually calling it unnecessary.
 108:../../DaisyExamples/libDaisy/src/per/qspi.h ****     /** 
 109:../../DaisyExamples/libDaisy/src/per/qspi.h ****         Deinitializes the peripheral
 110:../../DaisyExamples/libDaisy/src/per/qspi.h ****         This should be called before reinitializing QSPI in a different mode.
 111:../../DaisyExamples/libDaisy/src/per/qspi.h ****         \return Result::OK or Result::ERR
 112:../../DaisyExamples/libDaisy/src/per/qspi.h ****         */
 113:../../DaisyExamples/libDaisy/src/per/qspi.h ****     Result DeInit();
 114:../../DaisyExamples/libDaisy/src/per/qspi.h **** 
 115:../../DaisyExamples/libDaisy/src/per/qspi.h ****     /** 
 116:../../DaisyExamples/libDaisy/src/per/qspi.h ****         Writes a single page to to the specified address on the QSPI chip.
ARM GAS  /var/folders/hp/45mn71hd0ps5f5pnytxy5bt00000gn/T//ccy0eSy4.s 			page 48


 117:../../DaisyExamples/libDaisy/src/per/qspi.h ****         For IS25LP*, page size is 256 bytes.
 118:../../DaisyExamples/libDaisy/src/per/qspi.h ****         \param address Address to write to
 119:../../DaisyExamples/libDaisy/src/per/qspi.h ****         \param size Buffer size
 120:../../DaisyExamples/libDaisy/src/per/qspi.h ****         \param buffer Buffer to write
 121:../../DaisyExamples/libDaisy/src/per/qspi.h ****         \return Result::OK or Result::ERR
 122:../../DaisyExamples/libDaisy/src/per/qspi.h ****         */
 123:../../DaisyExamples/libDaisy/src/per/qspi.h ****     Result WritePage(uint32_t address, uint32_t size, uint8_t* buffer);
 124:../../DaisyExamples/libDaisy/src/per/qspi.h **** 
 125:../../DaisyExamples/libDaisy/src/per/qspi.h ****     /** 
 126:../../DaisyExamples/libDaisy/src/per/qspi.h ****         Writes data in buffer to to the QSPI. Starting at address to address+size 
 127:../../DaisyExamples/libDaisy/src/per/qspi.h ****         \param address Address to write to
 128:../../DaisyExamples/libDaisy/src/per/qspi.h ****         \param size Buffer size
 129:../../DaisyExamples/libDaisy/src/per/qspi.h ****         \param buffer Buffer to write
 130:../../DaisyExamples/libDaisy/src/per/qspi.h ****         \return Result::OK or Result::ERR
 131:../../DaisyExamples/libDaisy/src/per/qspi.h ****         */
 132:../../DaisyExamples/libDaisy/src/per/qspi.h ****     Result Write(uint32_t address, uint32_t size, uint8_t* buffer);
 133:../../DaisyExamples/libDaisy/src/per/qspi.h **** 
 134:../../DaisyExamples/libDaisy/src/per/qspi.h ****     /** 
 135:../../DaisyExamples/libDaisy/src/per/qspi.h ****         Erases the area specified on the chip.
 136:../../DaisyExamples/libDaisy/src/per/qspi.h ****         Erasures will happen by 4K, 32K or 64K increments.
 137:../../DaisyExamples/libDaisy/src/per/qspi.h ****         Smallest erase possible is 4kB at a time. (on IS25LP*)
 138:../../DaisyExamples/libDaisy/src/per/qspi.h ****         \param start_addr Address to begin erasing from
 139:../../DaisyExamples/libDaisy/src/per/qspi.h ****         \param end_addr  Address to stop erasing at
 140:../../DaisyExamples/libDaisy/src/per/qspi.h ****         \return Result::OK or Result::ERR
 141:../../DaisyExamples/libDaisy/src/per/qspi.h ****         */
 142:../../DaisyExamples/libDaisy/src/per/qspi.h ****     Result Erase(uint32_t start_addr, uint32_t end_addr);
 143:../../DaisyExamples/libDaisy/src/per/qspi.h **** 
 144:../../DaisyExamples/libDaisy/src/per/qspi.h ****     /**  
 145:../../DaisyExamples/libDaisy/src/per/qspi.h ****          Erases a single sector of the chip.  
 146:../../DaisyExamples/libDaisy/src/per/qspi.h ****         TODO: Document the size of this function. 
 147:../../DaisyExamples/libDaisy/src/per/qspi.h ****         \param address Address of sector to erase
 148:../../DaisyExamples/libDaisy/src/per/qspi.h ****         \return Result::OK or Result::ERR
 149:../../DaisyExamples/libDaisy/src/per/qspi.h ****         */
 150:../../DaisyExamples/libDaisy/src/per/qspi.h ****     Result EraseSector(uint32_t address);
 151:../../DaisyExamples/libDaisy/src/per/qspi.h **** 
 152:../../DaisyExamples/libDaisy/src/per/qspi.h ****     /** Returns the current class status. Useful for debugging.
 153:../../DaisyExamples/libDaisy/src/per/qspi.h ****      *  \returns Status
 154:../../DaisyExamples/libDaisy/src/per/qspi.h ****      */
 155:../../DaisyExamples/libDaisy/src/per/qspi.h ****     Status GetStatus();
 156:../../DaisyExamples/libDaisy/src/per/qspi.h **** 
 157:../../DaisyExamples/libDaisy/src/per/qspi.h ****     /** Returns a pointer to the actual memory used 
 158:../../DaisyExamples/libDaisy/src/per/qspi.h ****      *  The memory at this address is read-only
 159:../../DaisyExamples/libDaisy/src/per/qspi.h ****      *  to write to it use the Write function.
 160:../../DaisyExamples/libDaisy/src/per/qspi.h ****      * 
 161:../../DaisyExamples/libDaisy/src/per/qspi.h ****      *  \param offset returns the pointer starting this 
 162:../../DaisyExamples/libDaisy/src/per/qspi.h ****      *                many bytes into the memory
 163:../../DaisyExamples/libDaisy/src/per/qspi.h ****     */
 164:../../DaisyExamples/libDaisy/src/per/qspi.h ****     void* GetData(uint32_t offset = 0);
 165:../../DaisyExamples/libDaisy/src/per/qspi.h **** 
 166:../../DaisyExamples/libDaisy/src/per/qspi.h ****     QSPIHandle() : pimpl_(nullptr) {}
 1078              		.loc 20 166 5 view .LVU301
 1079              	.LBE569:
 1080              	.LBE568:
 1081              	.LBE567:
 1082              	.LBE566:
 1083              	.LBE565:
 1084              	.LBE564:
ARM GAS  /var/folders/hp/45mn71hd0ps5f5pnytxy5bt00000gn/T//ccy0eSy4.s 			page 49


 1085              	.LBE563:
 1086              		.loc 19 103 1 is_stmt 0 view .LVU302
 1087 0000 70B5     		push	{r4, r5, r6, lr}
 1088              		.cfi_def_cfa_offset 16
 1089              		.cfi_offset 4, -16
 1090              		.cfi_offset 5, -12
 1091              		.cfi_offset 6, -8
 1092              		.cfi_offset 14, -4
 1093              	.LBB677:
 1094              	.LBB675:
 1095              	.LBB662:
 1096              	.LBB658:
 1097              	.LBB592:
 1098              	.LBB589:
 1099              	.LBB574:
 1100              	.LBB570:
 1101              	.LBB571:
 1102              		.loc 20 166 34 view .LVU303
 1103 0002 1F4C     		ldr	r4, .L62
 1104 0004 0025     		movs	r5, #0
 1105              	.LBE571:
 1106              	.LBE570:
 1107              	.LBE574:
 1108              	.LBE589:
 1109              	.LBE592:
 1110              	.LBE658:
 1111              	.LBE662:
   8:SynthV4.cpp   **** static Oscillator osc;
 1112              		.loc 19 8 17 view .LVU304
 1113 0006 1F4E     		ldr	r6, .L62+4
 1114              	.LBB663:
 1115              	.LBB659:
 1116              	.LBB593:
 1117              	.LBB590:
 1118              	.LBB575:
 1119              	.LBB573:
 1120              	.LBB572:
 1121              		.loc 20 166 34 view .LVU305
 1122 0008 2560     		str	r5, [r4]
 1123              	.LVL60:
 1124              		.loc 20 166 34 view .LVU306
 1125              	.LBE572:
 1126              	.LBE573:
 1127              	.LBE575:
 1128              	.LBB576:
 1129              	.LBI576:
  95:../../DaisyExamples/libDaisy/src/hid/audio.h ****     ~AudioHandle() {}
 1130              		.loc 16 95 5 is_stmt 1 view .LVU307
 1131              	.LBE576:
 1132              	.LBE590:
 1133              	.LBE593:
 1134              	.LBB594:
 1135              	.LBB595:
 1136              	.LBB596:
 1137              	.LBB597:
 157:../../DaisyExamples/libDaisy/src/hid/midi.h **** 
 158:../../DaisyExamples/libDaisy/src/hid/midi.h ****     struct Config
ARM GAS  /var/folders/hp/45mn71hd0ps5f5pnytxy5bt00000gn/T//ccy0eSy4.s 			page 50


 1138              		.loc 5 158 12 is_stmt 0 view .LVU308
 1139 000a 04F5C070 		add	r0, r4, #384
 1140              	.LBE597:
 1141              	.LBE596:
 1142              	.LBE595:
 1143              	.LBE594:
 1144              	.LBB637:
 1145              	.LBB591:
 1146              	.LBB579:
 1147              	.LBB577:
 1148              	.LBB578:
  95:../../DaisyExamples/libDaisy/src/hid/audio.h ****     ~AudioHandle() {}
 1149              		.loc 16 95 35 view .LVU309
 1150 000e 6561     		str	r5, [r4, #20]
 1151              	.LVL61:
  95:../../DaisyExamples/libDaisy/src/hid/audio.h ****     ~AudioHandle() {}
 1152              		.loc 16 95 35 view .LVU310
 1153              	.LBE578:
 1154              	.LBE577:
 1155              	.LBE579:
 1156              	.LBB580:
 1157              	.LBI580:
 109:../../DaisyExamples/libDaisy/src/per/adc.h ****     ~AdcHandle() {}
 1158              		.loc 15 109 5 is_stmt 1 view .LVU311
 109:../../DaisyExamples/libDaisy/src/per/adc.h ****     ~AdcHandle() {}
 1159              		.loc 15 109 5 is_stmt 0 view .LVU312
 1160              	.LBE580:
 1161              	.LBB581:
 1162              	.LBI581:
 1163              		.file 21 "../../DaisyExamples/libDaisy/src/per/dac.h"
   1:../../DaisyExamples/libDaisy/src/per/dac.h **** #pragma once
   2:../../DaisyExamples/libDaisy/src/per/dac.h **** #ifndef DSY_DAC_H
   3:../../DaisyExamples/libDaisy/src/per/dac.h **** #define DSY_DAC_H
   4:../../DaisyExamples/libDaisy/src/per/dac.h **** 
   5:../../DaisyExamples/libDaisy/src/per/dac.h **** #include "daisy_core.h"
   6:../../DaisyExamples/libDaisy/src/per/dac.h **** 
   7:../../DaisyExamples/libDaisy/src/per/dac.h **** namespace daisy
   8:../../DaisyExamples/libDaisy/src/per/dac.h **** {
   9:../../DaisyExamples/libDaisy/src/per/dac.h **** /** @brief DAC handle for Built-in DAC Peripheral 
  10:../../DaisyExamples/libDaisy/src/per/dac.h ****  *  @ingroup per_analog
  11:../../DaisyExamples/libDaisy/src/per/dac.h ****  ** 
  12:../../DaisyExamples/libDaisy/src/per/dac.h ****  ** For now only Normal Mode is supported,
  13:../../DaisyExamples/libDaisy/src/per/dac.h ****  ** Sample and hold mode provides reduced power consumption, but requires a bit more setup.
  14:../../DaisyExamples/libDaisy/src/per/dac.h ****  **
  15:../../DaisyExamples/libDaisy/src/per/dac.h ****  ** For now connecting the DAC through other internal peripherals is also not supported.
  16:../../DaisyExamples/libDaisy/src/per/dac.h ****  **
  17:../../DaisyExamples/libDaisy/src/per/dac.h ****  ** Since the DAC channels have dedicated pins we don't need to pass in a pin config like with
  18:../../DaisyExamples/libDaisy/src/per/dac.h ****  ** other modules. However, it is still important to not try to use the DAC pins for anything else.
  19:../../DaisyExamples/libDaisy/src/per/dac.h ****  ** DAC Channel 1 is on PA4, and DAC Channel 2 is on PA5
  20:../../DaisyExamples/libDaisy/src/per/dac.h ****  ***/
  21:../../DaisyExamples/libDaisy/src/per/dac.h **** class DacHandle
  22:../../DaisyExamples/libDaisy/src/per/dac.h **** {
  23:../../DaisyExamples/libDaisy/src/per/dac.h ****   public:
  24:../../DaisyExamples/libDaisy/src/per/dac.h ****     /** Return Values for the DacHandle class */
  25:../../DaisyExamples/libDaisy/src/per/dac.h ****     enum class Result
  26:../../DaisyExamples/libDaisy/src/per/dac.h ****     {
  27:../../DaisyExamples/libDaisy/src/per/dac.h ****         OK,
ARM GAS  /var/folders/hp/45mn71hd0ps5f5pnytxy5bt00000gn/T//ccy0eSy4.s 			page 51


  28:../../DaisyExamples/libDaisy/src/per/dac.h ****         ERR,
  29:../../DaisyExamples/libDaisy/src/per/dac.h ****     };
  30:../../DaisyExamples/libDaisy/src/per/dac.h **** 
  31:../../DaisyExamples/libDaisy/src/per/dac.h ****     /** Selects which channel(s) will be configured for use. */
  32:../../DaisyExamples/libDaisy/src/per/dac.h ****     enum class Channel
  33:../../DaisyExamples/libDaisy/src/per/dac.h ****     {
  34:../../DaisyExamples/libDaisy/src/per/dac.h ****         ONE,
  35:../../DaisyExamples/libDaisy/src/per/dac.h ****         TWO,
  36:../../DaisyExamples/libDaisy/src/per/dac.h ****         BOTH,
  37:../../DaisyExamples/libDaisy/src/per/dac.h ****     };
  38:../../DaisyExamples/libDaisy/src/per/dac.h **** 
  39:../../DaisyExamples/libDaisy/src/per/dac.h ****     /** Sets the Mode for the DAC channels.
  40:../../DaisyExamples/libDaisy/src/per/dac.h ****      **
  41:../../DaisyExamples/libDaisy/src/per/dac.h ****      ** Polling mode uses the blocking mode to transmit a single value at a time.
  42:../../DaisyExamples/libDaisy/src/per/dac.h ****      **
  43:../../DaisyExamples/libDaisy/src/per/dac.h ****      ** DMA mode uses a buffer, and periodically transmits it triggering a 
  44:../../DaisyExamples/libDaisy/src/per/dac.h ****      ** callback to fill the buffer when it is ready for more samples.
  45:../../DaisyExamples/libDaisy/src/per/dac.h ****      ***/
  46:../../DaisyExamples/libDaisy/src/per/dac.h ****     enum class Mode
  47:../../DaisyExamples/libDaisy/src/per/dac.h ****     {
  48:../../DaisyExamples/libDaisy/src/per/dac.h ****         POLLING,
  49:../../DaisyExamples/libDaisy/src/per/dac.h ****         DMA,
  50:../../DaisyExamples/libDaisy/src/per/dac.h ****     };
  51:../../DaisyExamples/libDaisy/src/per/dac.h **** 
  52:../../DaisyExamples/libDaisy/src/per/dac.h ****     /** Sets the number of bits per sample transmitted out of the DAC.
  53:../../DaisyExamples/libDaisy/src/per/dac.h ****      ** The output range will be: 0V - VDDA
  54:../../DaisyExamples/libDaisy/src/per/dac.h ****      ** The resolution will be roughly: bitdepth / (VDDA - 0V) 
  55:../../DaisyExamples/libDaisy/src/per/dac.h ****      ***/
  56:../../DaisyExamples/libDaisy/src/per/dac.h ****     enum class BitDepth
  57:../../DaisyExamples/libDaisy/src/per/dac.h ****     {
  58:../../DaisyExamples/libDaisy/src/per/dac.h ****         BITS_8,
  59:../../DaisyExamples/libDaisy/src/per/dac.h ****         BITS_12
  60:../../DaisyExamples/libDaisy/src/per/dac.h ****     };
  61:../../DaisyExamples/libDaisy/src/per/dac.h **** 
  62:../../DaisyExamples/libDaisy/src/per/dac.h ****     /** Sets whether the DAC output is buffered for higher drive ability. */
  63:../../DaisyExamples/libDaisy/src/per/dac.h ****     enum class BufferState
  64:../../DaisyExamples/libDaisy/src/per/dac.h ****     {
  65:../../DaisyExamples/libDaisy/src/per/dac.h ****         ENABLED,
  66:../../DaisyExamples/libDaisy/src/per/dac.h ****         DISABLED,
  67:../../DaisyExamples/libDaisy/src/per/dac.h ****     };
  68:../../DaisyExamples/libDaisy/src/per/dac.h **** 
  69:../../DaisyExamples/libDaisy/src/per/dac.h ****     /** Configuration structure for initializing the DAC structure. */
  70:../../DaisyExamples/libDaisy/src/per/dac.h ****     struct Config
  71:../../DaisyExamples/libDaisy/src/per/dac.h ****     {
  72:../../DaisyExamples/libDaisy/src/per/dac.h ****         /** Target Samplerate in Hz used to configure the internal 
  73:../../DaisyExamples/libDaisy/src/per/dac.h ****          ** timebase for DMA mode. Does nothing in POLLING mode.
  74:../../DaisyExamples/libDaisy/src/per/dac.h ****          ** If the value is 0 at Init time this will default to 48000Hz 
  75:../../DaisyExamples/libDaisy/src/per/dac.h ****          ** otherwise the driver will attempt meet the target.*/
  76:../../DaisyExamples/libDaisy/src/per/dac.h ****         uint32_t target_samplerate;
  77:../../DaisyExamples/libDaisy/src/per/dac.h **** 
  78:../../DaisyExamples/libDaisy/src/per/dac.h ****         Channel     chn;
  79:../../DaisyExamples/libDaisy/src/per/dac.h ****         Mode        mode;
  80:../../DaisyExamples/libDaisy/src/per/dac.h ****         BitDepth    bitdepth;
  81:../../DaisyExamples/libDaisy/src/per/dac.h ****         BufferState buff_state;
  82:../../DaisyExamples/libDaisy/src/per/dac.h ****     };
  83:../../DaisyExamples/libDaisy/src/per/dac.h **** 
  84:../../DaisyExamples/libDaisy/src/per/dac.h ****     DacHandle() : pimpl_(nullptr) {}
ARM GAS  /var/folders/hp/45mn71hd0ps5f5pnytxy5bt00000gn/T//ccy0eSy4.s 			page 52


 1164              		.loc 21 84 5 is_stmt 1 view .LVU313
 1165              	.LBB582:
 1166              	.LBB583:
 1167              		.loc 21 84 33 is_stmt 0 view .LVU314
 1168 0010 2562     		str	r5, [r4, #32]
 1169              	.LVL62:
 1170              		.loc 21 84 33 view .LVU315
 1171              	.LBE583:
 1172              	.LBE582:
 1173              	.LBE581:
 1174              	.LBB584:
 1175              	.LBI584:
  40:../../DaisyExamples/libDaisy/src/hid/usb.h **** 
 1176              		.loc 14 40 5 is_stmt 1 view .LVU316
  40:../../DaisyExamples/libDaisy/src/hid/usb.h **** 
 1177              		.loc 14 40 5 is_stmt 0 view .LVU317
 1178              	.LBE584:
 1179              	.LBB585:
 1180              	.LBI585:
  96:../../DaisyExamples/libDaisy/src/sys/system.h ****     ~System() {}
 1181              		.loc 13 96 5 is_stmt 1 view .LVU318
  96:../../DaisyExamples/libDaisy/src/sys/system.h ****     ~System() {}
 1182              		.loc 13 96 5 is_stmt 0 view .LVU319
 1183              	.LBE585:
 1184              	.LBB586:
 1185              	.LBI586:
 1186              		.file 22 "../../DaisyExamples/libDaisy/src/per/sai.h"
   1:../../DaisyExamples/libDaisy/src/per/sai.h **** #pragma once
   2:../../DaisyExamples/libDaisy/src/per/sai.h **** #ifndef DSY_SAI_H
   3:../../DaisyExamples/libDaisy/src/per/sai.h **** #define DSY_SAI_H
   4:../../DaisyExamples/libDaisy/src/per/sai.h **** 
   5:../../DaisyExamples/libDaisy/src/per/sai.h **** #include "daisy_core.h"
   6:../../DaisyExamples/libDaisy/src/per/sai.h **** 
   7:../../DaisyExamples/libDaisy/src/per/sai.h **** namespace daisy
   8:../../DaisyExamples/libDaisy/src/per/sai.h **** {
   9:../../DaisyExamples/libDaisy/src/per/sai.h **** /** 
  10:../../DaisyExamples/libDaisy/src/per/sai.h ****  * Support for I2S Audio Protocol with different bit-depth, samplerate options
  11:../../DaisyExamples/libDaisy/src/per/sai.h ****  * Allows for master or slave, as well as freedom of selecting direction, 
  12:../../DaisyExamples/libDaisy/src/per/sai.h ****  * and other behavior for each peripheral, and block.
  13:../../DaisyExamples/libDaisy/src/per/sai.h ****  * 
  14:../../DaisyExamples/libDaisy/src/per/sai.h ****  * DMA Transfer commands must use buffers located within non-cached memory or use cache maintenance
  15:../../DaisyExamples/libDaisy/src/per/sai.h ****  * To declare an unitialized global element in the DMA memory section:
  16:../../DaisyExamples/libDaisy/src/per/sai.h ****  *    int32_t DSY_DMA_BUFFER_SECTOR my_buffer[96];
  17:../../DaisyExamples/libDaisy/src/per/sai.h ****  *
  18:../../DaisyExamples/libDaisy/src/per/sai.h ****  * Callback functions will be called once per half of the buffer. In the above example, 
  19:../../DaisyExamples/libDaisy/src/per/sai.h ****  * the callback function would be called once for every 48 samples.
  20:../../DaisyExamples/libDaisy/src/per/sai.h ****  * 
  21:../../DaisyExamples/libDaisy/src/per/sai.h ****  * Use SAI Handle like this:
  22:../../DaisyExamples/libDaisy/src/per/sai.h ****  * 
  23:../../DaisyExamples/libDaisy/src/per/sai.h ****  *  SaiHandle::Config sai_config;
  24:../../DaisyExamples/libDaisy/src/per/sai.h ****  *  sai_config.periph          = SaiHandle::Config::Peripheral::SAI_1;
  25:../../DaisyExamples/libDaisy/src/per/sai.h ****  *  sai_config.sr              = SaiHandle::Config::SampleRate::SAI_48KHZ;
  26:../../DaisyExamples/libDaisy/src/per/sai.h ****  *  sai_config.bit_depth       = SaiHandle::Config::BitDepth::SAI_24BIT;
  27:../../DaisyExamples/libDaisy/src/per/sai.h ****  *  sai_config.a_sync          = SaiHandle::Config::Sync::MASTER;
  28:../../DaisyExamples/libDaisy/src/per/sai.h ****  *  sai_config.b_sync          = SaiHandle::Config::Sync::SLAVE;
  29:../../DaisyExamples/libDaisy/src/per/sai.h ****  *  sai_config.a_dir           = SaiHandle::Config::Direction::RECEIVE;
  30:../../DaisyExamples/libDaisy/src/per/sai.h ****  *  sai_config.b_dir           = SaiHandle::Config::Direction::TRANSMIT;
ARM GAS  /var/folders/hp/45mn71hd0ps5f5pnytxy5bt00000gn/T//ccy0eSy4.s 			page 53


  31:../../DaisyExamples/libDaisy/src/per/sai.h ****  *  sai_config.pin_config.fs   = {DSY_GPIOE, 4};
  32:../../DaisyExamples/libDaisy/src/per/sai.h ****  *  sai_config.pin_config.mclk = {DSY_GPIOE, 2};
  33:../../DaisyExamples/libDaisy/src/per/sai.h ****  *  sai_config.pin_config.sck  = {DSY_GPIOE, 5};
  34:../../DaisyExamples/libDaisy/src/per/sai.h ****  *  sai_config.pin_config.sa   = {DSY_GPIOE, 6};
  35:../../DaisyExamples/libDaisy/src/per/sai.h ****  *  sai_config.pin_config.sb   = {DSY_GPIOE, 3};
  36:../../DaisyExamples/libDaisy/src/per/sai.h ****  *  // Then Initialize
  37:../../DaisyExamples/libDaisy/src/per/sai.h ****  *  SaiHandle sai;
  38:../../DaisyExamples/libDaisy/src/per/sai.h ****  *  sai.Init(sai_config);
  39:../../DaisyExamples/libDaisy/src/per/sai.h ****  *  // Now you can use it:
  40:../../DaisyExamples/libDaisy/src/per/sai.h ****  *  sai.StartDma(. . .);
  41:../../DaisyExamples/libDaisy/src/per/sai.h ****  */
  42:../../DaisyExamples/libDaisy/src/per/sai.h **** class SaiHandle
  43:../../DaisyExamples/libDaisy/src/per/sai.h **** {
  44:../../DaisyExamples/libDaisy/src/per/sai.h ****   public:
  45:../../DaisyExamples/libDaisy/src/per/sai.h ****     /** Contains settings for initialising an SAI Interface */
  46:../../DaisyExamples/libDaisy/src/per/sai.h ****     struct Config
  47:../../DaisyExamples/libDaisy/src/per/sai.h ****     {
  48:../../DaisyExamples/libDaisy/src/per/sai.h ****         /** Specifies the internal peripheral to use (mapped to different hardware pins) */
  49:../../DaisyExamples/libDaisy/src/per/sai.h ****         enum class Peripheral
  50:../../DaisyExamples/libDaisy/src/per/sai.h ****         {
  51:../../DaisyExamples/libDaisy/src/per/sai.h ****             SAI_1,
  52:../../DaisyExamples/libDaisy/src/per/sai.h ****             SAI_2,
  53:../../DaisyExamples/libDaisy/src/per/sai.h ****         };
  54:../../DaisyExamples/libDaisy/src/per/sai.h **** 
  55:../../DaisyExamples/libDaisy/src/per/sai.h ****         /** Rate at which samples will be streaming to/from the device. */
  56:../../DaisyExamples/libDaisy/src/per/sai.h ****         enum class SampleRate
  57:../../DaisyExamples/libDaisy/src/per/sai.h ****         {
  58:../../DaisyExamples/libDaisy/src/per/sai.h ****             SAI_8KHZ,
  59:../../DaisyExamples/libDaisy/src/per/sai.h ****             SAI_16KHZ,
  60:../../DaisyExamples/libDaisy/src/per/sai.h ****             SAI_32KHZ,
  61:../../DaisyExamples/libDaisy/src/per/sai.h ****             SAI_48KHZ,
  62:../../DaisyExamples/libDaisy/src/per/sai.h ****             SAI_96KHZ,
  63:../../DaisyExamples/libDaisy/src/per/sai.h ****         };
  64:../../DaisyExamples/libDaisy/src/per/sai.h **** 
  65:../../DaisyExamples/libDaisy/src/per/sai.h ****         /** Bit Depth that the hardware expects to be transferred to/from the device. */
  66:../../DaisyExamples/libDaisy/src/per/sai.h ****         enum class BitDepth
  67:../../DaisyExamples/libDaisy/src/per/sai.h ****         {
  68:../../DaisyExamples/libDaisy/src/per/sai.h ****             SAI_16BIT,
  69:../../DaisyExamples/libDaisy/src/per/sai.h ****             SAI_24BIT,
  70:../../DaisyExamples/libDaisy/src/per/sai.h ****             SAI_32BIT,
  71:../../DaisyExamples/libDaisy/src/per/sai.h ****         };
  72:../../DaisyExamples/libDaisy/src/per/sai.h **** 
  73:../../DaisyExamples/libDaisy/src/per/sai.h ****         /** Specifies whether a particular block is the master or the slave 
  74:../../DaisyExamples/libDaisy/src/per/sai.h ****          ** If both are set to slave, no MCLK signal will be used, and it is
  75:../../DaisyExamples/libDaisy/src/per/sai.h ****          ** expected that the codec will have its own xtal.
  76:../../DaisyExamples/libDaisy/src/per/sai.h ****          */
  77:../../DaisyExamples/libDaisy/src/per/sai.h ****         enum class Sync
  78:../../DaisyExamples/libDaisy/src/per/sai.h ****         {
  79:../../DaisyExamples/libDaisy/src/per/sai.h ****             MASTER,
  80:../../DaisyExamples/libDaisy/src/per/sai.h ****             SLAVE,
  81:../../DaisyExamples/libDaisy/src/per/sai.h ****         };
  82:../../DaisyExamples/libDaisy/src/per/sai.h **** 
  83:../../DaisyExamples/libDaisy/src/per/sai.h ****         /** Specifies the direction for each peripheral block. */
  84:../../DaisyExamples/libDaisy/src/per/sai.h ****         enum class Direction
  85:../../DaisyExamples/libDaisy/src/per/sai.h ****         {
  86:../../DaisyExamples/libDaisy/src/per/sai.h ****             TRANSMIT,
  87:../../DaisyExamples/libDaisy/src/per/sai.h ****             RECEIVE,
ARM GAS  /var/folders/hp/45mn71hd0ps5f5pnytxy5bt00000gn/T//ccy0eSy4.s 			page 54


  88:../../DaisyExamples/libDaisy/src/per/sai.h ****         };
  89:../../DaisyExamples/libDaisy/src/per/sai.h **** 
  90:../../DaisyExamples/libDaisy/src/per/sai.h ****         Peripheral periph;
  91:../../DaisyExamples/libDaisy/src/per/sai.h ****         struct
  92:../../DaisyExamples/libDaisy/src/per/sai.h ****         {
  93:../../DaisyExamples/libDaisy/src/per/sai.h ****             dsy_gpio_pin mclk, fs, sck, sa, sb;
  94:../../DaisyExamples/libDaisy/src/per/sai.h ****         } pin_config;
  95:../../DaisyExamples/libDaisy/src/per/sai.h ****         SampleRate sr;
  96:../../DaisyExamples/libDaisy/src/per/sai.h ****         BitDepth   bit_depth;
  97:../../DaisyExamples/libDaisy/src/per/sai.h ****         Sync       a_sync, b_sync;
  98:../../DaisyExamples/libDaisy/src/per/sai.h ****         Direction  a_dir, b_dir;
  99:../../DaisyExamples/libDaisy/src/per/sai.h ****     };
 100:../../DaisyExamples/libDaisy/src/per/sai.h **** 
 101:../../DaisyExamples/libDaisy/src/per/sai.h ****     /** Return values for SAI functions */
 102:../../DaisyExamples/libDaisy/src/per/sai.h ****     enum class Result
 103:../../DaisyExamples/libDaisy/src/per/sai.h ****     {
 104:../../DaisyExamples/libDaisy/src/per/sai.h ****         OK,
 105:../../DaisyExamples/libDaisy/src/per/sai.h ****         ERR,
 106:../../DaisyExamples/libDaisy/src/per/sai.h ****     };
 107:../../DaisyExamples/libDaisy/src/per/sai.h **** 
 108:../../DaisyExamples/libDaisy/src/per/sai.h ****     SaiHandle() : pimpl_(nullptr) {}
 1187              		.loc 22 108 5 is_stmt 1 view .LVU320
 1188              	.LBB587:
 1189              	.LBB588:
 1190              		.loc 22 108 33 is_stmt 0 view .LVU321
 1191 0012 E563     		str	r5, [r4, #60]
 1192              	.LVL63:
 1193              		.loc 22 108 33 view .LVU322
 1194              	.LBE588:
 1195              	.LBE587:
 1196              	.LBE586:
 1197              	.LBE591:
 1198              	.LBE637:
 1199              	.LBB638:
 1200              	.LBI638:
  20:../../DaisyExamples/libDaisy/src/hid/encoder.h ****     ~Encoder() {}
 1201              		.loc 11 20 5 is_stmt 1 view .LVU323
 1202              	.LBB639:
 1203              	.LBB640:
 1204              	.LBI640:
  41:../../DaisyExamples/libDaisy/src/hid/switch.h ****     ~Switch() {}
 1205              		.loc 10 41 5 view .LVU324
  41:../../DaisyExamples/libDaisy/src/hid/switch.h ****     ~Switch() {}
 1206              		.loc 10 41 5 is_stmt 0 view .LVU325
 1207              	.LBE640:
 1208              	.LBE639:
 1209              	.LBE638:
 1210              	.LBB641:
 1211              	.LBI641:
  21:../../DaisyExamples/libDaisy/src/hid/ctrl.h ****     /** destructor */
 1212              		.loc 2 21 5 is_stmt 1 view .LVU326
  21:../../DaisyExamples/libDaisy/src/hid/ctrl.h ****     /** destructor */
 1213              		.loc 2 21 5 is_stmt 0 view .LVU327
 1214              	.LBE641:
 1215              	.LBB642:
 1216              	.LBI642:
  21:../../DaisyExamples/libDaisy/src/hid/ctrl.h ****     /** destructor */
ARM GAS  /var/folders/hp/45mn71hd0ps5f5pnytxy5bt00000gn/T//ccy0eSy4.s 			page 55


 1217              		.loc 2 21 5 is_stmt 1 view .LVU328
  21:../../DaisyExamples/libDaisy/src/hid/ctrl.h ****     /** destructor */
 1218              		.loc 2 21 5 is_stmt 0 view .LVU329
 1219              	.LBE642:
 1220              	.LBB643:
 1221              	.LBI643:
  41:../../DaisyExamples/libDaisy/src/hid/switch.h ****     ~Switch() {}
 1222              		.loc 10 41 5 is_stmt 1 view .LVU330
  41:../../DaisyExamples/libDaisy/src/hid/switch.h ****     ~Switch() {}
 1223              		.loc 10 41 5 is_stmt 0 view .LVU331
 1224              	.LBE643:
 1225              	.LBB644:
 1226              	.LBI644:
  41:../../DaisyExamples/libDaisy/src/hid/switch.h ****     ~Switch() {}
 1227              		.loc 10 41 5 is_stmt 1 view .LVU332
  41:../../DaisyExamples/libDaisy/src/hid/switch.h ****     ~Switch() {}
 1228              		.loc 10 41 5 is_stmt 0 view .LVU333
 1229              	.LBE644:
 1230              	.LBB645:
 1231              	.LBI645:
  17:../../DaisyExamples/libDaisy/src/hid/rgb_led.h ****     ~RgbLed() {}
 1232              		.loc 8 17 5 is_stmt 1 view .LVU334
 1233              	.LBB646:
 1234              	.LBB647:
 1235              	.LBI647:
  24:../../DaisyExamples/libDaisy/src/hid/led.h ****     ~Led() {}
 1236              		.loc 9 24 5 view .LVU335
  24:../../DaisyExamples/libDaisy/src/hid/led.h ****     ~Led() {}
 1237              		.loc 9 24 5 is_stmt 0 view .LVU336
 1238              	.LBE647:
 1239              	.LBB648:
 1240              	.LBI648:
  24:../../DaisyExamples/libDaisy/src/hid/led.h ****     ~Led() {}
 1241              		.loc 9 24 5 is_stmt 1 view .LVU337
  24:../../DaisyExamples/libDaisy/src/hid/led.h ****     ~Led() {}
 1242              		.loc 9 24 5 is_stmt 0 view .LVU338
 1243              	.LBE648:
 1244              	.LBB649:
 1245              	.LBI649:
  24:../../DaisyExamples/libDaisy/src/hid/led.h ****     ~Led() {}
 1246              		.loc 9 24 5 is_stmt 1 view .LVU339
  24:../../DaisyExamples/libDaisy/src/hid/led.h ****     ~Led() {}
 1247              		.loc 9 24 5 is_stmt 0 view .LVU340
 1248              	.LBE649:
 1249              	.LBE646:
 1250              	.LBE645:
 1251              	.LBB650:
 1252              	.LBI650:
  17:../../DaisyExamples/libDaisy/src/hid/rgb_led.h ****     ~RgbLed() {}
 1253              		.loc 8 17 5 is_stmt 1 view .LVU341
 1254              	.LBB651:
 1255              	.LBB652:
 1256              	.LBI652:
  24:../../DaisyExamples/libDaisy/src/hid/led.h ****     ~Led() {}
 1257              		.loc 9 24 5 view .LVU342
  24:../../DaisyExamples/libDaisy/src/hid/led.h ****     ~Led() {}
 1258              		.loc 9 24 5 is_stmt 0 view .LVU343
ARM GAS  /var/folders/hp/45mn71hd0ps5f5pnytxy5bt00000gn/T//ccy0eSy4.s 			page 56


 1259              	.LBE652:
 1260              	.LBB653:
 1261              	.LBI653:
  24:../../DaisyExamples/libDaisy/src/hid/led.h ****     ~Led() {}
 1262              		.loc 9 24 5 is_stmt 1 view .LVU344
  24:../../DaisyExamples/libDaisy/src/hid/led.h ****     ~Led() {}
 1263              		.loc 9 24 5 is_stmt 0 view .LVU345
 1264              	.LBE653:
 1265              	.LBB654:
 1266              	.LBI654:
  24:../../DaisyExamples/libDaisy/src/hid/led.h ****     ~Led() {}
 1267              		.loc 9 24 5 is_stmt 1 view .LVU346
  24:../../DaisyExamples/libDaisy/src/hid/led.h ****     ~Led() {}
 1268              		.loc 9 24 5 is_stmt 0 view .LVU347
 1269              	.LBE654:
 1270              	.LBE651:
 1271              	.LBE650:
 1272              	.LBB655:
 1273              	.LBI594:
 155:../../DaisyExamples/libDaisy/src/hid/midi.h ****     ~MidiHandler() {}
 1274              		.loc 5 155 5 is_stmt 1 view .LVU348
 1275              	.LBB634:
 1276              	.LBB599:
 1277              	.LBI596:
 1278              		.loc 5 158 12 view .LVU349
 1279              	.LBB598:
 1280 0014 FFF7FEFF 		bl	_ZN5daisy17MidiUartTransport6ConfigC1Ev
 1281              	.LVL64:
 1282              		.loc 5 158 12 is_stmt 0 view .LVU350
 1283              	.LBE598:
 1284              	.LBE599:
 1285              	.LBB600:
 1286              	.LBI600:
  31:../../DaisyExamples/libDaisy/src/hid/midi.h ****     ~MidiUartTransport() {}
 1287              		.loc 5 31 5 is_stmt 1 view .LVU351
 1288              	.LBB601:
 1289              	.LBB602:
 1290              	.LBI602:
 1291              		.file 23 "../../DaisyExamples/libDaisy/src/per/uart.h"
   1:../../DaisyExamples/libDaisy/src/per/uart.h **** /* 
   2:../../DaisyExamples/libDaisy/src/per/uart.h **** TODO
   3:../../DaisyExamples/libDaisy/src/per/uart.h **** - Overflow handling, etc. for Rx Queue.
   4:../../DaisyExamples/libDaisy/src/per/uart.h **** */
   5:../../DaisyExamples/libDaisy/src/per/uart.h **** 
   6:../../DaisyExamples/libDaisy/src/per/uart.h **** #pragma once
   7:../../DaisyExamples/libDaisy/src/per/uart.h **** #ifndef DSY_UART_H
   8:../../DaisyExamples/libDaisy/src/per/uart.h **** #define DSY_UART_H /**< macro */
   9:../../DaisyExamples/libDaisy/src/per/uart.h **** #include "daisy_core.h"
  10:../../DaisyExamples/libDaisy/src/per/uart.h **** 
  11:../../DaisyExamples/libDaisy/src/per/uart.h **** 
  12:../../DaisyExamples/libDaisy/src/per/uart.h **** namespace daisy
  13:../../DaisyExamples/libDaisy/src/per/uart.h **** {
  14:../../DaisyExamples/libDaisy/src/per/uart.h **** /** @addtogroup serial
  15:../../DaisyExamples/libDaisy/src/per/uart.h ****     @{
  16:../../DaisyExamples/libDaisy/src/per/uart.h ****     */
  17:../../DaisyExamples/libDaisy/src/per/uart.h **** 
  18:../../DaisyExamples/libDaisy/src/per/uart.h **** /** 
ARM GAS  /var/folders/hp/45mn71hd0ps5f5pnytxy5bt00000gn/T//ccy0eSy4.s 			page 57


  19:../../DaisyExamples/libDaisy/src/per/uart.h ****     Uart Peripheral
  20:../../DaisyExamples/libDaisy/src/per/uart.h ****     @author shensley
  21:../../DaisyExamples/libDaisy/src/per/uart.h ****     @date March 2020
  22:../../DaisyExamples/libDaisy/src/per/uart.h ****     */
  23:../../DaisyExamples/libDaisy/src/per/uart.h **** class UartHandler
  24:../../DaisyExamples/libDaisy/src/per/uart.h **** {
  25:../../DaisyExamples/libDaisy/src/per/uart.h ****   public:
  26:../../DaisyExamples/libDaisy/src/per/uart.h ****     struct Config
  27:../../DaisyExamples/libDaisy/src/per/uart.h ****     {
  28:../../DaisyExamples/libDaisy/src/per/uart.h ****         enum class Peripheral
  29:../../DaisyExamples/libDaisy/src/per/uart.h ****         {
  30:../../DaisyExamples/libDaisy/src/per/uart.h ****             USART_1,
  31:../../DaisyExamples/libDaisy/src/per/uart.h ****             USART_2,
  32:../../DaisyExamples/libDaisy/src/per/uart.h ****             USART_3,
  33:../../DaisyExamples/libDaisy/src/per/uart.h ****             UART_4,
  34:../../DaisyExamples/libDaisy/src/per/uart.h ****             UART_5,
  35:../../DaisyExamples/libDaisy/src/per/uart.h ****             USART_6,
  36:../../DaisyExamples/libDaisy/src/per/uart.h ****             UART_7,
  37:../../DaisyExamples/libDaisy/src/per/uart.h ****             UART_8,
  38:../../DaisyExamples/libDaisy/src/per/uart.h ****             LPUART_1,
  39:../../DaisyExamples/libDaisy/src/per/uart.h ****         };
  40:../../DaisyExamples/libDaisy/src/per/uart.h **** 
  41:../../DaisyExamples/libDaisy/src/per/uart.h ****         enum class StopBits
  42:../../DaisyExamples/libDaisy/src/per/uart.h ****         {
  43:../../DaisyExamples/libDaisy/src/per/uart.h ****             BITS_0_5,
  44:../../DaisyExamples/libDaisy/src/per/uart.h ****             BITS_1,
  45:../../DaisyExamples/libDaisy/src/per/uart.h ****             BITS_1_5,
  46:../../DaisyExamples/libDaisy/src/per/uart.h ****             BITS_2,
  47:../../DaisyExamples/libDaisy/src/per/uart.h ****         };
  48:../../DaisyExamples/libDaisy/src/per/uart.h **** 
  49:../../DaisyExamples/libDaisy/src/per/uart.h ****         enum class Parity
  50:../../DaisyExamples/libDaisy/src/per/uart.h ****         {
  51:../../DaisyExamples/libDaisy/src/per/uart.h ****             NONE,
  52:../../DaisyExamples/libDaisy/src/per/uart.h ****             EVEN,
  53:../../DaisyExamples/libDaisy/src/per/uart.h ****             ODD,
  54:../../DaisyExamples/libDaisy/src/per/uart.h ****         };
  55:../../DaisyExamples/libDaisy/src/per/uart.h **** 
  56:../../DaisyExamples/libDaisy/src/per/uart.h ****         enum class Mode
  57:../../DaisyExamples/libDaisy/src/per/uart.h ****         {
  58:../../DaisyExamples/libDaisy/src/per/uart.h ****             RX,
  59:../../DaisyExamples/libDaisy/src/per/uart.h ****             TX,
  60:../../DaisyExamples/libDaisy/src/per/uart.h ****             TX_RX,
  61:../../DaisyExamples/libDaisy/src/per/uart.h ****         };
  62:../../DaisyExamples/libDaisy/src/per/uart.h **** 
  63:../../DaisyExamples/libDaisy/src/per/uart.h ****         enum class WordLength
  64:../../DaisyExamples/libDaisy/src/per/uart.h ****         {
  65:../../DaisyExamples/libDaisy/src/per/uart.h ****             BITS_7,
  66:../../DaisyExamples/libDaisy/src/per/uart.h ****             BITS_8,
  67:../../DaisyExamples/libDaisy/src/per/uart.h ****             BITS_9,
  68:../../DaisyExamples/libDaisy/src/per/uart.h ****         };
  69:../../DaisyExamples/libDaisy/src/per/uart.h **** 
  70:../../DaisyExamples/libDaisy/src/per/uart.h ****         struct
  71:../../DaisyExamples/libDaisy/src/per/uart.h ****         {
  72:../../DaisyExamples/libDaisy/src/per/uart.h ****             dsy_gpio_pin tx; /**< & */
  73:../../DaisyExamples/libDaisy/src/per/uart.h ****             dsy_gpio_pin rx; /**< & */
  74:../../DaisyExamples/libDaisy/src/per/uart.h ****         } pin_config;        /**< & */
  75:../../DaisyExamples/libDaisy/src/per/uart.h **** 
ARM GAS  /var/folders/hp/45mn71hd0ps5f5pnytxy5bt00000gn/T//ccy0eSy4.s 			page 58


  76:../../DaisyExamples/libDaisy/src/per/uart.h ****         Config()
  77:../../DaisyExamples/libDaisy/src/per/uart.h ****         {
  78:../../DaisyExamples/libDaisy/src/per/uart.h ****             // user must init periph, pin_config, and mode
  79:../../DaisyExamples/libDaisy/src/per/uart.h ****             stopbits   = StopBits::BITS_1;
  80:../../DaisyExamples/libDaisy/src/per/uart.h ****             parity     = Parity::NONE;
  81:../../DaisyExamples/libDaisy/src/per/uart.h ****             wordlength = WordLength::BITS_8;
  82:../../DaisyExamples/libDaisy/src/per/uart.h ****             baudrate   = 31250;
  83:../../DaisyExamples/libDaisy/src/per/uart.h ****         }
  84:../../DaisyExamples/libDaisy/src/per/uart.h **** 
  85:../../DaisyExamples/libDaisy/src/per/uart.h ****         Peripheral periph;
  86:../../DaisyExamples/libDaisy/src/per/uart.h ****         StopBits   stopbits;
  87:../../DaisyExamples/libDaisy/src/per/uart.h ****         Parity     parity;
  88:../../DaisyExamples/libDaisy/src/per/uart.h ****         Mode       mode;
  89:../../DaisyExamples/libDaisy/src/per/uart.h ****         WordLength wordlength;
  90:../../DaisyExamples/libDaisy/src/per/uart.h ****         uint32_t   baudrate;
  91:../../DaisyExamples/libDaisy/src/per/uart.h ****     };
  92:../../DaisyExamples/libDaisy/src/per/uart.h **** 
  93:../../DaisyExamples/libDaisy/src/per/uart.h **** 
  94:../../DaisyExamples/libDaisy/src/per/uart.h ****     UartHandler() : pimpl_(nullptr) {}
 1292              		.loc 23 94 5 view .LVU352
 1293              		.loc 23 94 5 is_stmt 0 view .LVU353
 1294              	.LBE602:
 1295              	.LBE601:
 1296              	.LBE600:
 1297              	.LBB607:
 1298              	.LBI607:
  18:../../DaisyExamples/libDaisy/src/hid/midi_parser.h ****     ~MidiParser() {}
 1299              		.loc 7 18 5 is_stmt 1 view .LVU354
 1300              	.LBB608:
  18:../../DaisyExamples/libDaisy/src/hid/midi_parser.h ****     ~MidiParser() {}
 1301              		.loc 7 18 17 is_stmt 0 view .LVU355
 1302 0018 40F20F73 		movw	r3, #1807
 1303              	.LBE608:
 1304              	.LBE607:
 1305              	.LBB611:
 1306              	.LBB612:
 1307              	.LBB613:
 1308              	.LBB614:
 1309              	.LBB615:
  15:../../DaisyExamples/libDaisy/src/util/FIFO.h ****     {
 1310              		.loc 6 15 75 view .LVU356
 1311 001c 04F51471 		add	r1, r4, #592
 1312              	.LBE615:
 1313              	.LBE614:
 1314              	.LBE613:
 1315              	.LBE612:
 1316              	.LBE611:
 1317              	.LBB628:
 1318              	.LBB609:
  18:../../DaisyExamples/libDaisy/src/hid/midi_parser.h ****     ~MidiParser() {}
 1319              		.loc 7 18 17 view .LVU357
 1320 0020 194A     		ldr	r2, .L62+8
 1321 0022 A4F83C32 		strh	r3, [r4, #572]	@ movhi
 1322              	.LVL65:
  18:../../DaisyExamples/libDaisy/src/hid/midi_parser.h ****     ~MidiParser() {}
 1323              		.loc 7 18 17 view .LVU358
 1324              	.LBE609:
ARM GAS  /var/folders/hp/45mn71hd0ps5f5pnytxy5bt00000gn/T//ccy0eSy4.s 			page 59


 1325              	.LBE628:
 1326              	.LBB629:
 1327              	.LBI611:
 299:../../DaisyExamples/libDaisy/src/util/FIFO.h **** {
 300:../../DaisyExamples/libDaisy/src/util/FIFO.h ****   public:
 301:../../DaisyExamples/libDaisy/src/util/FIFO.h ****     /** Creates an empty FIFO */
 302:../../DaisyExamples/libDaisy/src/util/FIFO.h ****     FIFO() : FIFOBase<T>(buffer_, capacity + 1) {}
 1328              		.loc 6 302 5 is_stmt 1 view .LVU359
 1329              	.LBB625:
 1330              	.LBB622:
 1331              	.LBI613:
  14:../../DaisyExamples/libDaisy/src/util/FIFO.h ****     : buffer_(buffer), bufferSize_(bufferSize), bufferIn_(0), bufferOut_(0)
 1332              		.loc 6 14 5 view .LVU360
 1333              	.LBB619:
 1334              	.LBB616:
  15:../../DaisyExamples/libDaisy/src/util/FIFO.h ****     {
 1335              		.loc 6 15 75 is_stmt 0 view .LVU361
 1336 0026 40F20113 		movw	r3, #257
 1337              	.LBE616:
 1338              	.LBE619:
 1339              	.LBE622:
 1340              	.LBE625:
 1341              	.LBE629:
 1342              	.LBB630:
 1343              	.LBB606:
 1344              	.LBB605:
 1345              	.LBB603:
 1346              	.LBB604:
 1347              		.loc 23 94 35 view .LVU362
 1348 002a C4F89051 		str	r5, [r4, #400]
 1349              	.LBE604:
 1350              	.LBE603:
 1351              	.LBE605:
 1352              	.LBE606:
 1353              	.LBE630:
 1354              	.LBE634:
 1355              	.LBE655:
 1356              	.LBE659:
 1357              	.LBE663:
   8:SynthV4.cpp   **** static Oscillator osc;
 1358              		.loc 19 8 17 view .LVU363
 1359 002e 2046     		mov	r0, r4
 1360              	.LBB664:
 1361              	.LBB660:
 1362              	.LBB656:
 1363              	.LBB635:
 1364              	.LBB631:
 1365              	.LBB626:
 1366              	.LBB623:
 1367              	.LBB620:
 1368              	.LBB617:
  15:../../DaisyExamples/libDaisy/src/util/FIFO.h ****     {
 1369              		.loc 6 15 75 view .LVU364
 1370 0030 C4F84852 		str	r5, [r4, #584]
 1371              	.LBE617:
 1372              	.LBE620:
 1373              	.LBE623:
ARM GAS  /var/folders/hp/45mn71hd0ps5f5pnytxy5bt00000gn/T//ccy0eSy4.s 			page 60


 1374              	.LBE626:
 1375              	.LBE631:
 1376              	.LBB632:
 1377              	.LBB610:
  18:../../DaisyExamples/libDaisy/src/hid/midi_parser.h ****     ~MidiParser() {}
 1378              		.loc 7 18 17 view .LVU365
 1379 0034 C4F83822 		str	r2, [r4, #568]
 1380              	.LBE610:
 1381              	.LBE632:
 1382              	.LBE635:
 1383              	.LBE656:
 1384              	.LBE660:
 1385              	.LBE664:
   8:SynthV4.cpp   **** static Oscillator osc;
 1386              		.loc 19 8 17 view .LVU366
 1387 0038 3246     		mov	r2, r6
 1388              	.LBB665:
 1389              	.LBB661:
 1390              	.LBB657:
 1391              	.LBB636:
 1392              	.LBB633:
 1393              	.LBB627:
 1394              	.LBB624:
 1395              	.LBB621:
 1396              	.LBB618:
  15:../../DaisyExamples/libDaisy/src/util/FIFO.h ****     {
 1397              		.loc 6 15 75 view .LVU367
 1398 003a C4F84C52 		str	r5, [r4, #588]
 1399              	.LVL66:
  15:../../DaisyExamples/libDaisy/src/util/FIFO.h ****     {
 1400              		.loc 6 15 75 view .LVU368
 1401 003e C4E99013 		strd	r1, r3, [r4, #576]
 1402              	.LBE618:
 1403              	.LBE621:
 1404              	.LBE624:
 1405              	.LBE627:
 1406              	.LBE633:
 1407              	.LBE636:
 1408              	.LBE657:
 1409              	.LBE661:
 1410              	.LBE665:
   8:SynthV4.cpp   **** static Oscillator osc;
 1411              		.loc 19 8 17 view .LVU369
 1412 0042 1249     		ldr	r1, .L62+12
 1413 0044 FFF7FEFF 		bl	__aeabi_atexit
 1414              	.LVL67:
 1415              	.LBB666:
 1416              	.LBI666:
  23:../../DaisyExamples/DaisySP/Source/Synthesis/oscillator.h ****     ~Oscillator() {}
 1417              		.loc 18 23 5 is_stmt 1 view .LVU370
  23:../../DaisyExamples/DaisySP/Source/Synthesis/oscillator.h ****     ~Oscillator() {}
 1418              		.loc 18 23 5 is_stmt 0 view .LVU371
 1419              	.LBE666:
  11:SynthV4.cpp   **** static Parameter p_release;
 1420              		.loc 19 11 19 view .LVU372
 1421 0048 114C     		ldr	r4, .L62+16
   9:SynthV4.cpp   **** static AdEnv ad;
ARM GAS  /var/folders/hp/45mn71hd0ps5f5pnytxy5bt00000gn/T//ccy0eSy4.s 			page 61


 1422              		.loc 19 9 19 view .LVU373
 1423 004a 3246     		mov	r2, r6
 1424 004c 1149     		ldr	r1, .L62+20
 1425 004e 1248     		ldr	r0, .L62+24
 1426 0050 FFF7FEFF 		bl	__aeabi_atexit
 1427              	.LVL68:
 1428              	.LBB667:
 1429              	.LBI667:
  42:../../DaisyExamples/DaisySP/Source/Control/adenv.h ****     ~AdEnv() {}
 1430              		.loc 17 42 5 is_stmt 1 view .LVU374
  42:../../DaisyExamples/DaisySP/Source/Control/adenv.h ****     ~AdEnv() {}
 1431              		.loc 17 42 5 is_stmt 0 view .LVU375
 1432              	.LBE667:
  10:SynthV4.cpp   **** static Parameter  p_freq;
 1433              		.loc 19 10 14 view .LVU376
 1434 0054 3246     		mov	r2, r6
 1435 0056 1149     		ldr	r1, .L62+28
 1436 0058 1148     		ldr	r0, .L62+32
 1437 005a FFF7FEFF 		bl	__aeabi_atexit
 1438              	.LVL69:
 1439              	.LBB668:
 1440              	.LBI668:
  25:../../DaisyExamples/libDaisy/src/hid/parameter.h ****     /** Destructor */
 1441              		.loc 1 25 5 is_stmt 1 view .LVU377
 1442              	.LBB669:
 1443              	.LBB670:
 1444              	.LBI670:
  21:../../DaisyExamples/libDaisy/src/hid/ctrl.h ****     /** destructor */
 1445              		.loc 2 21 5 view .LVU378
  21:../../DaisyExamples/libDaisy/src/hid/ctrl.h ****     /** destructor */
 1446              		.loc 2 21 5 is_stmt 0 view .LVU379
 1447              	.LBE670:
 1448              	.LBE669:
 1449              	.LBE668:
  11:SynthV4.cpp   **** static Parameter p_release;
 1450              		.loc 19 11 19 view .LVU380
 1451 005e 3246     		mov	r2, r6
 1452 0060 2146     		mov	r1, r4
 1453 0062 1048     		ldr	r0, .L62+36
 1454 0064 FFF7FEFF 		bl	__aeabi_atexit
 1455              	.LVL70:
 1456              	.LBB671:
 1457              	.LBI671:
  25:../../DaisyExamples/libDaisy/src/hid/parameter.h ****     /** Destructor */
 1458              		.loc 1 25 5 is_stmt 1 view .LVU381
 1459              	.LBB672:
 1460              	.LBB673:
 1461              	.LBI673:
  21:../../DaisyExamples/libDaisy/src/hid/ctrl.h ****     /** destructor */
 1462              		.loc 2 21 5 view .LVU382
  21:../../DaisyExamples/libDaisy/src/hid/ctrl.h ****     /** destructor */
 1463              		.loc 2 21 5 is_stmt 0 view .LVU383
 1464              	.LBE673:
 1465              	.LBE672:
 1466              	.LBE671:
  12:SynthV4.cpp   **** 
 1467              		.loc 19 12 18 view .LVU384
ARM GAS  /var/folders/hp/45mn71hd0ps5f5pnytxy5bt00000gn/T//ccy0eSy4.s 			page 62


 1468 0068 3246     		mov	r2, r6
 1469 006a 2146     		mov	r1, r4
 1470 006c 0E48     		ldr	r0, .L62+40
 1471 006e FFF7FEFF 		bl	__aeabi_atexit
 1472              	.LVL71:
 1473              	.LBB674:
 1474              	.LBI674:
  26:../../DaisyExamples/libDaisy/src/util/color.h ****     ~Color() {}
 1475              		.loc 3 26 5 is_stmt 1 view .LVU385
  26:../../DaisyExamples/libDaisy/src/util/color.h ****     ~Color() {}
 1476              		.loc 3 26 5 is_stmt 0 view .LVU386
 1477              	.LBE674:
  14:SynthV4.cpp   **** 
 1478              		.loc 19 14 7 view .LVU387
 1479 0072 3246     		mov	r2, r6
 1480 0074 0D49     		ldr	r1, .L62+44
 1481 0076 0E48     		ldr	r0, .L62+48
 1482              	.LBE675:
 1483              	.LBE677:
 1484              		.loc 19 103 1 view .LVU388
 1485 0078 BDE87040 		pop	{r4, r5, r6, lr}
 1486              		.cfi_restore 14
 1487              		.cfi_restore 6
 1488              		.cfi_restore 5
 1489              		.cfi_restore 4
 1490              		.cfi_def_cfa_offset 0
 1491              	.LBB678:
 1492              	.LBB676:
  14:SynthV4.cpp   **** 
 1493              		.loc 19 14 7 view .LVU389
 1494 007c FFF7FEBF 		b	__aeabi_atexit
 1495              	.LVL72:
 1496              	.L63:
 1497              		.align	2
 1498              	.L62:
 1499 0080 00000000 		.word	_ZL3pod
 1500 0084 00000000 		.word	__dso_handle
 1501 0088 0080707F 		.word	2138079232
 1502 008c 00000000 		.word	_ZN5daisy8DaisyPodD1Ev
 1503 0090 00000000 		.word	_ZN5daisy9ParameterD1Ev
 1504 0094 00000000 		.word	_ZN7daisysp10OscillatorD1Ev
 1505 0098 00000000 		.word	.LANCHOR8
 1506 009c 00000000 		.word	_ZN7daisysp5AdEnvD1Ev
 1507 00a0 00000000 		.word	.LANCHOR1
 1508 00a4 00000000 		.word	.LANCHOR2
 1509 00a8 00000000 		.word	.LANCHOR4
 1510 00ac 00000000 		.word	_ZN5daisy5ColorD1Ev
 1511 00b0 00000000 		.word	.LANCHOR9
 1512              	.LBE676:
 1513              	.LBE678:
 1514              		.cfi_endproc
 1515              	.LFE5439:
 1517              		.section	.init_array,"aw",%init_array
 1518              		.align	2
 1519 0000 00000000 		.word	_GLOBAL__sub_I_color(target1)
 1520              		.global	isVolumeOn
 1521              		.global	adCycle
ARM GAS  /var/folders/hp/45mn71hd0ps5f5pnytxy5bt00000gn/T//ccy0eSy4.s 			page 63


 1522              		.global	adRelease
 1523              		.global	freq
 1524              		.global	color
 1525              		.section	.bss._ZL2ad,"aw",%nobits
 1526              		.align	2
 1527              		.set	.LANCHOR1,. + 0
 1530              	_ZL2ad:
 1531 0000 00000000 		.space	56
 1531      00000000 
 1531      00000000 
 1531      00000000 
 1531      00000000 
 1532              		.section	.bss._ZL3osc,"aw",%nobits
 1533              		.align	2
 1534              		.set	.LANCHOR8,. + 0
 1537              	_ZL3osc:
 1538 0000 00000000 		.space	44
 1538      00000000 
 1538      00000000 
 1538      00000000 
 1538      00000000 
 1539              		.section	.bss._ZL3pod,"aw",%nobits
 1540              		.align	2
 1543              	_ZL3pod:
 1544 0000 00000000 		.space	37600
 1544      00000000 
 1544      00000000 
 1544      00000000 
 1544      00000000 
 1545              		.section	.bss._ZL6p_freq,"aw",%nobits
 1546              		.align	2
 1547              		.set	.LANCHOR2,. + 0
 1550              	_ZL6p_freq:
 1551 0000 00000000 		.space	56
 1551      00000000 
 1551      00000000 
 1551      00000000 
 1551      00000000 
 1552              		.section	.bss._ZL9p_release,"aw",%nobits
 1553              		.align	2
 1554              		.set	.LANCHOR4,. + 0
 1557              	_ZL9p_release:
 1558 0000 00000000 		.space	56
 1558      00000000 
 1558      00000000 
 1558      00000000 
 1558      00000000 
 1559              		.section	.bss._ZL9volChange,"aw",%nobits
 1560              		.align	2
 1561              		.set	.LANCHOR6,. + 0
 1564              	_ZL9volChange:
 1565 0000 00000000 		.space	4
 1566              		.section	.bss.adCycle,"aw",%nobits
 1567              		.set	.LANCHOR0,. + 0
 1570              	adCycle:
 1571 0000 00       		.space	1
 1572              		.section	.bss.adRelease,"aw",%nobits
ARM GAS  /var/folders/hp/45mn71hd0ps5f5pnytxy5bt00000gn/T//ccy0eSy4.s 			page 64


 1573              		.align	2
 1574              		.set	.LANCHOR5,. + 0
 1577              	adRelease:
 1578 0000 00000000 		.space	4
 1579              		.section	.bss.color,"aw",%nobits
 1580              		.align	2
 1581              		.set	.LANCHOR9,. + 0
 1584              	color:
 1585 0000 00000000 		.space	12
 1585      00000000 
 1585      00000000 
 1586              		.section	.bss.freq,"aw",%nobits
 1587              		.align	2
 1588              		.set	.LANCHOR3,. + 0
 1591              	freq:
 1592 0000 00000000 		.space	4
 1593              		.section	.bss.isVolumeOn,"aw",%nobits
 1594              		.set	.LANCHOR7,. + 0
 1597              	isVolumeOn:
 1598 0000 00       		.space	1
 1599              		.text
 1600              	.Letext0:
 1601              		.file 24 "/Library/DaisyToolchain/0.2.0/arm/arm-none-eabi/include/machine/_default_types.h"
 1602              		.file 25 "/Library/DaisyToolchain/0.2.0/arm/arm-none-eabi/include/sys/_stdint.h"
 1603              		.file 26 "/Library/DaisyToolchain/0.2.0/arm/arm-none-eabi/include/stdint.h"
 1604              		.file 27 "/Library/DaisyToolchain/0.2.0/arm/lib/gcc/arm-none-eabi/10.3.1/include/stddef.h"
 1605              		.file 28 "/Library/DaisyToolchain/0.2.0/arm/arm-none-eabi/include/c++/10.3.1/cmath"
 1606              		.file 29 "/Library/DaisyToolchain/0.2.0/arm/arm-none-eabi/include/c++/10.3.1/bits/std_abs.h"
 1607              		.file 30 "/Library/DaisyToolchain/0.2.0/arm/arm-none-eabi/include/c++/10.3.1/cstdlib"
 1608              		.file 31 "/Library/DaisyToolchain/0.2.0/arm/arm-none-eabi/include/c++/10.3.1/cstdint"
 1609              		.file 32 "/Library/DaisyToolchain/0.2.0/arm/arm-none-eabi/include/c++/10.3.1/arm-none-eabi/thumb/v
 1610              		.file 33 "/Library/DaisyToolchain/0.2.0/arm/arm-none-eabi/include/c++/10.3.1/type_traits"
 1611              		.file 34 "/Library/DaisyToolchain/0.2.0/arm/arm-none-eabi/include/c++/10.3.1/debug/debug.h"
 1612              		.file 35 "/Library/DaisyToolchain/0.2.0/arm/arm-none-eabi/include/c++/10.3.1/bits/algorithmfwd.h"
 1613              		.file 36 "/Library/DaisyToolchain/0.2.0/arm/arm-none-eabi/include/c++/10.3.1/bits/stl_pair.h"
 1614              		.file 37 "/Library/DaisyToolchain/0.2.0/arm/arm-none-eabi/include/c++/10.3.1/bits/exception_ptr.h"
 1615              		.file 38 "/Library/DaisyToolchain/0.2.0/arm/arm-none-eabi/include/c++/10.3.1/initializer_list"
 1616              		.file 39 "/Library/DaisyToolchain/0.2.0/arm/arm-none-eabi/include/c++/10.3.1/cstdarg"
 1617              		.file 40 "/Library/DaisyToolchain/0.2.0/arm/arm-none-eabi/include/c++/10.3.1/cstdio"
 1618              		.file 41 "/Library/DaisyToolchain/0.2.0/arm/arm-none-eabi/include/c++/10.3.1/cstring"
 1619              		.file 42 "/Library/DaisyToolchain/0.2.0/arm/arm-none-eabi/include/c++/10.3.1/cwchar"
 1620              		.file 43 "/Library/DaisyToolchain/0.2.0/arm/arm-none-eabi/include/c++/10.3.1/clocale"
 1621              		.file 44 "/Library/DaisyToolchain/0.2.0/arm/arm-none-eabi/include/c++/10.3.1/bits/basic_string.h"
 1622              		.file 45 "/Library/DaisyToolchain/0.2.0/arm/arm-none-eabi/include/c++/10.3.1/bits/stl_iterator.h"
 1623              		.file 46 "/Library/DaisyToolchain/0.2.0/arm/arm-none-eabi/include/c++/10.3.1/bits/predefined_ops.h
 1624              		.file 47 "/Library/DaisyToolchain/0.2.0/arm/arm-none-eabi/include/sys/_types.h"
 1625              		.file 48 "/Library/DaisyToolchain/0.2.0/arm/arm-none-eabi/include/sys/reent.h"
 1626              		.file 49 "/Library/DaisyToolchain/0.2.0/arm/arm-none-eabi/include/sys/lock.h"
 1627              		.file 50 "/Library/DaisyToolchain/0.2.0/arm/arm-none-eabi/include/math.h"
 1628              		.file 51 "/Library/DaisyToolchain/0.2.0/arm/arm-none-eabi/include/stdlib.h"
 1629              		.file 52 "/Library/DaisyToolchain/0.2.0/arm/arm-none-eabi/include/c++/10.3.1/math.h"
 1630              		.file 53 "/Library/DaisyToolchain/0.2.0/arm/arm-none-eabi/include/c++/10.3.1/stdlib.h"
 1631              		.file 54 "../../DaisyExamples/libDaisy/src/daisy_core.h"
 1632              		.file 55 "../../DaisyExamples/libDaisy/src/per/tim.h"
 1633              		.file 56 "../../DaisyExamples/libDaisy/src/hid/MidiEvent.h"
 1634              		.file 57 "../../DaisyExamples/libDaisy/src/util/wav_format.h"
 1635              		.file 58 "../../DaisyExamples/libDaisy/src/dev/max11300.h"
ARM GAS  /var/folders/hp/45mn71hd0ps5f5pnytxy5bt00000gn/T//ccy0eSy4.s 			page 65


 1636              		.file 59 "../../DaisyExamples/libDaisy/src/per/gpio.h"
 1637              		.file 60 "../../DaisyExamples/libDaisy/src/dev/sdram.h"
 1638              		.file 61 "/Library/DaisyToolchain/0.2.0/arm/lib/gcc/arm-none-eabi/10.3.1/include/stdarg.h"
 1639              		.file 62 "/Library/DaisyToolchain/0.2.0/arm/arm-none-eabi/include/stdio.h"
 1640              		.file 63 "/Library/DaisyToolchain/0.2.0/arm/arm-none-eabi/include/string.h"
 1641              		.file 64 "../../DaisyExamples/DaisySP/Source/Utility/dsp.h"
 1642              		.file 65 "/Library/DaisyToolchain/0.2.0/arm/arm-none-eabi/include/wchar.h"
 1643              		.file 66 "/Library/DaisyToolchain/0.2.0/arm/arm-none-eabi/include/locale.h"
 1644              		.file 67 "../../DaisyExamples/libDaisy/src/dev/sr_595.h"
 1645              		.file 68 "<built-in>"
ARM GAS  /var/folders/hp/45mn71hd0ps5f5pnytxy5bt00000gn/T//ccy0eSy4.s 			page 66

