ARM GAS  /var/folders/hp/45mn71hd0ps5f5pnytxy5bt00000gn/T//ccpJ9dAn.s 			page 1


   1              		.cpu cortex-m7
   2              		.arch armv7e-m
   3              		.fpu fpv5-d16
   4              		.eabi_attribute 28, 1
   5              		.eabi_attribute 20, 1
   6              		.eabi_attribute 21, 1
   7              		.eabi_attribute 23, 3
   8              		.eabi_attribute 24, 1
   9              		.eabi_attribute 25, 1
  10              		.eabi_attribute 26, 1
  11              		.eabi_attribute 30, 2
  12              		.eabi_attribute 34, 1
  13              		.eabi_attribute 18, 4
  14              		.file	"SynthV2.cpp"
  15              		.text
  16              	.Ltext0:
  17              		.cfi_sections	.debug_frame
  18              		.section	.text._ZN5daisy9ParameterD2Ev,"axG",%progbits,_ZN5daisy9ParameterD5Ev,comdat
  19              		.align	1
  20              		.p2align 2,,3
  21              		.weak	_ZN5daisy9ParameterD2Ev
  22              		.syntax unified
  23              		.thumb
  24              		.thumb_func
  26              	_ZN5daisy9ParameterD2Ev:
  27              	.LVL0:
  28              	.LFB1689:
  29              		.file 1 "../../DaisyExamples/libDaisy//src/hid/parameter.h"
   1:../../DaisyExamples/libDaisy//src/hid/parameter.h **** #pragma once
   2:../../DaisyExamples/libDaisy//src/hid/parameter.h **** #include <stdint.h>
   3:../../DaisyExamples/libDaisy//src/hid/parameter.h **** #include "hid/ctrl.h"
   4:../../DaisyExamples/libDaisy//src/hid/parameter.h **** 
   5:../../DaisyExamples/libDaisy//src/hid/parameter.h **** namespace daisy
   6:../../DaisyExamples/libDaisy//src/hid/parameter.h **** {
   7:../../DaisyExamples/libDaisy//src/hid/parameter.h **** /** @addtogroup controls
   8:../../DaisyExamples/libDaisy//src/hid/parameter.h ****     @{
   9:../../DaisyExamples/libDaisy//src/hid/parameter.h **** */
  10:../../DaisyExamples/libDaisy//src/hid/parameter.h **** 
  11:../../DaisyExamples/libDaisy//src/hid/parameter.h **** /**      Simple parameter mapping tool that takes a 0-1 input from an hid_ctrl. */
  12:../../DaisyExamples/libDaisy//src/hid/parameter.h **** class Parameter
  13:../../DaisyExamples/libDaisy//src/hid/parameter.h **** {
  14:../../DaisyExamples/libDaisy//src/hid/parameter.h ****   public:
  15:../../DaisyExamples/libDaisy//src/hid/parameter.h ****     /** Curves are applied to the output signal */
  16:../../DaisyExamples/libDaisy//src/hid/parameter.h ****     enum Curve
  17:../../DaisyExamples/libDaisy//src/hid/parameter.h ****     {
  18:../../DaisyExamples/libDaisy//src/hid/parameter.h ****         LINEAR,      /**< Linear curve */
  19:../../DaisyExamples/libDaisy//src/hid/parameter.h ****         EXPONENTIAL, /**< Exponential curve */
  20:../../DaisyExamples/libDaisy//src/hid/parameter.h ****         LOGARITHMIC, /**<  Logarithmic curve */
  21:../../DaisyExamples/libDaisy//src/hid/parameter.h ****         CUBE,        /**< Cubic curve */
  22:../../DaisyExamples/libDaisy//src/hid/parameter.h ****         LAST,        /**< Final enum element. */
  23:../../DaisyExamples/libDaisy//src/hid/parameter.h ****     };
  24:../../DaisyExamples/libDaisy//src/hid/parameter.h ****     /** Constructor */
  25:../../DaisyExamples/libDaisy//src/hid/parameter.h ****     Parameter() {}
  26:../../DaisyExamples/libDaisy//src/hid/parameter.h ****     /** Destructor */
  27:../../DaisyExamples/libDaisy//src/hid/parameter.h ****     ~Parameter() {}
  30              		.loc 1 27 5 view -0
  31              		.cfi_startproc
ARM GAS  /var/folders/hp/45mn71hd0ps5f5pnytxy5bt00000gn/T//ccpJ9dAn.s 			page 2


  32              		@ args = 0, pretend = 0, frame = 0
  33              		@ frame_needed = 0, uses_anonymous_args = 0
  34              		@ link register save eliminated.
  35              	.LBB321:
  36              	.LBI321:
  37              		.file 2 "../../DaisyExamples/libDaisy//src/hid/ctrl.h"
   1:../../DaisyExamples/libDaisy//src/hid/ctrl.h **** #pragma once
   2:../../DaisyExamples/libDaisy//src/hid/ctrl.h **** #ifndef DSY_KNOB_H
   3:../../DaisyExamples/libDaisy//src/hid/ctrl.h **** #define DSY_KNOB_H /**< & */
   4:../../DaisyExamples/libDaisy//src/hid/ctrl.h **** #include <stdint.h>
   5:../../DaisyExamples/libDaisy//src/hid/ctrl.h **** 
   6:../../DaisyExamples/libDaisy//src/hid/ctrl.h **** #ifdef __cplusplus
   7:../../DaisyExamples/libDaisy//src/hid/ctrl.h **** namespace daisy
   8:../../DaisyExamples/libDaisy//src/hid/ctrl.h **** {
   9:../../DaisyExamples/libDaisy//src/hid/ctrl.h **** /**
  10:../../DaisyExamples/libDaisy//src/hid/ctrl.h ****     @brief Hardware Interface for control inputs \n 
  11:../../DaisyExamples/libDaisy//src/hid/ctrl.h ****     Primarily designed for ADC input controls such as \n 
  12:../../DaisyExamples/libDaisy//src/hid/ctrl.h ****     potentiometers, and control voltage. \n 
  13:../../DaisyExamples/libDaisy//src/hid/ctrl.h ****     @author Stephen Hensley
  14:../../DaisyExamples/libDaisy//src/hid/ctrl.h ****     @date November 2019
  15:../../DaisyExamples/libDaisy//src/hid/ctrl.h ****     @ingroup controls
  16:../../DaisyExamples/libDaisy//src/hid/ctrl.h **** */
  17:../../DaisyExamples/libDaisy//src/hid/ctrl.h **** class AnalogControl
  18:../../DaisyExamples/libDaisy//src/hid/ctrl.h **** {
  19:../../DaisyExamples/libDaisy//src/hid/ctrl.h ****   public:
  20:../../DaisyExamples/libDaisy//src/hid/ctrl.h ****     /** Constructor */
  21:../../DaisyExamples/libDaisy//src/hid/ctrl.h ****     AnalogControl() {}
  22:../../DaisyExamples/libDaisy//src/hid/ctrl.h ****     /** destructor */
  23:../../DaisyExamples/libDaisy//src/hid/ctrl.h ****     ~AnalogControl() {}
  38              		.loc 2 23 5 view .LVU1
  39              		.loc 2 23 5 is_stmt 0 view .LVU2
  40              	.LBE321:
  41              		.loc 1 27 19 view .LVU3
  42 0000 7047     		bx	lr
  43              		.cfi_endproc
  44              	.LFE1689:
  46              		.weak	_ZN5daisy9ParameterD1Ev
  47              		.thumb_set _ZN5daisy9ParameterD1Ev,_ZN5daisy9ParameterD2Ev
  48 0002 00BF     		.section	.text._ZN5daisy8DaisyPodD2Ev,"axG",%progbits,_ZN5daisy8DaisyPodD5Ev,comdat
  49              		.align	1
  50              		.p2align 2,,3
  51              		.weak	_ZN5daisy8DaisyPodD2Ev
  52              		.syntax unified
  53              		.thumb
  54              		.thumb_func
  56              	_ZN5daisy8DaisyPodD2Ev:
  57              	.LVL1:
  58              	.LFB2565:
  59              		.file 3 "../../DaisyExamples/libDaisy//src/daisy_pod.h"
   1:../../DaisyExamples/libDaisy//src/daisy_pod.h **** #pragma once
   2:../../DaisyExamples/libDaisy//src/daisy_pod.h **** #ifndef DSY_POD_BSP_H
   3:../../DaisyExamples/libDaisy//src/daisy_pod.h **** #define DSY_POD_BSP_H
   4:../../DaisyExamples/libDaisy//src/daisy_pod.h **** 
   5:../../DaisyExamples/libDaisy//src/daisy_pod.h **** #include "daisy_seed.h"
   6:../../DaisyExamples/libDaisy//src/daisy_pod.h **** 
   7:../../DaisyExamples/libDaisy//src/daisy_pod.h **** namespace daisy
   8:../../DaisyExamples/libDaisy//src/daisy_pod.h **** {
ARM GAS  /var/folders/hp/45mn71hd0ps5f5pnytxy5bt00000gn/T//ccpJ9dAn.s 			page 3


   9:../../DaisyExamples/libDaisy//src/daisy_pod.h **** /**
  10:../../DaisyExamples/libDaisy//src/daisy_pod.h ****     @brief Class that handles initializing all of the hardware specific to the Daisy Patch Board. \
  11:../../DaisyExamples/libDaisy//src/daisy_pod.h ****     Helper funtions are also in place to provide easy access to built-in controls and peripherals.
  12:../../DaisyExamples/libDaisy//src/daisy_pod.h ****     @author Stephen Hensley
  13:../../DaisyExamples/libDaisy//src/daisy_pod.h ****     @date November 2019
  14:../../DaisyExamples/libDaisy//src/daisy_pod.h ****     @ingroup boards
  15:../../DaisyExamples/libDaisy//src/daisy_pod.h **** */
  16:../../DaisyExamples/libDaisy//src/daisy_pod.h **** class DaisyPod
  17:../../DaisyExamples/libDaisy//src/daisy_pod.h **** {
  18:../../DaisyExamples/libDaisy//src/daisy_pod.h ****   public:
  19:../../DaisyExamples/libDaisy//src/daisy_pod.h ****     /** Switches */
  20:../../DaisyExamples/libDaisy//src/daisy_pod.h ****     enum Sw
  21:../../DaisyExamples/libDaisy//src/daisy_pod.h ****     {
  22:../../DaisyExamples/libDaisy//src/daisy_pod.h ****         BUTTON_1,    /** & */
  23:../../DaisyExamples/libDaisy//src/daisy_pod.h ****         BUTTON_2,    /** & */
  24:../../DaisyExamples/libDaisy//src/daisy_pod.h ****         BUTTON_LAST, /** &  */
  25:../../DaisyExamples/libDaisy//src/daisy_pod.h ****     };
  26:../../DaisyExamples/libDaisy//src/daisy_pod.h **** 
  27:../../DaisyExamples/libDaisy//src/daisy_pod.h ****     /** Knobs */
  28:../../DaisyExamples/libDaisy//src/daisy_pod.h ****     enum Knob
  29:../../DaisyExamples/libDaisy//src/daisy_pod.h ****     {
  30:../../DaisyExamples/libDaisy//src/daisy_pod.h ****         KNOB_1,    /** &  */
  31:../../DaisyExamples/libDaisy//src/daisy_pod.h ****         KNOB_2,    /** & */
  32:../../DaisyExamples/libDaisy//src/daisy_pod.h ****         KNOB_LAST, /** & */
  33:../../DaisyExamples/libDaisy//src/daisy_pod.h ****     };
  34:../../DaisyExamples/libDaisy//src/daisy_pod.h **** 
  35:../../DaisyExamples/libDaisy//src/daisy_pod.h ****     DaisyPod() {}
  36:../../DaisyExamples/libDaisy//src/daisy_pod.h ****     ~DaisyPod() {}
  60              		.loc 3 36 5 is_stmt 1 view -0
  61              		.cfi_startproc
  62              		@ args = 0, pretend = 0, frame = 0
  63              		@ frame_needed = 0, uses_anonymous_args = 0
  64              		@ link register save eliminated.
  65              	.LBB322:
  66              	.LBI322:
  67              		.file 4 "../../DaisyExamples/libDaisy//src/hid/midi.h"
   1:../../DaisyExamples/libDaisy//src/hid/midi.h **** #pragma once
   2:../../DaisyExamples/libDaisy//src/hid/midi.h **** #ifndef DSY_MIDI_H
   3:../../DaisyExamples/libDaisy//src/hid/midi.h **** #define DSY_MIDI_H
   4:../../DaisyExamples/libDaisy//src/hid/midi.h **** 
   5:../../DaisyExamples/libDaisy//src/hid/midi.h **** #include <stdint.h>
   6:../../DaisyExamples/libDaisy//src/hid/midi.h **** #include <stdlib.h>
   7:../../DaisyExamples/libDaisy//src/hid/midi.h **** #include <algorithm>
   8:../../DaisyExamples/libDaisy//src/hid/midi.h **** #include "per/uart.h"
   9:../../DaisyExamples/libDaisy//src/hid/midi.h **** #include "util/ringbuffer.h"
  10:../../DaisyExamples/libDaisy//src/hid/midi.h **** #include "util/FIFO.h"
  11:../../DaisyExamples/libDaisy//src/hid/midi.h **** #include "hid/midi_parser.h"
  12:../../DaisyExamples/libDaisy//src/hid/midi.h **** #include "hid/usb_midi.h"
  13:../../DaisyExamples/libDaisy//src/hid/midi.h **** #include "sys/dma.h"
  14:../../DaisyExamples/libDaisy//src/hid/midi.h **** #include "sys/system.h"
  15:../../DaisyExamples/libDaisy//src/hid/midi.h **** 
  16:../../DaisyExamples/libDaisy//src/hid/midi.h **** namespace daisy
  17:../../DaisyExamples/libDaisy//src/hid/midi.h **** {
  18:../../DaisyExamples/libDaisy//src/hid/midi.h **** /** @brief   Transport layer for sending and receiving MIDI data over UART
  19:../../DaisyExamples/libDaisy//src/hid/midi.h ****  *  @details This is the mode of communication used for TRS and DIN MIDI
  20:../../DaisyExamples/libDaisy//src/hid/midi.h ****  *           There is an additional 2kB of RAM data used within this class
  21:../../DaisyExamples/libDaisy//src/hid/midi.h ****  *           for processing bulk data from the UART peripheral
ARM GAS  /var/folders/hp/45mn71hd0ps5f5pnytxy5bt00000gn/T//ccpJ9dAn.s 			page 4


  22:../../DaisyExamples/libDaisy//src/hid/midi.h ****  *  @ingroup midi
  23:../../DaisyExamples/libDaisy//src/hid/midi.h **** */
  24:../../DaisyExamples/libDaisy//src/hid/midi.h **** class MidiUartTransport
  25:../../DaisyExamples/libDaisy//src/hid/midi.h **** {
  26:../../DaisyExamples/libDaisy//src/hid/midi.h ****   public:
  27:../../DaisyExamples/libDaisy//src/hid/midi.h ****     typedef void (*MidiRxParseCallback)(uint8_t* data,
  28:../../DaisyExamples/libDaisy//src/hid/midi.h ****                                         size_t   size,
  29:../../DaisyExamples/libDaisy//src/hid/midi.h ****                                         void*    context);
  30:../../DaisyExamples/libDaisy//src/hid/midi.h **** 
  31:../../DaisyExamples/libDaisy//src/hid/midi.h ****     MidiUartTransport() {}
  32:../../DaisyExamples/libDaisy//src/hid/midi.h ****     ~MidiUartTransport() {}
  33:../../DaisyExamples/libDaisy//src/hid/midi.h **** 
  34:../../DaisyExamples/libDaisy//src/hid/midi.h ****     /** @brief Configuration structure for UART MIDI */
  35:../../DaisyExamples/libDaisy//src/hid/midi.h ****     struct Config
  36:../../DaisyExamples/libDaisy//src/hid/midi.h ****     {
  37:../../DaisyExamples/libDaisy//src/hid/midi.h ****         UartHandler::Config::Peripheral periph;
  38:../../DaisyExamples/libDaisy//src/hid/midi.h ****         dsy_gpio_pin                    rx;
  39:../../DaisyExamples/libDaisy//src/hid/midi.h ****         dsy_gpio_pin                    tx;
  40:../../DaisyExamples/libDaisy//src/hid/midi.h **** 
  41:../../DaisyExamples/libDaisy//src/hid/midi.h ****         /** Pointer to buffer for DMA UART rx byte transfer in background.
  42:../../DaisyExamples/libDaisy//src/hid/midi.h ****          *
  43:../../DaisyExamples/libDaisy//src/hid/midi.h ****          *  @details By default this uses a shared buffer in DMA_BUFFER_MEM_SECTION,
  44:../../DaisyExamples/libDaisy//src/hid/midi.h ****          *           which can only be utilized for a single UART peripheral. To
  45:../../DaisyExamples/libDaisy//src/hid/midi.h ****          *           use MIDI with multiple UART peripherals, you must provide your own
  46:../../DaisyExamples/libDaisy//src/hid/midi.h ****          *           buffer, allocated to a DMA-capable memory section.
  47:../../DaisyExamples/libDaisy//src/hid/midi.h ****          */
  48:../../DaisyExamples/libDaisy//src/hid/midi.h ****         uint8_t* rx_buffer;
  49:../../DaisyExamples/libDaisy//src/hid/midi.h **** 
  50:../../DaisyExamples/libDaisy//src/hid/midi.h ****         /** Size in bytes of rx_buffer.
  51:../../DaisyExamples/libDaisy//src/hid/midi.h ****          *
  52:../../DaisyExamples/libDaisy//src/hid/midi.h ****          *  @details This size determines the maximum Rx bytes readable by the UART in the backgrou
  53:../../DaisyExamples/libDaisy//src/hid/midi.h ****          *           By default it's set to the size of the default shared rx_buffer (256 bytes).
  54:../../DaisyExamples/libDaisy//src/hid/midi.h ****          *           While much smaller sizes can be used, data can get missed if the buffer is too
  55:../../DaisyExamples/libDaisy//src/hid/midi.h ****          */
  56:../../DaisyExamples/libDaisy//src/hid/midi.h ****         size_t rx_buffer_size;
  57:../../DaisyExamples/libDaisy//src/hid/midi.h **** 
  58:../../DaisyExamples/libDaisy//src/hid/midi.h ****         Config();
  59:../../DaisyExamples/libDaisy//src/hid/midi.h ****     };
  60:../../DaisyExamples/libDaisy//src/hid/midi.h **** 
  61:../../DaisyExamples/libDaisy//src/hid/midi.h ****     /** @brief Initialization of UART using config struct */
  62:../../DaisyExamples/libDaisy//src/hid/midi.h ****     inline void Init(Config config)
  63:../../DaisyExamples/libDaisy//src/hid/midi.h ****     {
  64:../../DaisyExamples/libDaisy//src/hid/midi.h ****         UartHandler::Config uart_config;
  65:../../DaisyExamples/libDaisy//src/hid/midi.h **** 
  66:../../DaisyExamples/libDaisy//src/hid/midi.h ****         //defaults
  67:../../DaisyExamples/libDaisy//src/hid/midi.h ****         uart_config.baudrate   = 31250;
  68:../../DaisyExamples/libDaisy//src/hid/midi.h ****         uart_config.stopbits   = UartHandler::Config::StopBits::BITS_1;
  69:../../DaisyExamples/libDaisy//src/hid/midi.h ****         uart_config.parity     = UartHandler::Config::Parity::NONE;
  70:../../DaisyExamples/libDaisy//src/hid/midi.h ****         uart_config.mode       = UartHandler::Config::Mode::TX_RX;
  71:../../DaisyExamples/libDaisy//src/hid/midi.h ****         uart_config.wordlength = UartHandler::Config::WordLength::BITS_8;
  72:../../DaisyExamples/libDaisy//src/hid/midi.h **** 
  73:../../DaisyExamples/libDaisy//src/hid/midi.h ****         //user settings
  74:../../DaisyExamples/libDaisy//src/hid/midi.h ****         uart_config.periph        = config.periph;
  75:../../DaisyExamples/libDaisy//src/hid/midi.h ****         uart_config.pin_config.rx = config.rx;
  76:../../DaisyExamples/libDaisy//src/hid/midi.h ****         uart_config.pin_config.tx = config.tx;
  77:../../DaisyExamples/libDaisy//src/hid/midi.h **** 
  78:../../DaisyExamples/libDaisy//src/hid/midi.h ****         rx_buffer      = config.rx_buffer;
ARM GAS  /var/folders/hp/45mn71hd0ps5f5pnytxy5bt00000gn/T//ccpJ9dAn.s 			page 5


  79:../../DaisyExamples/libDaisy//src/hid/midi.h ****         rx_buffer_size = config.rx_buffer_size;
  80:../../DaisyExamples/libDaisy//src/hid/midi.h **** 
  81:../../DaisyExamples/libDaisy//src/hid/midi.h ****         /** zero the buffer to ensure emptiness regardless of source memory */
  82:../../DaisyExamples/libDaisy//src/hid/midi.h ****         std::fill(rx_buffer, rx_buffer + rx_buffer_size, 0);
  83:../../DaisyExamples/libDaisy//src/hid/midi.h **** 
  84:../../DaisyExamples/libDaisy//src/hid/midi.h ****         uart_.Init(uart_config);
  85:../../DaisyExamples/libDaisy//src/hid/midi.h ****     }
  86:../../DaisyExamples/libDaisy//src/hid/midi.h **** 
  87:../../DaisyExamples/libDaisy//src/hid/midi.h ****     /** @brief Start the UART peripheral in listening mode.
  88:../../DaisyExamples/libDaisy//src/hid/midi.h ****      *  This will fill an internal data structure in the background */
  89:../../DaisyExamples/libDaisy//src/hid/midi.h ****     inline void StartRx(MidiRxParseCallback parse_callback, void* context)
  90:../../DaisyExamples/libDaisy//src/hid/midi.h ****     {
  91:../../DaisyExamples/libDaisy//src/hid/midi.h ****         parse_context_  = context;
  92:../../DaisyExamples/libDaisy//src/hid/midi.h ****         parse_callback_ = parse_callback;
  93:../../DaisyExamples/libDaisy//src/hid/midi.h ****         dsy_dma_clear_cache_for_buffer((uint8_t*)this,
  94:../../DaisyExamples/libDaisy//src/hid/midi.h ****                                        sizeof(MidiUartTransport));
  95:../../DaisyExamples/libDaisy//src/hid/midi.h ****         uart_.DmaListenStart(
  96:../../DaisyExamples/libDaisy//src/hid/midi.h ****             rx_buffer, rx_buffer_size, MidiUartTransport::rxCallback, this);
  97:../../DaisyExamples/libDaisy//src/hid/midi.h ****     }
  98:../../DaisyExamples/libDaisy//src/hid/midi.h **** 
  99:../../DaisyExamples/libDaisy//src/hid/midi.h ****     /** @brief returns whether the UART peripheral is actively listening in the background or not *
 100:../../DaisyExamples/libDaisy//src/hid/midi.h ****     inline bool RxActive() { return uart_.IsListening(); }
 101:../../DaisyExamples/libDaisy//src/hid/midi.h **** 
 102:../../DaisyExamples/libDaisy//src/hid/midi.h ****     /** @brief This is a no-op for UART transport - Rx is via DMA callback with circular buffer */
 103:../../DaisyExamples/libDaisy//src/hid/midi.h ****     inline void FlushRx() {}
 104:../../DaisyExamples/libDaisy//src/hid/midi.h **** 
 105:../../DaisyExamples/libDaisy//src/hid/midi.h ****     /** @brief sends the buffer of bytes out of the UART peripheral */
 106:../../DaisyExamples/libDaisy//src/hid/midi.h ****     inline void Tx(uint8_t* buff, size_t size) { uart_.PollTx(buff, size); }
 107:../../DaisyExamples/libDaisy//src/hid/midi.h **** 
 108:../../DaisyExamples/libDaisy//src/hid/midi.h ****   private:
 109:../../DaisyExamples/libDaisy//src/hid/midi.h ****     UartHandler         uart_;
 110:../../DaisyExamples/libDaisy//src/hid/midi.h ****     uint8_t*            rx_buffer;
 111:../../DaisyExamples/libDaisy//src/hid/midi.h ****     size_t              rx_buffer_size;
 112:../../DaisyExamples/libDaisy//src/hid/midi.h ****     void*               parse_context_;
 113:../../DaisyExamples/libDaisy//src/hid/midi.h ****     MidiRxParseCallback parse_callback_;
 114:../../DaisyExamples/libDaisy//src/hid/midi.h **** 
 115:../../DaisyExamples/libDaisy//src/hid/midi.h ****     /** Static callback for Uart MIDI that occurs when
 116:../../DaisyExamples/libDaisy//src/hid/midi.h ****          *  new data is available from the peripheral.
 117:../../DaisyExamples/libDaisy//src/hid/midi.h ****          *  The new data is transferred from the peripheral to the
 118:../../DaisyExamples/libDaisy//src/hid/midi.h ****          *  MIDI instance's byte FIFO that feeds the MIDI parser.
 119:../../DaisyExamples/libDaisy//src/hid/midi.h ****          *
 120:../../DaisyExamples/libDaisy//src/hid/midi.h ****          *  TODO: Handle UartHandler errors better/at all.
 121:../../DaisyExamples/libDaisy//src/hid/midi.h ****          *  (If there is a UART error, there's not really any recovery
 122:../../DaisyExamples/libDaisy//src/hid/midi.h ****          *  option at the moment)
 123:../../DaisyExamples/libDaisy//src/hid/midi.h ****          */
 124:../../DaisyExamples/libDaisy//src/hid/midi.h ****     static void rxCallback(uint8_t*            data,
 125:../../DaisyExamples/libDaisy//src/hid/midi.h ****                            size_t              size,
 126:../../DaisyExamples/libDaisy//src/hid/midi.h ****                            void*               context,
 127:../../DaisyExamples/libDaisy//src/hid/midi.h ****                            UartHandler::Result res)
 128:../../DaisyExamples/libDaisy//src/hid/midi.h ****     {
 129:../../DaisyExamples/libDaisy//src/hid/midi.h ****         /** Read context as transport type */
 130:../../DaisyExamples/libDaisy//src/hid/midi.h ****         MidiUartTransport* transport
 131:../../DaisyExamples/libDaisy//src/hid/midi.h ****             = reinterpret_cast<MidiUartTransport*>(context);
 132:../../DaisyExamples/libDaisy//src/hid/midi.h ****         if(res == UartHandler::Result::OK)
 133:../../DaisyExamples/libDaisy//src/hid/midi.h ****         {
 134:../../DaisyExamples/libDaisy//src/hid/midi.h ****             if(transport->parse_callback_)
 135:../../DaisyExamples/libDaisy//src/hid/midi.h ****             {
ARM GAS  /var/folders/hp/45mn71hd0ps5f5pnytxy5bt00000gn/T//ccpJ9dAn.s 			page 6


 136:../../DaisyExamples/libDaisy//src/hid/midi.h ****                 transport->parse_callback_(
 137:../../DaisyExamples/libDaisy//src/hid/midi.h ****                     data, size, transport->parse_context_);
 138:../../DaisyExamples/libDaisy//src/hid/midi.h ****             }
 139:../../DaisyExamples/libDaisy//src/hid/midi.h ****         }
 140:../../DaisyExamples/libDaisy//src/hid/midi.h ****     }
 141:../../DaisyExamples/libDaisy//src/hid/midi.h **** };
 142:../../DaisyExamples/libDaisy//src/hid/midi.h **** 
 143:../../DaisyExamples/libDaisy//src/hid/midi.h **** /**
 144:../../DaisyExamples/libDaisy//src/hid/midi.h ****     @brief Simple MIDI Handler \n
 145:../../DaisyExamples/libDaisy//src/hid/midi.h ****     Parses bytes from an input into valid MidiEvents. \n
 146:../../DaisyExamples/libDaisy//src/hid/midi.h ****     The MidiEvents fill a FIFO queue that the user can pop messages from.
 147:../../DaisyExamples/libDaisy//src/hid/midi.h ****     @author shensley
 148:../../DaisyExamples/libDaisy//src/hid/midi.h ****     @date March 2020
 149:../../DaisyExamples/libDaisy//src/hid/midi.h ****     @ingroup midi
 150:../../DaisyExamples/libDaisy//src/hid/midi.h **** */
 151:../../DaisyExamples/libDaisy//src/hid/midi.h **** template <typename Transport>
 152:../../DaisyExamples/libDaisy//src/hid/midi.h **** class MidiHandler
 153:../../DaisyExamples/libDaisy//src/hid/midi.h **** {
 154:../../DaisyExamples/libDaisy//src/hid/midi.h ****   public:
 155:../../DaisyExamples/libDaisy//src/hid/midi.h ****     MidiHandler() {}
 156:../../DaisyExamples/libDaisy//src/hid/midi.h ****     ~MidiHandler() {}
  68              		.loc 4 156 5 view .LVU5
  69              	.LBB323:
  70              	.LBI323:
  71              		.file 5 "../../DaisyExamples/libDaisy//src/util/FIFO.h"
   1:../../DaisyExamples/libDaisy//src/util/FIFO.h **** #pragma once
   2:../../DaisyExamples/libDaisy//src/util/FIFO.h **** 
   3:../../DaisyExamples/libDaisy//src/util/FIFO.h **** #include <stdint.h>
   4:../../DaisyExamples/libDaisy//src/util/FIFO.h **** #include <stddef.h>
   5:../../DaisyExamples/libDaisy//src/util/FIFO.h **** #include <initializer_list>
   6:../../DaisyExamples/libDaisy//src/util/FIFO.h **** 
   7:../../DaisyExamples/libDaisy//src/util/FIFO.h **** namespace daisy
   8:../../DaisyExamples/libDaisy//src/util/FIFO.h **** {
   9:../../DaisyExamples/libDaisy//src/util/FIFO.h **** /** Capacity-independent base class for FIFO. Use FIFO instead. */
  10:../../DaisyExamples/libDaisy//src/util/FIFO.h **** template <typename T>
  11:../../DaisyExamples/libDaisy//src/util/FIFO.h **** class FIFOBase
  12:../../DaisyExamples/libDaisy//src/util/FIFO.h **** {
  13:../../DaisyExamples/libDaisy//src/util/FIFO.h ****   protected:
  14:../../DaisyExamples/libDaisy//src/util/FIFO.h ****     FIFOBase(T* buffer, size_t bufferSize)
  15:../../DaisyExamples/libDaisy//src/util/FIFO.h ****     : buffer_(buffer), bufferSize_(bufferSize), bufferIn_(0), bufferOut_(0)
  16:../../DaisyExamples/libDaisy//src/util/FIFO.h ****     {
  17:../../DaisyExamples/libDaisy//src/util/FIFO.h ****     }
  18:../../DaisyExamples/libDaisy//src/util/FIFO.h **** 
  19:../../DaisyExamples/libDaisy//src/util/FIFO.h ****     FIFOBase(T* buffer, size_t bufferSize, std::initializer_list<T> valuesToAdd)
  20:../../DaisyExamples/libDaisy//src/util/FIFO.h ****     : buffer_(buffer), bufferSize_(bufferSize), bufferIn_(0), bufferOut_(0)
  21:../../DaisyExamples/libDaisy//src/util/FIFO.h ****     {
  22:../../DaisyExamples/libDaisy//src/util/FIFO.h ****         PushBack(valuesToAdd);
  23:../../DaisyExamples/libDaisy//src/util/FIFO.h ****     }
  24:../../DaisyExamples/libDaisy//src/util/FIFO.h **** 
  25:../../DaisyExamples/libDaisy//src/util/FIFO.h ****   public:
  26:../../DaisyExamples/libDaisy//src/util/FIFO.h ****     /** Copies all elements from another FIFO */
  27:../../DaisyExamples/libDaisy//src/util/FIFO.h ****     FIFOBase<T>& operator=(const FIFOBase<T>& other)
  28:../../DaisyExamples/libDaisy//src/util/FIFO.h ****     {
  29:../../DaisyExamples/libDaisy//src/util/FIFO.h ****         bufferIn_ = bufferOut_ = 0;
  30:../../DaisyExamples/libDaisy//src/util/FIFO.h ****         if(!other.IsEmpty())
  31:../../DaisyExamples/libDaisy//src/util/FIFO.h ****         {
  32:../../DaisyExamples/libDaisy//src/util/FIFO.h ****             int readPtr = other.bufferOut_;
ARM GAS  /var/folders/hp/45mn71hd0ps5f5pnytxy5bt00000gn/T//ccpJ9dAn.s 			page 7


  33:../../DaisyExamples/libDaisy//src/util/FIFO.h ****             while((readPtr != other.bufferIn_) && (bufferIn_ < bufferSize_))
  34:../../DaisyExamples/libDaisy//src/util/FIFO.h ****             {
  35:../../DaisyExamples/libDaisy//src/util/FIFO.h ****                 buffer_[bufferIn_++] = other.buffer_[readPtr++];
  36:../../DaisyExamples/libDaisy//src/util/FIFO.h ****                 if(readPtr >= other.bufferSize_)
  37:../../DaisyExamples/libDaisy//src/util/FIFO.h ****                     readPtr -= other.bufferSize_;
  38:../../DaisyExamples/libDaisy//src/util/FIFO.h ****             }
  39:../../DaisyExamples/libDaisy//src/util/FIFO.h ****         }
  40:../../DaisyExamples/libDaisy//src/util/FIFO.h ****         return *this;
  41:../../DaisyExamples/libDaisy//src/util/FIFO.h ****     }
  42:../../DaisyExamples/libDaisy//src/util/FIFO.h ****     ~FIFOBase() {}
  43:../../DaisyExamples/libDaisy//src/util/FIFO.h **** 
  44:../../DaisyExamples/libDaisy//src/util/FIFO.h ****     /** Removes all elements from the FIFO */
  45:../../DaisyExamples/libDaisy//src/util/FIFO.h ****     void Clear() { bufferIn_ = bufferOut_ = 0; }
  46:../../DaisyExamples/libDaisy//src/util/FIFO.h **** 
  47:../../DaisyExamples/libDaisy//src/util/FIFO.h ****     /** Adds an element to the back of the buffer, returning true on
  48:../../DaisyExamples/libDaisy//src/util/FIFO.h ****         success */
  49:../../DaisyExamples/libDaisy//src/util/FIFO.h ****     bool PushBack(const T& elementToAdd)
  50:../../DaisyExamples/libDaisy//src/util/FIFO.h ****     {
  51:../../DaisyExamples/libDaisy//src/util/FIFO.h ****         if(!IsFull())
  52:../../DaisyExamples/libDaisy//src/util/FIFO.h ****         {
  53:../../DaisyExamples/libDaisy//src/util/FIFO.h ****             buffer_[bufferIn_++] = elementToAdd;
  54:../../DaisyExamples/libDaisy//src/util/FIFO.h ****             if(bufferIn_ >= bufferSize_)
  55:../../DaisyExamples/libDaisy//src/util/FIFO.h ****                 bufferIn_ -= bufferSize_;
  56:../../DaisyExamples/libDaisy//src/util/FIFO.h ****             return true;
  57:../../DaisyExamples/libDaisy//src/util/FIFO.h ****         }
  58:../../DaisyExamples/libDaisy//src/util/FIFO.h ****         return false;
  59:../../DaisyExamples/libDaisy//src/util/FIFO.h ****     }
  60:../../DaisyExamples/libDaisy//src/util/FIFO.h **** 
  61:../../DaisyExamples/libDaisy//src/util/FIFO.h ****     /** Adds multiple elements and returns the number of elements that were added */
  62:../../DaisyExamples/libDaisy//src/util/FIFO.h ****     int PushBack(std::initializer_list<T> valuesToAdd)
  63:../../DaisyExamples/libDaisy//src/util/FIFO.h ****     {
  64:../../DaisyExamples/libDaisy//src/util/FIFO.h ****         int numAdded = 0;
  65:../../DaisyExamples/libDaisy//src/util/FIFO.h ****         for(const auto& v : valuesToAdd)
  66:../../DaisyExamples/libDaisy//src/util/FIFO.h ****         {
  67:../../DaisyExamples/libDaisy//src/util/FIFO.h ****             if(IsFull())
  68:../../DaisyExamples/libDaisy//src/util/FIFO.h ****                 return numAdded;
  69:../../DaisyExamples/libDaisy//src/util/FIFO.h **** 
  70:../../DaisyExamples/libDaisy//src/util/FIFO.h ****             PushBack(v);
  71:../../DaisyExamples/libDaisy//src/util/FIFO.h ****             numAdded++;
  72:../../DaisyExamples/libDaisy//src/util/FIFO.h ****         }
  73:../../DaisyExamples/libDaisy//src/util/FIFO.h ****         return numAdded;
  74:../../DaisyExamples/libDaisy//src/util/FIFO.h ****     }
  75:../../DaisyExamples/libDaisy//src/util/FIFO.h **** 
  76:../../DaisyExamples/libDaisy//src/util/FIFO.h ****     /** returns a reference to the last element */
  77:../../DaisyExamples/libDaisy//src/util/FIFO.h ****     T& Back()
  78:../../DaisyExamples/libDaisy//src/util/FIFO.h ****     {
  79:../../DaisyExamples/libDaisy//src/util/FIFO.h ****         if(IsEmpty())
  80:../../DaisyExamples/libDaisy//src/util/FIFO.h ****             // invalid, but better not pass a temporary T() object as a reference...
  81:../../DaisyExamples/libDaisy//src/util/FIFO.h ****             return buffer_[0];
  82:../../DaisyExamples/libDaisy//src/util/FIFO.h ****         int idx = bufferIn_ - 1;
  83:../../DaisyExamples/libDaisy//src/util/FIFO.h ****         if(idx < 0)
  84:../../DaisyExamples/libDaisy//src/util/FIFO.h ****             idx += bufferSize_;
  85:../../DaisyExamples/libDaisy//src/util/FIFO.h ****         return buffer_[idx];
  86:../../DaisyExamples/libDaisy//src/util/FIFO.h ****     }
  87:../../DaisyExamples/libDaisy//src/util/FIFO.h **** 
  88:../../DaisyExamples/libDaisy//src/util/FIFO.h ****     /** returns a reference to the last element */
  89:../../DaisyExamples/libDaisy//src/util/FIFO.h ****     const T& Back() const
ARM GAS  /var/folders/hp/45mn71hd0ps5f5pnytxy5bt00000gn/T//ccpJ9dAn.s 			page 8


  90:../../DaisyExamples/libDaisy//src/util/FIFO.h ****     {
  91:../../DaisyExamples/libDaisy//src/util/FIFO.h ****         if(IsEmpty())
  92:../../DaisyExamples/libDaisy//src/util/FIFO.h ****             // invalid, but better not pass a temporary T() object as a reference...
  93:../../DaisyExamples/libDaisy//src/util/FIFO.h ****             return buffer_[0];
  94:../../DaisyExamples/libDaisy//src/util/FIFO.h ****         int idx = bufferIn_ - 1;
  95:../../DaisyExamples/libDaisy//src/util/FIFO.h ****         if(idx < 0)
  96:../../DaisyExamples/libDaisy//src/util/FIFO.h ****             idx += bufferSize_;
  97:../../DaisyExamples/libDaisy//src/util/FIFO.h ****         return buffer_[idx];
  98:../../DaisyExamples/libDaisy//src/util/FIFO.h ****     }
  99:../../DaisyExamples/libDaisy//src/util/FIFO.h **** 
 100:../../DaisyExamples/libDaisy//src/util/FIFO.h ****     /** removes and returns an element from the front of the buffer */
 101:../../DaisyExamples/libDaisy//src/util/FIFO.h ****     T PopFront()
 102:../../DaisyExamples/libDaisy//src/util/FIFO.h ****     {
 103:../../DaisyExamples/libDaisy//src/util/FIFO.h ****         if(IsEmpty())
 104:../../DaisyExamples/libDaisy//src/util/FIFO.h ****             return T();
 105:../../DaisyExamples/libDaisy//src/util/FIFO.h ****         else
 106:../../DaisyExamples/libDaisy//src/util/FIFO.h ****         {
 107:../../DaisyExamples/libDaisy//src/util/FIFO.h ****             const auto result = buffer_[bufferOut_];
 108:../../DaisyExamples/libDaisy//src/util/FIFO.h ****             bufferOut_++;
 109:../../DaisyExamples/libDaisy//src/util/FIFO.h ****             if(bufferOut_ >= bufferSize_)
 110:../../DaisyExamples/libDaisy//src/util/FIFO.h ****                 bufferOut_ -= bufferSize_;
 111:../../DaisyExamples/libDaisy//src/util/FIFO.h ****             return result;
 112:../../DaisyExamples/libDaisy//src/util/FIFO.h ****         }
 113:../../DaisyExamples/libDaisy//src/util/FIFO.h ****     }
 114:../../DaisyExamples/libDaisy//src/util/FIFO.h **** 
 115:../../DaisyExamples/libDaisy//src/util/FIFO.h ****     /** returns a copy of the first element */
 116:../../DaisyExamples/libDaisy//src/util/FIFO.h ****     T& Front()
 117:../../DaisyExamples/libDaisy//src/util/FIFO.h ****     {
 118:../../DaisyExamples/libDaisy//src/util/FIFO.h ****         if(IsEmpty())
 119:../../DaisyExamples/libDaisy//src/util/FIFO.h ****             // invalid, but better not pass a temporary T() object as a reference...
 120:../../DaisyExamples/libDaisy//src/util/FIFO.h ****             return buffer_[0];
 121:../../DaisyExamples/libDaisy//src/util/FIFO.h ****         return buffer_[bufferOut_];
 122:../../DaisyExamples/libDaisy//src/util/FIFO.h ****     }
 123:../../DaisyExamples/libDaisy//src/util/FIFO.h **** 
 124:../../DaisyExamples/libDaisy//src/util/FIFO.h ****     /** returns a reference to the first element */
 125:../../DaisyExamples/libDaisy//src/util/FIFO.h ****     const T& Front() const
 126:../../DaisyExamples/libDaisy//src/util/FIFO.h ****     {
 127:../../DaisyExamples/libDaisy//src/util/FIFO.h ****         if(IsEmpty())
 128:../../DaisyExamples/libDaisy//src/util/FIFO.h ****             // invalid, but better not pass a temporary T() object as a reference...
 129:../../DaisyExamples/libDaisy//src/util/FIFO.h ****             return buffer_[0];
 130:../../DaisyExamples/libDaisy//src/util/FIFO.h ****         return buffer_[bufferOut_];
 131:../../DaisyExamples/libDaisy//src/util/FIFO.h ****     }
 132:../../DaisyExamples/libDaisy//src/util/FIFO.h **** 
 133:../../DaisyExamples/libDaisy//src/util/FIFO.h ****     /** Returns true if the buffer contains an element equal to the provided value */
 134:../../DaisyExamples/libDaisy//src/util/FIFO.h ****     bool Contains(const T& element)
 135:../../DaisyExamples/libDaisy//src/util/FIFO.h ****     {
 136:../../DaisyExamples/libDaisy//src/util/FIFO.h ****         auto idx = bufferOut_;
 137:../../DaisyExamples/libDaisy//src/util/FIFO.h ****         while(idx != bufferIn_)
 138:../../DaisyExamples/libDaisy//src/util/FIFO.h ****         {
 139:../../DaisyExamples/libDaisy//src/util/FIFO.h ****             if(buffer_[idx] == element)
 140:../../DaisyExamples/libDaisy//src/util/FIFO.h ****                 return true;
 141:../../DaisyExamples/libDaisy//src/util/FIFO.h ****             idx++;
 142:../../DaisyExamples/libDaisy//src/util/FIFO.h ****             if(idx >= bufferSize_)
 143:../../DaisyExamples/libDaisy//src/util/FIFO.h ****                 idx -= bufferSize_;
 144:../../DaisyExamples/libDaisy//src/util/FIFO.h ****         }
 145:../../DaisyExamples/libDaisy//src/util/FIFO.h ****         return false;
 146:../../DaisyExamples/libDaisy//src/util/FIFO.h ****     }
ARM GAS  /var/folders/hp/45mn71hd0ps5f5pnytxy5bt00000gn/T//ccpJ9dAn.s 			page 9


 147:../../DaisyExamples/libDaisy//src/util/FIFO.h **** 
 148:../../DaisyExamples/libDaisy//src/util/FIFO.h ****     /** Returns the number of elements in the buffer that are equal to the provided value */
 149:../../DaisyExamples/libDaisy//src/util/FIFO.h ****     size_t CountEqualTo(const T& element)
 150:../../DaisyExamples/libDaisy//src/util/FIFO.h ****     {
 151:../../DaisyExamples/libDaisy//src/util/FIFO.h ****         size_t result = 0;
 152:../../DaisyExamples/libDaisy//src/util/FIFO.h ****         size_t idx    = bufferOut_;
 153:../../DaisyExamples/libDaisy//src/util/FIFO.h ****         while(idx != bufferIn_)
 154:../../DaisyExamples/libDaisy//src/util/FIFO.h ****         {
 155:../../DaisyExamples/libDaisy//src/util/FIFO.h ****             if(buffer_[idx] == element)
 156:../../DaisyExamples/libDaisy//src/util/FIFO.h ****                 result++;
 157:../../DaisyExamples/libDaisy//src/util/FIFO.h ****             idx++;
 158:../../DaisyExamples/libDaisy//src/util/FIFO.h ****             if(idx >= bufferSize_)
 159:../../DaisyExamples/libDaisy//src/util/FIFO.h ****                 idx -= bufferSize_;
 160:../../DaisyExamples/libDaisy//src/util/FIFO.h ****         }
 161:../../DaisyExamples/libDaisy//src/util/FIFO.h ****         return result;
 162:../../DaisyExamples/libDaisy//src/util/FIFO.h ****     }
 163:../../DaisyExamples/libDaisy//src/util/FIFO.h **** 
 164:../../DaisyExamples/libDaisy//src/util/FIFO.h ****     /** returns true, if the buffer is empty */
 165:../../DaisyExamples/libDaisy//src/util/FIFO.h ****     bool IsEmpty() const { return bufferIn_ == bufferOut_; }
 166:../../DaisyExamples/libDaisy//src/util/FIFO.h **** 
 167:../../DaisyExamples/libDaisy//src/util/FIFO.h ****     /** returns true, if the buffer is Full */
 168:../../DaisyExamples/libDaisy//src/util/FIFO.h ****     bool IsFull() const { return GetNumElements() == bufferSize_ - 1; }
 169:../../DaisyExamples/libDaisy//src/util/FIFO.h **** 
 170:../../DaisyExamples/libDaisy//src/util/FIFO.h ****     /** returns the number of elements in the buffer */
 171:../../DaisyExamples/libDaisy//src/util/FIFO.h ****     size_t GetNumElements() const
 172:../../DaisyExamples/libDaisy//src/util/FIFO.h ****     {
 173:../../DaisyExamples/libDaisy//src/util/FIFO.h ****         int32_t numElements = bufferIn_ - bufferOut_;
 174:../../DaisyExamples/libDaisy//src/util/FIFO.h ****         if(numElements < 0)
 175:../../DaisyExamples/libDaisy//src/util/FIFO.h ****             numElements += bufferSize_;
 176:../../DaisyExamples/libDaisy//src/util/FIFO.h ****         return size_t(numElements);
 177:../../DaisyExamples/libDaisy//src/util/FIFO.h ****     }
 178:../../DaisyExamples/libDaisy//src/util/FIFO.h **** 
 179:../../DaisyExamples/libDaisy//src/util/FIFO.h ****     /** inserts an element "idx" positions behind the first element and returns true if successful 
 180:../../DaisyExamples/libDaisy//src/util/FIFO.h ****     bool Insert(size_t idx, const T& element)
 181:../../DaisyExamples/libDaisy//src/util/FIFO.h ****     {
 182:../../DaisyExamples/libDaisy//src/util/FIFO.h ****         if(idx > GetNumElements())
 183:../../DaisyExamples/libDaisy//src/util/FIFO.h ****             return false;
 184:../../DaisyExamples/libDaisy//src/util/FIFO.h ****         if(IsFull())
 185:../../DaisyExamples/libDaisy//src/util/FIFO.h ****             return false;
 186:../../DaisyExamples/libDaisy//src/util/FIFO.h ****         if(idx == GetNumElements())
 187:../../DaisyExamples/libDaisy//src/util/FIFO.h ****         {
 188:../../DaisyExamples/libDaisy//src/util/FIFO.h ****             PushBack(element);
 189:../../DaisyExamples/libDaisy//src/util/FIFO.h ****             return true;
 190:../../DaisyExamples/libDaisy//src/util/FIFO.h ****         }
 191:../../DaisyExamples/libDaisy//src/util/FIFO.h ****         // copy last element
 192:../../DaisyExamples/libDaisy//src/util/FIFO.h ****         PushBack(Back());
 193:../../DaisyExamples/libDaisy//src/util/FIFO.h ****         // move remaining elements: n => n+1
 194:../../DaisyExamples/libDaisy//src/util/FIFO.h ****         for(int i = GetNumElements() - 2; i > int(idx); i--)
 195:../../DaisyExamples/libDaisy//src/util/FIFO.h ****             (*this)[i] = (*this)[i - 1];
 196:../../DaisyExamples/libDaisy//src/util/FIFO.h ****         // insert element
 197:../../DaisyExamples/libDaisy//src/util/FIFO.h ****         (*this)[idx] = element;
 198:../../DaisyExamples/libDaisy//src/util/FIFO.h ****         return true;
 199:../../DaisyExamples/libDaisy//src/util/FIFO.h ****     }
 200:../../DaisyExamples/libDaisy//src/util/FIFO.h **** 
 201:../../DaisyExamples/libDaisy//src/util/FIFO.h ****     /** removes the element "idx" positions behind the first element 
 202:../../DaisyExamples/libDaisy//src/util/FIFO.h ****      *  and returns true if successful */
 203:../../DaisyExamples/libDaisy//src/util/FIFO.h ****     bool Remove(size_t idx)
ARM GAS  /var/folders/hp/45mn71hd0ps5f5pnytxy5bt00000gn/T//ccpJ9dAn.s 			page 10


 204:../../DaisyExamples/libDaisy//src/util/FIFO.h ****     {
 205:../../DaisyExamples/libDaisy//src/util/FIFO.h ****         if(idx >= GetNumElements())
 206:../../DaisyExamples/libDaisy//src/util/FIFO.h ****             return false;
 207:../../DaisyExamples/libDaisy//src/util/FIFO.h **** 
 208:../../DaisyExamples/libDaisy//src/util/FIFO.h ****         size_t index = bufferOut_ + idx;
 209:../../DaisyExamples/libDaisy//src/util/FIFO.h ****         if(index >= bufferSize_)
 210:../../DaisyExamples/libDaisy//src/util/FIFO.h ****             index -= bufferSize_;
 211:../../DaisyExamples/libDaisy//src/util/FIFO.h ****         size_t nextIndex = index + 1;
 212:../../DaisyExamples/libDaisy//src/util/FIFO.h ****         if(nextIndex >= bufferSize_)
 213:../../DaisyExamples/libDaisy//src/util/FIFO.h ****             nextIndex -= bufferSize_;
 214:../../DaisyExamples/libDaisy//src/util/FIFO.h **** 
 215:../../DaisyExamples/libDaisy//src/util/FIFO.h ****         while(nextIndex != bufferIn_)
 216:../../DaisyExamples/libDaisy//src/util/FIFO.h ****         {
 217:../../DaisyExamples/libDaisy//src/util/FIFO.h ****             buffer_[index] = buffer_[nextIndex];
 218:../../DaisyExamples/libDaisy//src/util/FIFO.h ****             index++;
 219:../../DaisyExamples/libDaisy//src/util/FIFO.h ****             nextIndex++;
 220:../../DaisyExamples/libDaisy//src/util/FIFO.h ****             if(index >= bufferSize_)
 221:../../DaisyExamples/libDaisy//src/util/FIFO.h ****                 index -= bufferSize_;
 222:../../DaisyExamples/libDaisy//src/util/FIFO.h ****             if(nextIndex >= bufferSize_)
 223:../../DaisyExamples/libDaisy//src/util/FIFO.h ****                 nextIndex -= bufferSize_;
 224:../../DaisyExamples/libDaisy//src/util/FIFO.h ****         }
 225:../../DaisyExamples/libDaisy//src/util/FIFO.h **** 
 226:../../DaisyExamples/libDaisy//src/util/FIFO.h ****         int32_t nextBufferIn = int32_t(bufferIn_) - 1;
 227:../../DaisyExamples/libDaisy//src/util/FIFO.h ****         if(nextBufferIn < 0)
 228:../../DaisyExamples/libDaisy//src/util/FIFO.h ****             nextBufferIn += bufferSize_;
 229:../../DaisyExamples/libDaisy//src/util/FIFO.h ****         bufferIn_ = size_t(nextBufferIn);
 230:../../DaisyExamples/libDaisy//src/util/FIFO.h **** 
 231:../../DaisyExamples/libDaisy//src/util/FIFO.h ****         return true;
 232:../../DaisyExamples/libDaisy//src/util/FIFO.h ****     }
 233:../../DaisyExamples/libDaisy//src/util/FIFO.h **** 
 234:../../DaisyExamples/libDaisy//src/util/FIFO.h ****     /** removes all elements from the buffer for which
 235:../../DaisyExamples/libDaisy//src/util/FIFO.h ****         (buffer(index) == element) returns true and returns the number of
 236:../../DaisyExamples/libDaisy//src/util/FIFO.h ****         elements that were removed. */
 237:../../DaisyExamples/libDaisy//src/util/FIFO.h ****     size_t RemoveAllEqualTo(const T& element)
 238:../../DaisyExamples/libDaisy//src/util/FIFO.h ****     {
 239:../../DaisyExamples/libDaisy//src/util/FIFO.h ****         size_t numRemoved = 0;
 240:../../DaisyExamples/libDaisy//src/util/FIFO.h ****         int    idx        = GetNumElements() - 1;
 241:../../DaisyExamples/libDaisy//src/util/FIFO.h ****         while(idx >= 0)
 242:../../DaisyExamples/libDaisy//src/util/FIFO.h ****         {
 243:../../DaisyExamples/libDaisy//src/util/FIFO.h ****             if((*this)[idx] == element)
 244:../../DaisyExamples/libDaisy//src/util/FIFO.h ****             {
 245:../../DaisyExamples/libDaisy//src/util/FIFO.h ****                 numRemoved++;
 246:../../DaisyExamples/libDaisy//src/util/FIFO.h ****                 Remove(idx);
 247:../../DaisyExamples/libDaisy//src/util/FIFO.h ****                 // was that the last element?
 248:../../DaisyExamples/libDaisy//src/util/FIFO.h ****                 if(idx == int(GetNumElements()) - 1)
 249:../../DaisyExamples/libDaisy//src/util/FIFO.h ****                     idx--;
 250:../../DaisyExamples/libDaisy//src/util/FIFO.h ****             }
 251:../../DaisyExamples/libDaisy//src/util/FIFO.h ****             else
 252:../../DaisyExamples/libDaisy//src/util/FIFO.h ****                 idx--;
 253:../../DaisyExamples/libDaisy//src/util/FIFO.h ****         }
 254:../../DaisyExamples/libDaisy//src/util/FIFO.h ****         return numRemoved;
 255:../../DaisyExamples/libDaisy//src/util/FIFO.h ****     }
 256:../../DaisyExamples/libDaisy//src/util/FIFO.h **** 
 257:../../DaisyExamples/libDaisy//src/util/FIFO.h ****     /** returns the element "idx" positions behind the first element */
 258:../../DaisyExamples/libDaisy//src/util/FIFO.h ****     T& operator[](size_t idx)
 259:../../DaisyExamples/libDaisy//src/util/FIFO.h ****     {
 260:../../DaisyExamples/libDaisy//src/util/FIFO.h ****         if(idx >= GetNumElements())
ARM GAS  /var/folders/hp/45mn71hd0ps5f5pnytxy5bt00000gn/T//ccpJ9dAn.s 			page 11


 261:../../DaisyExamples/libDaisy//src/util/FIFO.h ****             // invalid, but better not pass a temporary T() object as a reference...
 262:../../DaisyExamples/libDaisy//src/util/FIFO.h ****             return buffer_[0];
 263:../../DaisyExamples/libDaisy//src/util/FIFO.h **** 
 264:../../DaisyExamples/libDaisy//src/util/FIFO.h ****         size_t index = bufferOut_ + idx;
 265:../../DaisyExamples/libDaisy//src/util/FIFO.h ****         if(index >= bufferSize_)
 266:../../DaisyExamples/libDaisy//src/util/FIFO.h ****             index -= bufferSize_;
 267:../../DaisyExamples/libDaisy//src/util/FIFO.h ****         return buffer_[index];
 268:../../DaisyExamples/libDaisy//src/util/FIFO.h ****     }
 269:../../DaisyExamples/libDaisy//src/util/FIFO.h **** 
 270:../../DaisyExamples/libDaisy//src/util/FIFO.h ****     /** returns the element "idx" positions behind the first element */
 271:../../DaisyExamples/libDaisy//src/util/FIFO.h ****     const T& operator[](size_t idx) const
 272:../../DaisyExamples/libDaisy//src/util/FIFO.h ****     {
 273:../../DaisyExamples/libDaisy//src/util/FIFO.h ****         if(idx >= GetNumElements())
 274:../../DaisyExamples/libDaisy//src/util/FIFO.h ****             // invalid, but better not pass a temporary T() object as a reference...
 275:../../DaisyExamples/libDaisy//src/util/FIFO.h ****             return buffer_[0];
 276:../../DaisyExamples/libDaisy//src/util/FIFO.h **** 
 277:../../DaisyExamples/libDaisy//src/util/FIFO.h ****         size_t index = bufferOut_ + idx;
 278:../../DaisyExamples/libDaisy//src/util/FIFO.h ****         if(index >= bufferSize_)
 279:../../DaisyExamples/libDaisy//src/util/FIFO.h ****             index -= bufferSize_;
 280:../../DaisyExamples/libDaisy//src/util/FIFO.h ****         return buffer_[index];
 281:../../DaisyExamples/libDaisy//src/util/FIFO.h ****     }
 282:../../DaisyExamples/libDaisy//src/util/FIFO.h **** 
 283:../../DaisyExamples/libDaisy//src/util/FIFO.h ****     /** returns the total capacity */
 284:../../DaisyExamples/libDaisy//src/util/FIFO.h ****     size_t GetCapacity() const { return bufferSize_ - 1; }
 285:../../DaisyExamples/libDaisy//src/util/FIFO.h **** 
 286:../../DaisyExamples/libDaisy//src/util/FIFO.h ****   private:
 287:../../DaisyExamples/libDaisy//src/util/FIFO.h ****     FIFOBase(const FIFOBase<T>&) {} // non copyable
 288:../../DaisyExamples/libDaisy//src/util/FIFO.h **** 
 289:../../DaisyExamples/libDaisy//src/util/FIFO.h ****   private:
 290:../../DaisyExamples/libDaisy//src/util/FIFO.h ****     T*           buffer_;
 291:../../DaisyExamples/libDaisy//src/util/FIFO.h ****     const size_t bufferSize_;
 292:../../DaisyExamples/libDaisy//src/util/FIFO.h ****     size_t       bufferIn_;
 293:../../DaisyExamples/libDaisy//src/util/FIFO.h ****     size_t       bufferOut_;
 294:../../DaisyExamples/libDaisy//src/util/FIFO.h **** };
 295:../../DaisyExamples/libDaisy//src/util/FIFO.h **** 
 296:../../DaisyExamples/libDaisy//src/util/FIFO.h **** /** A simple FIFO ring buffer with a fixed size. */
 297:../../DaisyExamples/libDaisy//src/util/FIFO.h **** template <typename T, size_t capacity>
 298:../../DaisyExamples/libDaisy//src/util/FIFO.h **** class FIFO : public FIFOBase<T>
  72              		.loc 5 298 7 view .LVU6
  73              	.LBB324:
  74              	.LBI324:
  42:../../DaisyExamples/libDaisy//src/util/FIFO.h **** 
  75              		.loc 5 42 5 view .LVU7
  42:../../DaisyExamples/libDaisy//src/util/FIFO.h **** 
  76              		.loc 5 42 5 is_stmt 0 view .LVU8
  77              	.LBE324:
  78              	.LBE323:
  79              	.LBB325:
  80              	.LBI325:
  81              		.file 6 "../../DaisyExamples/libDaisy//src/hid/midi_parser.h"
   1:../../DaisyExamples/libDaisy//src/hid/midi_parser.h **** #pragma once
   2:../../DaisyExamples/libDaisy//src/hid/midi_parser.h **** #ifndef DSY_MIDI_PARSER_H
   3:../../DaisyExamples/libDaisy//src/hid/midi_parser.h **** #define DSY_MIDI_PARSER_H
   4:../../DaisyExamples/libDaisy//src/hid/midi_parser.h **** 
   5:../../DaisyExamples/libDaisy//src/hid/midi_parser.h **** #include <stdint.h>
   6:../../DaisyExamples/libDaisy//src/hid/midi_parser.h **** #include <stdlib.h>
   7:../../DaisyExamples/libDaisy//src/hid/midi_parser.h **** #include "hid/MidiEvent.h"
ARM GAS  /var/folders/hp/45mn71hd0ps5f5pnytxy5bt00000gn/T//ccpJ9dAn.s 			page 12


   8:../../DaisyExamples/libDaisy//src/hid/midi_parser.h **** 
   9:../../DaisyExamples/libDaisy//src/hid/midi_parser.h **** namespace daisy
  10:../../DaisyExamples/libDaisy//src/hid/midi_parser.h **** {
  11:../../DaisyExamples/libDaisy//src/hid/midi_parser.h **** /** @brief   Utility class for parsing raw byte streams into MIDI messages
  12:../../DaisyExamples/libDaisy//src/hid/midi_parser.h ****  *  @details Implemented as a state machine designed to parse one byte at a time
  13:../../DaisyExamples/libDaisy//src/hid/midi_parser.h ****  *  @ingroup midi
  14:../../DaisyExamples/libDaisy//src/hid/midi_parser.h ****  */
  15:../../DaisyExamples/libDaisy//src/hid/midi_parser.h **** class MidiParser
  16:../../DaisyExamples/libDaisy//src/hid/midi_parser.h **** {
  17:../../DaisyExamples/libDaisy//src/hid/midi_parser.h ****   public:
  18:../../DaisyExamples/libDaisy//src/hid/midi_parser.h ****     MidiParser(){};
  19:../../DaisyExamples/libDaisy//src/hid/midi_parser.h ****     ~MidiParser() {}
  82              		.loc 6 19 5 is_stmt 1 view .LVU9
  83              		.loc 6 19 5 is_stmt 0 view .LVU10
  84              	.LBE325:
  85              	.LBB326:
  86              	.LBI326:
  32:../../DaisyExamples/libDaisy//src/hid/midi.h **** 
  87              		.loc 4 32 5 is_stmt 1 view .LVU11
  32:../../DaisyExamples/libDaisy//src/hid/midi.h **** 
  88              		.loc 4 32 5 is_stmt 0 view .LVU12
  89              	.LBE326:
  90              	.LBE322:
  91              	.LBB327:
  92              	.LBI327:
  93              		.file 7 "../../DaisyExamples/libDaisy//src/hid/rgb_led.h"
   1:../../DaisyExamples/libDaisy//src/hid/rgb_led.h **** #pragma once
   2:../../DaisyExamples/libDaisy//src/hid/rgb_led.h **** #ifndef DSY_RGB_LED_H
   3:../../DaisyExamples/libDaisy//src/hid/rgb_led.h **** #define DSY_RGB_LED_H
   4:../../DaisyExamples/libDaisy//src/hid/rgb_led.h **** #include "hid/led.h"
   5:../../DaisyExamples/libDaisy//src/hid/rgb_led.h **** #include "util/color.h"
   6:../../DaisyExamples/libDaisy//src/hid/rgb_led.h **** 
   7:../../DaisyExamples/libDaisy//src/hid/rgb_led.h **** namespace daisy
   8:../../DaisyExamples/libDaisy//src/hid/rgb_led.h **** {
   9:../../DaisyExamples/libDaisy//src/hid/rgb_led.h **** /** @addtogroup feedback
  10:../../DaisyExamples/libDaisy//src/hid/rgb_led.h ****     @{
  11:../../DaisyExamples/libDaisy//src/hid/rgb_led.h **** */
  12:../../DaisyExamples/libDaisy//src/hid/rgb_led.h **** 
  13:../../DaisyExamples/libDaisy//src/hid/rgb_led.h **** /** 3x LEDs configured as an RGB for ease of use. */
  14:../../DaisyExamples/libDaisy//src/hid/rgb_led.h **** class RgbLed
  15:../../DaisyExamples/libDaisy//src/hid/rgb_led.h **** {
  16:../../DaisyExamples/libDaisy//src/hid/rgb_led.h ****   public:
  17:../../DaisyExamples/libDaisy//src/hid/rgb_led.h ****     RgbLed() {}
  18:../../DaisyExamples/libDaisy//src/hid/rgb_led.h ****     ~RgbLed() {}
  94              		.loc 7 18 5 is_stmt 1 view .LVU13
  95              	.LBB328:
  96              	.LBI328:
  97              		.file 8 "../../DaisyExamples/libDaisy//src/hid/led.h"
   1:../../DaisyExamples/libDaisy//src/hid/led.h **** 
   2:../../DaisyExamples/libDaisy//src/hid/led.h **** #pragma once
   3:../../DaisyExamples/libDaisy//src/hid/led.h **** #ifndef DSY_LED_H
   4:../../DaisyExamples/libDaisy//src/hid/led.h **** #define DSY_LED_H
   5:../../DaisyExamples/libDaisy//src/hid/led.h **** #include "daisy_core.h"
   6:../../DaisyExamples/libDaisy//src/hid/led.h **** #include "per/gpio.h"
   7:../../DaisyExamples/libDaisy//src/hid/led.h **** 
   8:../../DaisyExamples/libDaisy//src/hid/led.h **** /* TODO - Get this set up to work with the dev_leddriver stuff as well
   9:../../DaisyExamples/libDaisy//src/hid/led.h **** - Setup Hardware PWM for pins that have it
ARM GAS  /var/folders/hp/45mn71hd0ps5f5pnytxy5bt00000gn/T//ccpJ9dAn.s 			page 13


  10:../../DaisyExamples/libDaisy//src/hid/led.h **** */
  11:../../DaisyExamples/libDaisy//src/hid/led.h **** 
  12:../../DaisyExamples/libDaisy//src/hid/led.h **** namespace daisy
  13:../../DaisyExamples/libDaisy//src/hid/led.h **** {
  14:../../DaisyExamples/libDaisy//src/hid/led.h **** /**
  15:../../DaisyExamples/libDaisy//src/hid/led.h ****     @brief LED Class providing simple Software PWM ability, etc \n 
  16:../../DaisyExamples/libDaisy//src/hid/led.h ****     Eventually this will work with hardware PWM, and external LED Driver devices as well.
  17:../../DaisyExamples/libDaisy//src/hid/led.h ****     @author shensley
  18:../../DaisyExamples/libDaisy//src/hid/led.h ****     @date March 2020
  19:../../DaisyExamples/libDaisy//src/hid/led.h ****     @ingroup feedback
  20:../../DaisyExamples/libDaisy//src/hid/led.h **** */
  21:../../DaisyExamples/libDaisy//src/hid/led.h **** class Led
  22:../../DaisyExamples/libDaisy//src/hid/led.h **** {
  23:../../DaisyExamples/libDaisy//src/hid/led.h ****   public:
  24:../../DaisyExamples/libDaisy//src/hid/led.h ****     Led() {}
  25:../../DaisyExamples/libDaisy//src/hid/led.h ****     ~Led() {}
  98              		.loc 8 25 5 view .LVU14
  99              		.loc 8 25 5 is_stmt 0 view .LVU15
 100              	.LBE328:
 101              	.LBB329:
 102              	.LBI329:
 103              		.loc 8 25 5 is_stmt 1 view .LVU16
 104              		.loc 8 25 5 is_stmt 0 view .LVU17
 105              	.LBE329:
 106              	.LBB330:
 107              	.LBI330:
 108              		.loc 8 25 5 is_stmt 1 view .LVU18
 109              		.loc 8 25 5 is_stmt 0 view .LVU19
 110              	.LBE330:
 111              	.LBE327:
 112              	.LBB331:
 113              	.LBI331:
 114              		.loc 7 18 5 is_stmt 1 view .LVU20
 115              	.LBB332:
 116              	.LBI332:
 117              		.loc 8 25 5 view .LVU21
 118              		.loc 8 25 5 is_stmt 0 view .LVU22
 119              	.LBE332:
 120              	.LBB333:
 121              	.LBI333:
 122              		.loc 8 25 5 is_stmt 1 view .LVU23
 123              		.loc 8 25 5 is_stmt 0 view .LVU24
 124              	.LBE333:
 125              	.LBB334:
 126              	.LBI334:
 127              		.loc 8 25 5 is_stmt 1 view .LVU25
 128              		.loc 8 25 5 is_stmt 0 view .LVU26
 129              	.LBE334:
 130              	.LBE331:
 131              	.LBB335:
 132              	.LBI335:
 133              		.file 9 "../../DaisyExamples/libDaisy//src/hid/switch.h"
   1:../../DaisyExamples/libDaisy//src/hid/switch.h **** #pragma once
   2:../../DaisyExamples/libDaisy//src/hid/switch.h **** #ifndef DSY_SWITCH_H
   3:../../DaisyExamples/libDaisy//src/hid/switch.h **** #define DSY_SWITCH_H
   4:../../DaisyExamples/libDaisy//src/hid/switch.h **** #include "daisy_core.h"
   5:../../DaisyExamples/libDaisy//src/hid/switch.h **** #include "per/gpio.h"
ARM GAS  /var/folders/hp/45mn71hd0ps5f5pnytxy5bt00000gn/T//ccpJ9dAn.s 			page 14


   6:../../DaisyExamples/libDaisy//src/hid/switch.h **** #include "sys/system.h"
   7:../../DaisyExamples/libDaisy//src/hid/switch.h **** 
   8:../../DaisyExamples/libDaisy//src/hid/switch.h **** namespace daisy
   9:../../DaisyExamples/libDaisy//src/hid/switch.h **** {
  10:../../DaisyExamples/libDaisy//src/hid/switch.h **** /** 
  11:../../DaisyExamples/libDaisy//src/hid/switch.h ****     Generic Class for handling momentary/latching switches \n 
  12:../../DaisyExamples/libDaisy//src/hid/switch.h ****     Inspired/influenced by Mutable Instruments (pichenettes) Switch classes
  13:../../DaisyExamples/libDaisy//src/hid/switch.h ****     @author Stephen Hensley
  14:../../DaisyExamples/libDaisy//src/hid/switch.h ****     @date December 2019
  15:../../DaisyExamples/libDaisy//src/hid/switch.h ****     @ingroup controls
  16:../../DaisyExamples/libDaisy//src/hid/switch.h **** */
  17:../../DaisyExamples/libDaisy//src/hid/switch.h **** class Switch
  18:../../DaisyExamples/libDaisy//src/hid/switch.h **** {
  19:../../DaisyExamples/libDaisy//src/hid/switch.h ****   public:
  20:../../DaisyExamples/libDaisy//src/hid/switch.h ****     /** Specifies the expected behavior of the switch */
  21:../../DaisyExamples/libDaisy//src/hid/switch.h ****     enum Type
  22:../../DaisyExamples/libDaisy//src/hid/switch.h ****     {
  23:../../DaisyExamples/libDaisy//src/hid/switch.h ****         TYPE_TOGGLE,    /**< & */
  24:../../DaisyExamples/libDaisy//src/hid/switch.h ****         TYPE_MOMENTARY, /**< & */
  25:../../DaisyExamples/libDaisy//src/hid/switch.h ****     };
  26:../../DaisyExamples/libDaisy//src/hid/switch.h ****     /** Specifies whether the pressed is HIGH or LOW. */
  27:../../DaisyExamples/libDaisy//src/hid/switch.h ****     enum Polarity
  28:../../DaisyExamples/libDaisy//src/hid/switch.h ****     {
  29:../../DaisyExamples/libDaisy//src/hid/switch.h ****         POLARITY_NORMAL,   /**< & */
  30:../../DaisyExamples/libDaisy//src/hid/switch.h ****         POLARITY_INVERTED, /**< & */
  31:../../DaisyExamples/libDaisy//src/hid/switch.h ****     };
  32:../../DaisyExamples/libDaisy//src/hid/switch.h **** 
  33:../../DaisyExamples/libDaisy//src/hid/switch.h ****     /** Specifies whether to use built-in Pull Up/Down resistors to hold button at a given state wh
  34:../../DaisyExamples/libDaisy//src/hid/switch.h ****     enum Pull
  35:../../DaisyExamples/libDaisy//src/hid/switch.h ****     {
  36:../../DaisyExamples/libDaisy//src/hid/switch.h ****         PULL_UP,   /**< & */
  37:../../DaisyExamples/libDaisy//src/hid/switch.h ****         PULL_DOWN, /**< & */
  38:../../DaisyExamples/libDaisy//src/hid/switch.h ****         PULL_NONE, /**< & */
  39:../../DaisyExamples/libDaisy//src/hid/switch.h ****     };
  40:../../DaisyExamples/libDaisy//src/hid/switch.h **** 
  41:../../DaisyExamples/libDaisy//src/hid/switch.h ****     Switch() {}
  42:../../DaisyExamples/libDaisy//src/hid/switch.h ****     ~Switch() {}
 134              		.loc 9 42 5 is_stmt 1 view .LVU27
 135              		.loc 9 42 5 is_stmt 0 view .LVU28
 136              	.LBE335:
 137              	.LBB336:
 138              	.LBI336:
 139              		.loc 9 42 5 is_stmt 1 view .LVU29
 140              		.loc 9 42 5 is_stmt 0 view .LVU30
 141              	.LBE336:
 142              	.LBB337:
 143              	.LBI337:
 144              		.loc 2 23 5 is_stmt 1 view .LVU31
 145              		.loc 2 23 5 is_stmt 0 view .LVU32
 146              	.LBE337:
 147              	.LBB338:
 148              	.LBI338:
 149              		.loc 2 23 5 is_stmt 1 view .LVU33
 150              		.loc 2 23 5 is_stmt 0 view .LVU34
 151              	.LBE338:
 152              	.LBB339:
 153              	.LBI339:
ARM GAS  /var/folders/hp/45mn71hd0ps5f5pnytxy5bt00000gn/T//ccpJ9dAn.s 			page 15


 154              		.file 10 "../../DaisyExamples/libDaisy//src/hid/encoder.h"
   1:../../DaisyExamples/libDaisy//src/hid/encoder.h **** #pragma once
   2:../../DaisyExamples/libDaisy//src/hid/encoder.h **** #ifndef DSY_ENCODER_H
   3:../../DaisyExamples/libDaisy//src/hid/encoder.h **** #define DSY_ENCODER_H
   4:../../DaisyExamples/libDaisy//src/hid/encoder.h **** #include "daisy_core.h"
   5:../../DaisyExamples/libDaisy//src/hid/encoder.h **** #include "per/gpio.h"
   6:../../DaisyExamples/libDaisy//src/hid/encoder.h **** #include "hid/switch.h"
   7:../../DaisyExamples/libDaisy//src/hid/encoder.h **** 
   8:../../DaisyExamples/libDaisy//src/hid/encoder.h **** namespace daisy
   9:../../DaisyExamples/libDaisy//src/hid/encoder.h **** {
  10:../../DaisyExamples/libDaisy//src/hid/encoder.h **** /** 
  11:../../DaisyExamples/libDaisy//src/hid/encoder.h ****     @brief Generic Class for handling Quadrature Encoders \n 
  12:../../DaisyExamples/libDaisy//src/hid/encoder.h ****     Inspired/influenced by Mutable Instruments (pichenettes) Encoder classes
  13:../../DaisyExamples/libDaisy//src/hid/encoder.h ****     @author Stephen Hensley
  14:../../DaisyExamples/libDaisy//src/hid/encoder.h ****     @date December 2019
  15:../../DaisyExamples/libDaisy//src/hid/encoder.h ****     @ingroup controls
  16:../../DaisyExamples/libDaisy//src/hid/encoder.h **** */
  17:../../DaisyExamples/libDaisy//src/hid/encoder.h **** class Encoder
  18:../../DaisyExamples/libDaisy//src/hid/encoder.h **** {
  19:../../DaisyExamples/libDaisy//src/hid/encoder.h ****   public:
  20:../../DaisyExamples/libDaisy//src/hid/encoder.h ****     Encoder() {}
  21:../../DaisyExamples/libDaisy//src/hid/encoder.h ****     ~Encoder() {}
 155              		.loc 10 21 5 is_stmt 1 view .LVU35
 156              	.LBB340:
 157              	.LBI340:
 158              		.loc 9 42 5 view .LVU36
 159              		.loc 9 42 5 is_stmt 0 view .LVU37
 160              	.LBE340:
 161              	.LBE339:
 162              	.LBB341:
 163              	.LBI341:
 164              		.file 11 "../../DaisyExamples/libDaisy//src/daisy_seed.h"
   1:../../DaisyExamples/libDaisy//src/daisy_seed.h **** #pragma once
   2:../../DaisyExamples/libDaisy//src/daisy_seed.h **** #ifndef DSY_SEED_H
   3:../../DaisyExamples/libDaisy//src/daisy_seed.h **** #define DSY_SEED_H
   4:../../DaisyExamples/libDaisy//src/daisy_seed.h **** 
   5:../../DaisyExamples/libDaisy//src/daisy_seed.h **** #include "daisy.h"
   6:../../DaisyExamples/libDaisy//src/daisy_seed.h **** 
   7:../../DaisyExamples/libDaisy//src/daisy_seed.h **** //Uncomment this out if you're still using the rev2 hardware
   8:../../DaisyExamples/libDaisy//src/daisy_seed.h **** //#define SEED_REV2
   9:../../DaisyExamples/libDaisy//src/daisy_seed.h **** 
  10:../../DaisyExamples/libDaisy//src/daisy_seed.h **** namespace daisy
  11:../../DaisyExamples/libDaisy//src/daisy_seed.h **** {
  12:../../DaisyExamples/libDaisy//src/daisy_seed.h **** /**
  13:../../DaisyExamples/libDaisy//src/daisy_seed.h ****    @brief This is the higher-level interface for the Daisy board. \n 
  14:../../DaisyExamples/libDaisy//src/daisy_seed.h ****     All basic peripheral configuration/initialization is setup here. \n
  15:../../DaisyExamples/libDaisy//src/daisy_seed.h **** 
  16:../../DaisyExamples/libDaisy//src/daisy_seed.h ****    @ingroup boards
  17:../../DaisyExamples/libDaisy//src/daisy_seed.h **** */
  18:../../DaisyExamples/libDaisy//src/daisy_seed.h **** class DaisySeed
  19:../../DaisyExamples/libDaisy//src/daisy_seed.h **** {
  20:../../DaisyExamples/libDaisy//src/daisy_seed.h ****   public:
  21:../../DaisyExamples/libDaisy//src/daisy_seed.h ****     DaisySeed() {}
  22:../../DaisyExamples/libDaisy//src/daisy_seed.h ****     ~DaisySeed() {}
 165              		.loc 11 22 5 is_stmt 1 view .LVU38
 166              	.LBB342:
 167              	.LBI342:
ARM GAS  /var/folders/hp/45mn71hd0ps5f5pnytxy5bt00000gn/T//ccpJ9dAn.s 			page 16


 168              		.file 12 "../../DaisyExamples/libDaisy//src/sys/system.h"
   1:../../DaisyExamples/libDaisy//src/sys/system.h **** #ifndef DSY_SYSTEM_H
   2:../../DaisyExamples/libDaisy//src/sys/system.h **** #define DSY_SYSTEM_H
   3:../../DaisyExamples/libDaisy//src/sys/system.h **** 
   4:../../DaisyExamples/libDaisy//src/sys/system.h **** #ifndef UNIT_TEST // for unit tests, a dummy implementation is provided below
   5:../../DaisyExamples/libDaisy//src/sys/system.h **** 
   6:../../DaisyExamples/libDaisy//src/sys/system.h **** #include <cstdint>
   7:../../DaisyExamples/libDaisy//src/sys/system.h **** #include "per/tim.h"
   8:../../DaisyExamples/libDaisy//src/sys/system.h **** 
   9:../../DaisyExamples/libDaisy//src/sys/system.h **** namespace daisy
  10:../../DaisyExamples/libDaisy//src/sys/system.h **** {
  11:../../DaisyExamples/libDaisy//src/sys/system.h **** /** A handle for interacting with the Core System.
  12:../../DaisyExamples/libDaisy//src/sys/system.h ****  ** This includes the Clock tree, MPU, global DMA initialization,
  13:../../DaisyExamples/libDaisy//src/sys/system.h ****  ** cache handling, and any other necessary global initiailzation
  14:../../DaisyExamples/libDaisy//src/sys/system.h ****  **
  15:../../DaisyExamples/libDaisy//src/sys/system.h ****  ** @author shensley
  16:../../DaisyExamples/libDaisy//src/sys/system.h ****  ** @ingroup system
  17:../../DaisyExamples/libDaisy//src/sys/system.h ****  */
  18:../../DaisyExamples/libDaisy//src/sys/system.h **** class System
  19:../../DaisyExamples/libDaisy//src/sys/system.h **** {
  20:../../DaisyExamples/libDaisy//src/sys/system.h ****   public:
  21:../../DaisyExamples/libDaisy//src/sys/system.h ****     /** Contains settings for initializing the System */
  22:../../DaisyExamples/libDaisy//src/sys/system.h ****     struct Config
  23:../../DaisyExamples/libDaisy//src/sys/system.h ****     {
  24:../../DaisyExamples/libDaisy//src/sys/system.h ****         /** Specifies the system clock frequency that feeds APB/AHB clocks, etc. */
  25:../../DaisyExamples/libDaisy//src/sys/system.h ****         enum class SysClkFreq
  26:../../DaisyExamples/libDaisy//src/sys/system.h ****         {
  27:../../DaisyExamples/libDaisy//src/sys/system.h ****             FREQ_400MHZ,
  28:../../DaisyExamples/libDaisy//src/sys/system.h ****             FREQ_480MHZ,
  29:../../DaisyExamples/libDaisy//src/sys/system.h ****         };
  30:../../DaisyExamples/libDaisy//src/sys/system.h **** 
  31:../../DaisyExamples/libDaisy//src/sys/system.h ****         /** Method to call on the struct to set to defaults
  32:../../DaisyExamples/libDaisy//src/sys/system.h ****          ** CPU Freq set to 400MHz
  33:../../DaisyExamples/libDaisy//src/sys/system.h ****          ** Cache Enabled
  34:../../DaisyExamples/libDaisy//src/sys/system.h ****          ** */
  35:../../DaisyExamples/libDaisy//src/sys/system.h ****         void Defaults()
  36:../../DaisyExamples/libDaisy//src/sys/system.h ****         {
  37:../../DaisyExamples/libDaisy//src/sys/system.h ****             cpu_freq    = SysClkFreq::FREQ_400MHZ;
  38:../../DaisyExamples/libDaisy//src/sys/system.h ****             use_dcache  = true;
  39:../../DaisyExamples/libDaisy//src/sys/system.h ****             use_icache  = true;
  40:../../DaisyExamples/libDaisy//src/sys/system.h ****             skip_clocks = false;
  41:../../DaisyExamples/libDaisy//src/sys/system.h ****         }
  42:../../DaisyExamples/libDaisy//src/sys/system.h **** 
  43:../../DaisyExamples/libDaisy//src/sys/system.h ****         /** Method to call on the struct to set to boost mode:
  44:../../DaisyExamples/libDaisy//src/sys/system.h ****          ** CPU Freq set to 480MHz
  45:../../DaisyExamples/libDaisy//src/sys/system.h ****          ** Cache Enabled
  46:../../DaisyExamples/libDaisy//src/sys/system.h ****          ** */
  47:../../DaisyExamples/libDaisy//src/sys/system.h ****         void Boost()
  48:../../DaisyExamples/libDaisy//src/sys/system.h ****         {
  49:../../DaisyExamples/libDaisy//src/sys/system.h ****             cpu_freq    = SysClkFreq::FREQ_480MHZ;
  50:../../DaisyExamples/libDaisy//src/sys/system.h ****             use_dcache  = true;
  51:../../DaisyExamples/libDaisy//src/sys/system.h ****             use_icache  = true;
  52:../../DaisyExamples/libDaisy//src/sys/system.h ****             skip_clocks = false;
  53:../../DaisyExamples/libDaisy//src/sys/system.h ****         }
  54:../../DaisyExamples/libDaisy//src/sys/system.h **** 
  55:../../DaisyExamples/libDaisy//src/sys/system.h ****         SysClkFreq cpu_freq;
  56:../../DaisyExamples/libDaisy//src/sys/system.h ****         bool       use_dcache;
ARM GAS  /var/folders/hp/45mn71hd0ps5f5pnytxy5bt00000gn/T//ccpJ9dAn.s 			page 17


  57:../../DaisyExamples/libDaisy//src/sys/system.h ****         bool       use_icache;
  58:../../DaisyExamples/libDaisy//src/sys/system.h ****         bool       skip_clocks;
  59:../../DaisyExamples/libDaisy//src/sys/system.h ****     };
  60:../../DaisyExamples/libDaisy//src/sys/system.h **** 
  61:../../DaisyExamples/libDaisy//src/sys/system.h ****     /** Describes the different regions of memory available to the Daisy */
  62:../../DaisyExamples/libDaisy//src/sys/system.h ****     enum MemoryRegion
  63:../../DaisyExamples/libDaisy//src/sys/system.h ****     {
  64:../../DaisyExamples/libDaisy//src/sys/system.h ****         INTERNAL_FLASH = 0,
  65:../../DaisyExamples/libDaisy//src/sys/system.h ****         ITCMRAM,
  66:../../DaisyExamples/libDaisy//src/sys/system.h ****         DTCMRAM,
  67:../../DaisyExamples/libDaisy//src/sys/system.h ****         SRAM_D1,
  68:../../DaisyExamples/libDaisy//src/sys/system.h ****         SRAM_D2,
  69:../../DaisyExamples/libDaisy//src/sys/system.h ****         SRAM_D3,
  70:../../DaisyExamples/libDaisy//src/sys/system.h ****         SDRAM,
  71:../../DaisyExamples/libDaisy//src/sys/system.h ****         QSPI,
  72:../../DaisyExamples/libDaisy//src/sys/system.h ****         INVALID_ADDRESS,
  73:../../DaisyExamples/libDaisy//src/sys/system.h ****     };
  74:../../DaisyExamples/libDaisy//src/sys/system.h **** 
  75:../../DaisyExamples/libDaisy//src/sys/system.h ****     /** Bootloader struct for controlling bootloading parameters */
  76:../../DaisyExamples/libDaisy//src/sys/system.h ****     struct BootInfo
  77:../../DaisyExamples/libDaisy//src/sys/system.h ****     {
  78:../../DaisyExamples/libDaisy//src/sys/system.h ****         enum class Type : uint32_t
  79:../../DaisyExamples/libDaisy//src/sys/system.h ****         {
  80:../../DaisyExamples/libDaisy//src/sys/system.h ****             INVALID      = 0x00000000,
  81:../../DaisyExamples/libDaisy//src/sys/system.h ****             JUMP         = 0xDEADBEEF,
  82:../../DaisyExamples/libDaisy//src/sys/system.h ****             SKIP_TIMEOUT = 0x5AFEB007,
  83:../../DaisyExamples/libDaisy//src/sys/system.h ****             INF_TIMEOUT  = 0xB0074EFA,
  84:../../DaisyExamples/libDaisy//src/sys/system.h ****         } status;
  85:../../DaisyExamples/libDaisy//src/sys/system.h ****         uint32_t data;
  86:../../DaisyExamples/libDaisy//src/sys/system.h ****         enum class Version : uint32_t
  87:../../DaisyExamples/libDaisy//src/sys/system.h ****         {
  88:../../DaisyExamples/libDaisy//src/sys/system.h ****             LT_v6_0 = 0, // Less than v6.0
  89:../../DaisyExamples/libDaisy//src/sys/system.h ****             NONE,        // No bootloader present
  90:../../DaisyExamples/libDaisy//src/sys/system.h ****             v6_0,        // v6.0
  91:../../DaisyExamples/libDaisy//src/sys/system.h ****             v6_1,        // v6.1 or greater
  92:../../DaisyExamples/libDaisy//src/sys/system.h ****             LAST
  93:../../DaisyExamples/libDaisy//src/sys/system.h ****         } version;
  94:../../DaisyExamples/libDaisy//src/sys/system.h ****     };
  95:../../DaisyExamples/libDaisy//src/sys/system.h **** 
  96:../../DaisyExamples/libDaisy//src/sys/system.h ****     System() {}
  97:../../DaisyExamples/libDaisy//src/sys/system.h ****     ~System() {}
 169              		.loc 12 97 5 view .LVU39
 170              		.loc 12 97 5 is_stmt 0 view .LVU40
 171              	.LBE342:
 172              	.LBB343:
 173              	.LBI343:
 174              		.file 13 "../../DaisyExamples/libDaisy//src/hid/usb.h"
   1:../../DaisyExamples/libDaisy//src/hid/usb.h **** #pragma once
   2:../../DaisyExamples/libDaisy//src/hid/usb.h **** #ifndef DSY_HID_USB_H
   3:../../DaisyExamples/libDaisy//src/hid/usb.h **** #define DSY_HID_USB_H
   4:../../DaisyExamples/libDaisy//src/hid/usb.h **** #include <stdint.h>
   5:../../DaisyExamples/libDaisy//src/hid/usb.h **** #include <stdlib.h>
   6:../../DaisyExamples/libDaisy//src/hid/usb.h **** 
   7:../../DaisyExamples/libDaisy//src/hid/usb.h **** namespace daisy
   8:../../DaisyExamples/libDaisy//src/hid/usb.h **** /** @addtogroup human_interface
   9:../../DaisyExamples/libDaisy//src/hid/usb.h ****     @{
  10:../../DaisyExamples/libDaisy//src/hid/usb.h **** */
ARM GAS  /var/folders/hp/45mn71hd0ps5f5pnytxy5bt00000gn/T//ccpJ9dAn.s 			page 18


  11:../../DaisyExamples/libDaisy//src/hid/usb.h **** 
  12:../../DaisyExamples/libDaisy//src/hid/usb.h **** {
  13:../../DaisyExamples/libDaisy//src/hid/usb.h **** /** 
  14:../../DaisyExamples/libDaisy//src/hid/usb.h ****     @brief Interface for initializing and using the USB Peripherals on the daisy
  15:../../DaisyExamples/libDaisy//src/hid/usb.h ****     @author Stephen Hensley
  16:../../DaisyExamples/libDaisy//src/hid/usb.h ****     @date December 2019
  17:../../DaisyExamples/libDaisy//src/hid/usb.h **** */
  18:../../DaisyExamples/libDaisy//src/hid/usb.h **** class UsbHandle
  19:../../DaisyExamples/libDaisy//src/hid/usb.h **** {
  20:../../DaisyExamples/libDaisy//src/hid/usb.h ****   public:
  21:../../DaisyExamples/libDaisy//src/hid/usb.h ****     /** Return values for USBHandle Functions */
  22:../../DaisyExamples/libDaisy//src/hid/usb.h ****     enum class Result
  23:../../DaisyExamples/libDaisy//src/hid/usb.h ****     {
  24:../../DaisyExamples/libDaisy//src/hid/usb.h ****         OK,
  25:../../DaisyExamples/libDaisy//src/hid/usb.h ****         ERR,
  26:../../DaisyExamples/libDaisy//src/hid/usb.h ****     };
  27:../../DaisyExamples/libDaisy//src/hid/usb.h **** 
  28:../../DaisyExamples/libDaisy//src/hid/usb.h ****     /** Specified which of the two USB Peripherals to initialize. */
  29:../../DaisyExamples/libDaisy//src/hid/usb.h ****     enum UsbPeriph
  30:../../DaisyExamples/libDaisy//src/hid/usb.h ****     {
  31:../../DaisyExamples/libDaisy//src/hid/usb.h ****         FS_INTERNAL, /**< Internal pin */
  32:../../DaisyExamples/libDaisy//src/hid/usb.h ****         FS_EXTERNAL, /**< FS External D+ pin is Pin 38 (GPIO32). FS External D- pin is Pin 37 (GPIO
  33:../../DaisyExamples/libDaisy//src/hid/usb.h ****         FS_BOTH,     /**< Both */
  34:../../DaisyExamples/libDaisy//src/hid/usb.h ****     };
  35:../../DaisyExamples/libDaisy//src/hid/usb.h **** 
  36:../../DaisyExamples/libDaisy//src/hid/usb.h **** 
  37:../../DaisyExamples/libDaisy//src/hid/usb.h ****     /** Function called upon reception of a buffer */
  38:../../DaisyExamples/libDaisy//src/hid/usb.h ****     typedef void (*ReceiveCallback)(uint8_t* buff, uint32_t* len);
  39:../../DaisyExamples/libDaisy//src/hid/usb.h **** 
  40:../../DaisyExamples/libDaisy//src/hid/usb.h ****     UsbHandle() {}
  41:../../DaisyExamples/libDaisy//src/hid/usb.h **** 
  42:../../DaisyExamples/libDaisy//src/hid/usb.h ****     ~UsbHandle() {}
 175              		.loc 13 42 5 is_stmt 1 view .LVU41
 176              		.loc 13 42 5 is_stmt 0 view .LVU42
 177              	.LBE343:
 178              	.LBB344:
 179              	.LBI344:
 180              		.file 14 "../../DaisyExamples/libDaisy//src/per/adc.h"
   1:../../DaisyExamples/libDaisy//src/per/adc.h **** #pragma once
   2:../../DaisyExamples/libDaisy//src/per/adc.h **** #ifndef DSY_ADC_H
   3:../../DaisyExamples/libDaisy//src/per/adc.h **** #define DSY_ADC_H /**< Macro */
   4:../../DaisyExamples/libDaisy//src/per/adc.h **** #include <stdint.h>
   5:../../DaisyExamples/libDaisy//src/per/adc.h **** #include <stdlib.h>
   6:../../DaisyExamples/libDaisy//src/per/adc.h **** #include "daisy_core.h"
   7:../../DaisyExamples/libDaisy//src/per/adc.h **** #include "per/gpio.h"
   8:../../DaisyExamples/libDaisy//src/per/adc.h **** 
   9:../../DaisyExamples/libDaisy//src/per/adc.h **** #define DSY_ADC_MAX_CHANNELS 16 /**< Maximum number of ADC channels */
  10:../../DaisyExamples/libDaisy//src/per/adc.h **** 
  11:../../DaisyExamples/libDaisy//src/per/adc.h **** namespace daisy
  12:../../DaisyExamples/libDaisy//src/per/adc.h **** {
  13:../../DaisyExamples/libDaisy//src/per/adc.h **** /** @addtogroup per_analog
  14:../../DaisyExamples/libDaisy//src/per/adc.h ****     @{
  15:../../DaisyExamples/libDaisy//src/per/adc.h **** */
  16:../../DaisyExamples/libDaisy//src/per/adc.h **** 
  17:../../DaisyExamples/libDaisy//src/per/adc.h **** /* While there may not be many configuration options here,
  18:../../DaisyExamples/libDaisy//src/per/adc.h **** using a struct like this allows us to add more configuration
  19:../../DaisyExamples/libDaisy//src/per/adc.h **** later without breaking existing functionality.
ARM GAS  /var/folders/hp/45mn71hd0ps5f5pnytxy5bt00000gn/T//ccpJ9dAn.s 			page 19


  20:../../DaisyExamples/libDaisy//src/per/adc.h **** */
  21:../../DaisyExamples/libDaisy//src/per/adc.h **** 
  22:../../DaisyExamples/libDaisy//src/per/adc.h **** /** @brief   Configuration Structure for an ADC Channel 
  23:../../DaisyExamples/libDaisy//src/per/adc.h ****  *  @details This can be used to configure a a single input, 
  24:../../DaisyExamples/libDaisy//src/per/adc.h ****  *           or a multiplexed input, allowing up to 8 inputs on 
  25:../../DaisyExamples/libDaisy//src/per/adc.h ****  *           one channel.
  26:../../DaisyExamples/libDaisy//src/per/adc.h ****  *  @note    Sharing data lines to multiple muxes _is_ possible, but
  27:../../DaisyExamples/libDaisy//src/per/adc.h ****  *           each channel sharing data lines must be set to the maximum
  28:../../DaisyExamples/libDaisy//src/per/adc.h ****  *           number of channels, even if some multiplexers have fewer
  29:../../DaisyExamples/libDaisy//src/per/adc.h ****  *           inputs connected.
  30:../../DaisyExamples/libDaisy//src/per/adc.h **** */
  31:../../DaisyExamples/libDaisy//src/per/adc.h **** struct AdcChannelConfig
  32:../../DaisyExamples/libDaisy//src/per/adc.h **** {
  33:../../DaisyExamples/libDaisy//src/per/adc.h ****     /** Which pin to use for multiplexing */
  34:../../DaisyExamples/libDaisy//src/per/adc.h ****     enum MuxPin
  35:../../DaisyExamples/libDaisy//src/per/adc.h ****     {
  36:../../DaisyExamples/libDaisy//src/per/adc.h ****         MUX_SEL_0,    /**< & */
  37:../../DaisyExamples/libDaisy//src/per/adc.h ****         MUX_SEL_1,    /**< & */
  38:../../DaisyExamples/libDaisy//src/per/adc.h ****         MUX_SEL_2,    /**< & */
  39:../../DaisyExamples/libDaisy//src/per/adc.h ****         MUX_SEL_LAST, /**< & */
  40:../../DaisyExamples/libDaisy//src/per/adc.h ****     };
  41:../../DaisyExamples/libDaisy//src/per/adc.h **** 
  42:../../DaisyExamples/libDaisy//src/per/adc.h ****     /** \brief per channel conversion speed added to fixed time based on bitdepth, etc. */
  43:../../DaisyExamples/libDaisy//src/per/adc.h ****     enum ConversionSpeed
  44:../../DaisyExamples/libDaisy//src/per/adc.h ****     {
  45:../../DaisyExamples/libDaisy//src/per/adc.h ****         SPEED_1CYCLES_5,
  46:../../DaisyExamples/libDaisy//src/per/adc.h ****         SPEED_2CYCLES_5,
  47:../../DaisyExamples/libDaisy//src/per/adc.h ****         SPEED_8CYCLES_5,
  48:../../DaisyExamples/libDaisy//src/per/adc.h ****         SPEED_16CYCLES_5,
  49:../../DaisyExamples/libDaisy//src/per/adc.h ****         SPEED_32CYCLES_5,
  50:../../DaisyExamples/libDaisy//src/per/adc.h ****         SPEED_64CYCLES_5,
  51:../../DaisyExamples/libDaisy//src/per/adc.h ****         SPEED_387CYCLES_5,
  52:../../DaisyExamples/libDaisy//src/per/adc.h ****         SPEED_810CYCLES_5,
  53:../../DaisyExamples/libDaisy//src/per/adc.h ****     };
  54:../../DaisyExamples/libDaisy//src/per/adc.h **** 
  55:../../DaisyExamples/libDaisy//src/per/adc.h ****     /** Initializes a single ADC pin as an ADC. 
  56:../../DaisyExamples/libDaisy//src/per/adc.h ****     \param pin Pin to init.
  57:../../DaisyExamples/libDaisy//src/per/adc.h ****     \param speed conversion speed for this pin defaults to 8.5 cycles
  58:../../DaisyExamples/libDaisy//src/per/adc.h ****      */
  59:../../DaisyExamples/libDaisy//src/per/adc.h ****     void InitSingle(dsy_gpio_pin pin, ConversionSpeed speed = SPEED_8CYCLES_5);
  60:../../DaisyExamples/libDaisy//src/per/adc.h **** 
  61:../../DaisyExamples/libDaisy//src/per/adc.h ****     /** 
  62:../../DaisyExamples/libDaisy//src/per/adc.h ****     Initializes a single ADC pin as a Multiplexed ADC.
  63:../../DaisyExamples/libDaisy//src/per/adc.h ****     Requires a CD405X Multiplexer connected to the pin.
  64:../../DaisyExamples/libDaisy//src/per/adc.h ****     You only need to supply the mux pins that are required,
  65:../../DaisyExamples/libDaisy//src/per/adc.h ****     e.g. a 4052 mux would only require mux_0 and mux_1.
  66:../../DaisyExamples/libDaisy//src/per/adc.h ****     Internal Callbacks handle the pin addressing.
  67:../../DaisyExamples/libDaisy//src/per/adc.h ****     \param adc_pin &
  68:../../DaisyExamples/libDaisy//src/per/adc.h ****     \param mux_channels must be 1-8
  69:../../DaisyExamples/libDaisy//src/per/adc.h ****     \param mux_0 First mux pin
  70:../../DaisyExamples/libDaisy//src/per/adc.h ****     \param mux_1 Second mux pin
  71:../../DaisyExamples/libDaisy//src/per/adc.h ****     \param mux_2 Third mux pin
  72:../../DaisyExamples/libDaisy//src/per/adc.h ****     \param speed conversion speed for this pin defaults to 8.5 cycles
  73:../../DaisyExamples/libDaisy//src/per/adc.h ****     */
  74:../../DaisyExamples/libDaisy//src/per/adc.h ****     void InitMux(dsy_gpio_pin    adc_pin,
  75:../../DaisyExamples/libDaisy//src/per/adc.h ****                  size_t          mux_channels,
  76:../../DaisyExamples/libDaisy//src/per/adc.h ****                  dsy_gpio_pin    mux_0,
ARM GAS  /var/folders/hp/45mn71hd0ps5f5pnytxy5bt00000gn/T//ccpJ9dAn.s 			page 20


  77:../../DaisyExamples/libDaisy//src/per/adc.h ****                  dsy_gpio_pin    mux_1 = {DSY_GPIOX, 0},
  78:../../DaisyExamples/libDaisy//src/per/adc.h ****                  dsy_gpio_pin    mux_2 = {DSY_GPIOX, 0},
  79:../../DaisyExamples/libDaisy//src/per/adc.h ****                  ConversionSpeed speed = SPEED_8CYCLES_5);
  80:../../DaisyExamples/libDaisy//src/per/adc.h **** 
  81:../../DaisyExamples/libDaisy//src/per/adc.h ****     dsy_gpio        pin_;                   /**< & */
  82:../../DaisyExamples/libDaisy//src/per/adc.h ****     dsy_gpio        mux_pin_[MUX_SEL_LAST]; /**< & */
  83:../../DaisyExamples/libDaisy//src/per/adc.h ****     uint8_t         mux_channels_;          /**< & */
  84:../../DaisyExamples/libDaisy//src/per/adc.h ****     ConversionSpeed speed_;
  85:../../DaisyExamples/libDaisy//src/per/adc.h **** };
  86:../../DaisyExamples/libDaisy//src/per/adc.h **** 
  87:../../DaisyExamples/libDaisy//src/per/adc.h **** /**
  88:../../DaisyExamples/libDaisy//src/per/adc.h ****    @brief Handler for analog to digital conversion
  89:../../DaisyExamples/libDaisy//src/per/adc.h **** */
  90:../../DaisyExamples/libDaisy//src/per/adc.h **** class AdcHandle
  91:../../DaisyExamples/libDaisy//src/per/adc.h **** {
  92:../../DaisyExamples/libDaisy//src/per/adc.h ****   public:
  93:../../DaisyExamples/libDaisy//src/per/adc.h ****     /** Supported oversampling amounts */
  94:../../DaisyExamples/libDaisy//src/per/adc.h ****     enum OverSampling
  95:../../DaisyExamples/libDaisy//src/per/adc.h ****     {
  96:../../DaisyExamples/libDaisy//src/per/adc.h ****         OVS_NONE, /**< & */
  97:../../DaisyExamples/libDaisy//src/per/adc.h ****         OVS_4,    /**< & */
  98:../../DaisyExamples/libDaisy//src/per/adc.h ****         OVS_8,    /**< & */
  99:../../DaisyExamples/libDaisy//src/per/adc.h ****         OVS_16,   /**< & */
 100:../../DaisyExamples/libDaisy//src/per/adc.h ****         OVS_32,   /**< & */
 101:../../DaisyExamples/libDaisy//src/per/adc.h ****         OVS_64,   /**< & */
 102:../../DaisyExamples/libDaisy//src/per/adc.h ****         OVS_128,  /**< & */
 103:../../DaisyExamples/libDaisy//src/per/adc.h ****         OVS_256,  /**< & */
 104:../../DaisyExamples/libDaisy//src/per/adc.h ****         OVS_512,  /**< & */
 105:../../DaisyExamples/libDaisy//src/per/adc.h ****         OVS_1024, /**< & */
 106:../../DaisyExamples/libDaisy//src/per/adc.h ****         OVS_LAST, /**< & */
 107:../../DaisyExamples/libDaisy//src/per/adc.h ****     };
 108:../../DaisyExamples/libDaisy//src/per/adc.h **** 
 109:../../DaisyExamples/libDaisy//src/per/adc.h ****     AdcHandle() {}
 110:../../DaisyExamples/libDaisy//src/per/adc.h ****     ~AdcHandle() {}
 181              		.loc 14 110 5 is_stmt 1 view .LVU43
 182              		.loc 14 110 5 is_stmt 0 view .LVU44
 183              	.LBE344:
 184              	.LBB345:
 185              	.LBI345:
 186              		.file 15 "../../DaisyExamples/libDaisy//src/hid/audio.h"
   1:../../DaisyExamples/libDaisy//src/hid/audio.h **** #ifndef DSY_AUDIO_H
   2:../../DaisyExamples/libDaisy//src/hid/audio.h **** #define DSY_AUDIO_H /**< & */
   3:../../DaisyExamples/libDaisy//src/hid/audio.h **** 
   4:../../DaisyExamples/libDaisy//src/hid/audio.h **** #include "per/sai.h"
   5:../../DaisyExamples/libDaisy//src/hid/audio.h **** 
   6:../../DaisyExamples/libDaisy//src/hid/audio.h **** namespace daisy
   7:../../DaisyExamples/libDaisy//src/hid/audio.h **** {
   8:../../DaisyExamples/libDaisy//src/hid/audio.h **** /** @brief Audio Engine Handle
   9:../../DaisyExamples/libDaisy//src/hid/audio.h ****  *  @ingroup audio 
  10:../../DaisyExamples/libDaisy//src/hid/audio.h ****  *  @details This class allows for higher level access to an audio engine.
  11:../../DaisyExamples/libDaisy//src/hid/audio.h ****  *           If you're using a SOM like the DaisySeed or DaisyPatchSM (or any 
  12:../../DaisyExamples/libDaisy//src/hid/audio.h ****  *            board that includes one of those objects) then the intialization
  13:../../DaisyExamples/libDaisy//src/hid/audio.h ****  *            is already taken  care of.
  14:../../DaisyExamples/libDaisy//src/hid/audio.h ****  *           If you're setting up your own custom hardware, or need to make changes
  15:../../DaisyExamples/libDaisy//src/hid/audio.h ****  *           you will have to take the following steps:
  16:../../DaisyExamples/libDaisy//src/hid/audio.h ****  *             1. Create and Initialize an SaiHandle or two depending on your requirements
  17:../../DaisyExamples/libDaisy//src/hid/audio.h ****  *             2. Initialize the Audio Handle with the desired settings and the Initialized SaiHand
ARM GAS  /var/folders/hp/45mn71hd0ps5f5pnytxy5bt00000gn/T//ccpJ9dAn.s 			page 21


  18:../../DaisyExamples/libDaisy//src/hid/audio.h ****  *             3. If the connected codec requires special configuration or initialization, do so
  19:../../DaisyExamples/libDaisy//src/hid/audio.h ****  *             4. Write a callback method using either the AudioCallback or the InterleavingAudioCa
  20:../../DaisyExamples/libDaisy//src/hid/audio.h ****  *             5. Start the Audio using one of the StartAudio function
  21:../../DaisyExamples/libDaisy//src/hid/audio.h ****  */
  22:../../DaisyExamples/libDaisy//src/hid/audio.h **** class AudioHandle
  23:../../DaisyExamples/libDaisy//src/hid/audio.h **** {
  24:../../DaisyExamples/libDaisy//src/hid/audio.h ****   public:
  25:../../DaisyExamples/libDaisy//src/hid/audio.h ****     /** Manually configurable details about the Audio Engine */
  26:../../DaisyExamples/libDaisy//src/hid/audio.h ****     /** TODO: Figure out how to get samplerate in here. */
  27:../../DaisyExamples/libDaisy//src/hid/audio.h ****     struct Config
  28:../../DaisyExamples/libDaisy//src/hid/audio.h ****     {
  29:../../DaisyExamples/libDaisy//src/hid/audio.h ****         /** number of samples to process per callback */
  30:../../DaisyExamples/libDaisy//src/hid/audio.h ****         size_t blocksize;
  31:../../DaisyExamples/libDaisy//src/hid/audio.h **** 
  32:../../DaisyExamples/libDaisy//src/hid/audio.h ****         /**< Sample rate of audio */
  33:../../DaisyExamples/libDaisy//src/hid/audio.h ****         SaiHandle::Config::SampleRate samplerate;
  34:../../DaisyExamples/libDaisy//src/hid/audio.h **** 
  35:../../DaisyExamples/libDaisy//src/hid/audio.h ****         /** factor for adjustment before and after callback for hardware that may have extra headro
  36:../../DaisyExamples/libDaisy//src/hid/audio.h ****         float postgain;
  37:../../DaisyExamples/libDaisy//src/hid/audio.h **** 
  38:../../DaisyExamples/libDaisy//src/hid/audio.h ****         /** factor for additional one-sided compensation to audio path for hardware that may
  39:../../DaisyExamples/libDaisy//src/hid/audio.h ****          *  have unequal input/output ranges
  40:../../DaisyExamples/libDaisy//src/hid/audio.h ****          */
  41:../../DaisyExamples/libDaisy//src/hid/audio.h ****         float output_compensation;
  42:../../DaisyExamples/libDaisy//src/hid/audio.h **** 
  43:../../DaisyExamples/libDaisy//src/hid/audio.h ****         /** Sets default values for config struct */
  44:../../DaisyExamples/libDaisy//src/hid/audio.h ****         Config()
  45:../../DaisyExamples/libDaisy//src/hid/audio.h ****         : blocksize(48),
  46:../../DaisyExamples/libDaisy//src/hid/audio.h ****           samplerate(SaiHandle::Config::SampleRate::SAI_48KHZ),
  47:../../DaisyExamples/libDaisy//src/hid/audio.h ****           postgain(1.f),
  48:../../DaisyExamples/libDaisy//src/hid/audio.h ****           output_compensation(1.f)
  49:../../DaisyExamples/libDaisy//src/hid/audio.h ****         {
  50:../../DaisyExamples/libDaisy//src/hid/audio.h ****         }
  51:../../DaisyExamples/libDaisy//src/hid/audio.h ****     };
  52:../../DaisyExamples/libDaisy//src/hid/audio.h **** 
  53:../../DaisyExamples/libDaisy//src/hid/audio.h ****     enum class Result
  54:../../DaisyExamples/libDaisy//src/hid/audio.h ****     {
  55:../../DaisyExamples/libDaisy//src/hid/audio.h ****         OK,
  56:../../DaisyExamples/libDaisy//src/hid/audio.h ****         ERR,
  57:../../DaisyExamples/libDaisy//src/hid/audio.h ****     };
  58:../../DaisyExamples/libDaisy//src/hid/audio.h **** 
  59:../../DaisyExamples/libDaisy//src/hid/audio.h ****     /** Non-Interleaving input buffer
  60:../../DaisyExamples/libDaisy//src/hid/audio.h ****      * Buffer arranged by float[chn][sample] 
  61:../../DaisyExamples/libDaisy//src/hid/audio.h ****      * const so that the user can't modify the input
  62:../../DaisyExamples/libDaisy//src/hid/audio.h ****      */
  63:../../DaisyExamples/libDaisy//src/hid/audio.h ****     typedef const float* const* InputBuffer;
  64:../../DaisyExamples/libDaisy//src/hid/audio.h **** 
  65:../../DaisyExamples/libDaisy//src/hid/audio.h ****     /** Non-Interleaving output buffer
  66:../../DaisyExamples/libDaisy//src/hid/audio.h ****      * Arranged by float[chn][sample] 
  67:../../DaisyExamples/libDaisy//src/hid/audio.h ****      */
  68:../../DaisyExamples/libDaisy//src/hid/audio.h ****     typedef float** OutputBuffer;
  69:../../DaisyExamples/libDaisy//src/hid/audio.h **** 
  70:../../DaisyExamples/libDaisy//src/hid/audio.h ****     /** Type for a Non-Interleaving audio callback 
  71:../../DaisyExamples/libDaisy//src/hid/audio.h ****      * Non-Interleaving audio callbacks in daisy will be of this type
  72:../../DaisyExamples/libDaisy//src/hid/audio.h ****      */
  73:../../DaisyExamples/libDaisy//src/hid/audio.h ****     typedef void (*AudioCallback)(InputBuffer  in,
  74:../../DaisyExamples/libDaisy//src/hid/audio.h ****                                   OutputBuffer out,
ARM GAS  /var/folders/hp/45mn71hd0ps5f5pnytxy5bt00000gn/T//ccpJ9dAn.s 			page 22


  75:../../DaisyExamples/libDaisy//src/hid/audio.h ****                                   size_t       size);
  76:../../DaisyExamples/libDaisy//src/hid/audio.h **** 
  77:../../DaisyExamples/libDaisy//src/hid/audio.h ****     /** Interleaving Input buffer
  78:../../DaisyExamples/libDaisy//src/hid/audio.h ****      ** audio is prepared as { L0, R0, L1, R1, . . . LN, RN }]
  79:../../DaisyExamples/libDaisy//src/hid/audio.h ****      ** this is const, as the user shouldn't modify it
  80:../../DaisyExamples/libDaisy//src/hid/audio.h ****     */
  81:../../DaisyExamples/libDaisy//src/hid/audio.h ****     typedef const float* InterleavingInputBuffer;
  82:../../DaisyExamples/libDaisy//src/hid/audio.h **** 
  83:../../DaisyExamples/libDaisy//src/hid/audio.h ****     /** Interleaving Output buffer 
  84:../../DaisyExamples/libDaisy//src/hid/audio.h ****      ** audio is prepared as { L0, R0, L1, R1, . . . LN, RN }
  85:../../DaisyExamples/libDaisy//src/hid/audio.h ****     */
  86:../../DaisyExamples/libDaisy//src/hid/audio.h ****     typedef float* InterleavingOutputBuffer;
  87:../../DaisyExamples/libDaisy//src/hid/audio.h **** 
  88:../../DaisyExamples/libDaisy//src/hid/audio.h ****     /** Interleaving Audio Callback 
  89:../../DaisyExamples/libDaisy//src/hid/audio.h ****      * Interleaving audio callbacks in daisy must be of this type
  90:../../DaisyExamples/libDaisy//src/hid/audio.h ****      */
  91:../../DaisyExamples/libDaisy//src/hid/audio.h ****     typedef void (*InterleavingAudioCallback)(InterleavingInputBuffer  in,
  92:../../DaisyExamples/libDaisy//src/hid/audio.h ****                                               InterleavingOutputBuffer out,
  93:../../DaisyExamples/libDaisy//src/hid/audio.h ****                                               size_t                   size);
  94:../../DaisyExamples/libDaisy//src/hid/audio.h **** 
  95:../../DaisyExamples/libDaisy//src/hid/audio.h ****     AudioHandle() : pimpl_(nullptr) {}
  96:../../DaisyExamples/libDaisy//src/hid/audio.h ****     ~AudioHandle() {}
 187              		.loc 15 96 5 is_stmt 1 view .LVU45
 188              		.loc 15 96 5 is_stmt 0 view .LVU46
 189              	.LBE345:
 190              	.LBE341:
 191              		.loc 3 36 18 view .LVU47
 192 0000 7047     		bx	lr
 193              		.cfi_endproc
 194              	.LFE2565:
 196              		.weak	_ZN5daisy8DaisyPodD1Ev
 197              		.thumb_set _ZN5daisy8DaisyPodD1Ev,_ZN5daisy8DaisyPodD2Ev
 198 0002 00BF     		.section	.text._ZN7daisysp10OscillatorD2Ev,"axG",%progbits,_ZN7daisysp10OscillatorD5Ev,comdat
 199              		.align	1
 200              		.p2align 2,,3
 201              		.weak	_ZN7daisysp10OscillatorD2Ev
 202              		.syntax unified
 203              		.thumb
 204              		.thumb_func
 206              	_ZN7daisysp10OscillatorD2Ev:
 207              	.LVL2:
 208              	.LFB4248:
 209              		.file 16 "../../DaisyExamples/DaisySP//Source/Synthesis/oscillator.h"
   1:../../DaisyExamples/DaisySP//Source/Synthesis/oscillator.h **** /*
   2:../../DaisyExamples/DaisySP//Source/Synthesis/oscillator.h **** Copyright (c) 2020 Electrosmith, Corp
   3:../../DaisyExamples/DaisySP//Source/Synthesis/oscillator.h **** 
   4:../../DaisyExamples/DaisySP//Source/Synthesis/oscillator.h **** Use of this source code is governed by an MIT-style
   5:../../DaisyExamples/DaisySP//Source/Synthesis/oscillator.h **** license that can be found in the LICENSE file or at
   6:../../DaisyExamples/DaisySP//Source/Synthesis/oscillator.h **** https://opensource.org/licenses/MIT.
   7:../../DaisyExamples/DaisySP//Source/Synthesis/oscillator.h **** */
   8:../../DaisyExamples/DaisySP//Source/Synthesis/oscillator.h **** 
   9:../../DaisyExamples/DaisySP//Source/Synthesis/oscillator.h **** #pragma once
  10:../../DaisyExamples/DaisySP//Source/Synthesis/oscillator.h **** #ifndef DSY_OSCILLATOR_H
  11:../../DaisyExamples/DaisySP//Source/Synthesis/oscillator.h **** #define DSY_OSCILLATOR_H
  12:../../DaisyExamples/DaisySP//Source/Synthesis/oscillator.h **** #include <stdint.h>
  13:../../DaisyExamples/DaisySP//Source/Synthesis/oscillator.h **** #include "Utility/dsp.h"
  14:../../DaisyExamples/DaisySP//Source/Synthesis/oscillator.h **** #ifdef __cplusplus
ARM GAS  /var/folders/hp/45mn71hd0ps5f5pnytxy5bt00000gn/T//ccpJ9dAn.s 			page 23


  15:../../DaisyExamples/DaisySP//Source/Synthesis/oscillator.h **** 
  16:../../DaisyExamples/DaisySP//Source/Synthesis/oscillator.h **** namespace daisysp
  17:../../DaisyExamples/DaisySP//Source/Synthesis/oscillator.h **** {
  18:../../DaisyExamples/DaisySP//Source/Synthesis/oscillator.h **** /** Synthesis of several waveforms, including polyBLEP bandlimited waveforms.
  19:../../DaisyExamples/DaisySP//Source/Synthesis/oscillator.h **** */
  20:../../DaisyExamples/DaisySP//Source/Synthesis/oscillator.h **** class Oscillator
  21:../../DaisyExamples/DaisySP//Source/Synthesis/oscillator.h **** {
  22:../../DaisyExamples/DaisySP//Source/Synthesis/oscillator.h ****   public:
  23:../../DaisyExamples/DaisySP//Source/Synthesis/oscillator.h ****     Oscillator() {}
  24:../../DaisyExamples/DaisySP//Source/Synthesis/oscillator.h ****     ~Oscillator() {}
 210              		.loc 16 24 5 is_stmt 1 view -0
 211              		.cfi_startproc
 212              		@ args = 0, pretend = 0, frame = 0
 213              		@ frame_needed = 0, uses_anonymous_args = 0
 214              		@ link register save eliminated.
 215              		.loc 16 24 20 is_stmt 0 view .LVU49
 216 0000 7047     		bx	lr
 217              		.cfi_endproc
 218              	.LFE4248:
 220              		.weak	_ZN7daisysp10OscillatorD1Ev
 221              		.thumb_set _ZN7daisysp10OscillatorD1Ev,_ZN7daisysp10OscillatorD2Ev
 222 0002 00BF     		.section	.text._ZL13AudioCallbackPKfPfj,"ax",%progbits
 223              		.align	1
 224              		.p2align 2,,3
 225              		.syntax unified
 226              		.thumb
 227              		.thumb_func
 229              	_ZL13AudioCallbackPKfPfj:
 230              	.LVL3:
 231              	.LFB4854:
 232              		.file 17 "SynthV2.cpp"
   1:SynthV2.cpp   **** #include "daisy_pod.h"
   2:SynthV2.cpp   **** #include "daisysp.h"
   3:SynthV2.cpp   **** 
   4:SynthV2.cpp   **** using namespace daisy;
   5:SynthV2.cpp   **** using namespace daisysp;
   6:SynthV2.cpp   **** 
   7:SynthV2.cpp   **** static DaisyPod pod;
   8:SynthV2.cpp   **** static Oscillator osc;
   9:SynthV2.cpp   **** static Parameter p_freq;
  10:SynthV2.cpp   **** 
  11:SynthV2.cpp   **** float sig;
  12:SynthV2.cpp   **** float freq;
  13:SynthV2.cpp   **** 
  14:SynthV2.cpp   **** static void AudioCallback(AudioHandle::InterleavingInputBuffer in,
  15:SynthV2.cpp   ****                           AudioHandle::InterleavingOutputBuffer out,
  16:SynthV2.cpp   ****                           size_t size)
  17:SynthV2.cpp   **** {
 233              		.loc 17 17 1 is_stmt 1 view -0
 234              		.cfi_startproc
 235              		@ args = 0, pretend = 0, frame = 0
 236              		@ frame_needed = 0, uses_anonymous_args = 0
  18:SynthV2.cpp   ****     pod.ProcessAnalogControls();
 237              		.loc 17 18 5 view .LVU51
  17:SynthV2.cpp   ****     pod.ProcessAnalogControls();
 238              		.loc 17 17 1 is_stmt 0 view .LVU52
 239 0000 2DE9F041 		push	{r4, r5, r6, r7, r8, lr}
ARM GAS  /var/folders/hp/45mn71hd0ps5f5pnytxy5bt00000gn/T//ccpJ9dAn.s 			page 24


 240              		.cfi_def_cfa_offset 24
 241              		.cfi_offset 4, -24
 242              		.cfi_offset 5, -20
 243              		.cfi_offset 6, -16
 244              		.cfi_offset 7, -12
 245              		.cfi_offset 8, -8
 246              		.cfi_offset 14, -4
 247              		.loc 17 18 30 view .LVU53
 248 0004 1448     		ldr	r0, .L13
 249              	.LVL4:
  17:SynthV2.cpp   ****     pod.ProcessAnalogControls();
 250              		.loc 17 17 1 view .LVU54
 251 0006 1746     		mov	r7, r2
 252 0008 0C46     		mov	r4, r1
 253              		.loc 17 18 30 view .LVU55
 254 000a FFF7FEFF 		bl	_ZN5daisy8DaisyPod21ProcessAnalogControlsEv
 255              	.LVL5:
  19:SynthV2.cpp   ****     pod.ProcessDigitalControls();
 256              		.loc 17 19 5 is_stmt 1 view .LVU56
 257              		.loc 17 19 31 is_stmt 0 view .LVU57
 258 000e 1248     		ldr	r0, .L13
 259 0010 FFF7FEFF 		bl	_ZN5daisy8DaisyPod22ProcessDigitalControlsEv
 260              	.LVL6:
  20:SynthV2.cpp   **** 
  21:SynthV2.cpp   ****     for (size_t i = 0; i < size; i += 2)
 261              		.loc 17 21 5 is_stmt 1 view .LVU58
 262              	.LBB346:
 263              		.loc 17 21 26 view .LVU59
 264 0014 EFB1     		cbz	r7, .L5
 265 0016 013F     		subs	r7, r7, #1
 266              	.LVL7:
 267              		.loc 17 21 26 is_stmt 0 view .LVU60
 268 0018 0025     		movs	r5, #0
 269 001a 104E     		ldr	r6, .L13+4
 270 001c 7F08     		lsrs	r7, r7, #1
 271              	.LVL8:
 272              		.loc 17 21 26 view .LVU61
 273 001e DFF84480 		ldr	r8, .L13+12
 274              	.LVL9:
 275              	.L7:
 276              	.LBB347:
  22:SynthV2.cpp   ****     {
  23:SynthV2.cpp   ****         // Apply parameter to oscillator freq
  24:SynthV2.cpp   ****         float freq = p_freq.Process();
 277              		.loc 17 24 9 is_stmt 1 discriminator 2 view .LVU62
 278              		.loc 17 24 36 is_stmt 0 discriminator 2 view .LVU63
 279 0022 0F48     		ldr	r0, .L13+8
 280              	.LBE347:
  21:SynthV2.cpp   ****     {
 281              		.loc 17 21 26 discriminator 2 view .LVU64
 282 0024 0834     		adds	r4, r4, #8
 283              	.LBB352:
 284              		.loc 17 24 36 discriminator 2 view .LVU65
 285 0026 FFF7FEFF 		bl	_ZN5daisy9Parameter7ProcessEv
 286              	.LVL10:
  25:SynthV2.cpp   **** 
  26:SynthV2.cpp   ****         osc.SetFreq(freq);
ARM GAS  /var/folders/hp/45mn71hd0ps5f5pnytxy5bt00000gn/T//ccpJ9dAn.s 			page 25


 287              		.loc 17 26 9 is_stmt 1 discriminator 2 view .LVU66
 288              	.LBB348:
 289              	.LBI348:
  25:../../DaisyExamples/DaisySP//Source/Synthesis/oscillator.h ****     /** Choices for output waveforms, POLYBLEP are appropriately labeled. Others are naive forms.
  26:../../DaisyExamples/DaisySP//Source/Synthesis/oscillator.h ****     */
  27:../../DaisyExamples/DaisySP//Source/Synthesis/oscillator.h ****     enum
  28:../../DaisyExamples/DaisySP//Source/Synthesis/oscillator.h ****     {
  29:../../DaisyExamples/DaisySP//Source/Synthesis/oscillator.h ****         WAVE_SIN,
  30:../../DaisyExamples/DaisySP//Source/Synthesis/oscillator.h ****         WAVE_TRI,
  31:../../DaisyExamples/DaisySP//Source/Synthesis/oscillator.h ****         WAVE_SAW,
  32:../../DaisyExamples/DaisySP//Source/Synthesis/oscillator.h ****         WAVE_RAMP,
  33:../../DaisyExamples/DaisySP//Source/Synthesis/oscillator.h ****         WAVE_SQUARE,
  34:../../DaisyExamples/DaisySP//Source/Synthesis/oscillator.h ****         WAVE_POLYBLEP_TRI,
  35:../../DaisyExamples/DaisySP//Source/Synthesis/oscillator.h ****         WAVE_POLYBLEP_SAW,
  36:../../DaisyExamples/DaisySP//Source/Synthesis/oscillator.h ****         WAVE_POLYBLEP_SQUARE,
  37:../../DaisyExamples/DaisySP//Source/Synthesis/oscillator.h ****         WAVE_LAST,
  38:../../DaisyExamples/DaisySP//Source/Synthesis/oscillator.h ****     };
  39:../../DaisyExamples/DaisySP//Source/Synthesis/oscillator.h **** 
  40:../../DaisyExamples/DaisySP//Source/Synthesis/oscillator.h **** 
  41:../../DaisyExamples/DaisySP//Source/Synthesis/oscillator.h ****     /** Initializes the Oscillator
  42:../../DaisyExamples/DaisySP//Source/Synthesis/oscillator.h **** 
  43:../../DaisyExamples/DaisySP//Source/Synthesis/oscillator.h ****         \param sample_rate - sample rate of the audio engine being run, and the frequency that the 
  44:../../DaisyExamples/DaisySP//Source/Synthesis/oscillator.h **** 
  45:../../DaisyExamples/DaisySP//Source/Synthesis/oscillator.h ****         Defaults:
  46:../../DaisyExamples/DaisySP//Source/Synthesis/oscillator.h ****         - freq_ = 100 Hz
  47:../../DaisyExamples/DaisySP//Source/Synthesis/oscillator.h ****         - amp_ = 0.5
  48:../../DaisyExamples/DaisySP//Source/Synthesis/oscillator.h ****         - waveform_ = sine wave.
  49:../../DaisyExamples/DaisySP//Source/Synthesis/oscillator.h ****     */
  50:../../DaisyExamples/DaisySP//Source/Synthesis/oscillator.h ****     void Init(float sample_rate)
  51:../../DaisyExamples/DaisySP//Source/Synthesis/oscillator.h ****     {
  52:../../DaisyExamples/DaisySP//Source/Synthesis/oscillator.h ****         sr_        = sample_rate;
  53:../../DaisyExamples/DaisySP//Source/Synthesis/oscillator.h ****         sr_recip_  = 1.0f / sample_rate;
  54:../../DaisyExamples/DaisySP//Source/Synthesis/oscillator.h ****         freq_      = 100.0f;
  55:../../DaisyExamples/DaisySP//Source/Synthesis/oscillator.h ****         amp_       = 0.5f;
  56:../../DaisyExamples/DaisySP//Source/Synthesis/oscillator.h ****         pw_        = 0.5f;
  57:../../DaisyExamples/DaisySP//Source/Synthesis/oscillator.h ****         phase_     = 0.0f;
  58:../../DaisyExamples/DaisySP//Source/Synthesis/oscillator.h ****         phase_inc_ = CalcPhaseInc(freq_);
  59:../../DaisyExamples/DaisySP//Source/Synthesis/oscillator.h ****         waveform_  = WAVE_SIN;
  60:../../DaisyExamples/DaisySP//Source/Synthesis/oscillator.h ****         eoc_       = true;
  61:../../DaisyExamples/DaisySP//Source/Synthesis/oscillator.h ****         eor_       = true;
  62:../../DaisyExamples/DaisySP//Source/Synthesis/oscillator.h ****     }
  63:../../DaisyExamples/DaisySP//Source/Synthesis/oscillator.h **** 
  64:../../DaisyExamples/DaisySP//Source/Synthesis/oscillator.h **** 
  65:../../DaisyExamples/DaisySP//Source/Synthesis/oscillator.h ****     /** Changes the frequency of the Oscillator, and recalculates phase increment.
  66:../../DaisyExamples/DaisySP//Source/Synthesis/oscillator.h ****     */
  67:../../DaisyExamples/DaisySP//Source/Synthesis/oscillator.h ****     inline void SetFreq(const float f)
 290              		.loc 16 67 17 discriminator 2 view .LVU67
 291              	.LBB349:
  68:../../DaisyExamples/DaisySP//Source/Synthesis/oscillator.h ****     {
  69:../../DaisyExamples/DaisySP//Source/Synthesis/oscillator.h ****         freq_      = f;
 292              		.loc 16 69 9 discriminator 2 view .LVU68
  70:../../DaisyExamples/DaisySP//Source/Synthesis/oscillator.h ****         phase_inc_ = CalcPhaseInc(f);
 293              		.loc 16 70 34 is_stmt 0 discriminator 2 view .LVU69
 294 002a 0C48     		ldr	r0, .L13+4
  69:../../DaisyExamples/DaisySP//Source/Synthesis/oscillator.h ****         phase_inc_ = CalcPhaseInc(f);
 295              		.loc 16 69 20 discriminator 2 view .LVU70
 296 002c 86ED020A 		vstr.32	s0, [r6, #8]
ARM GAS  /var/folders/hp/45mn71hd0ps5f5pnytxy5bt00000gn/T//ccpJ9dAn.s 			page 26


 297              		.loc 16 70 9 is_stmt 1 discriminator 2 view .LVU71
 298              		.loc 16 70 34 is_stmt 0 discriminator 2 view .LVU72
 299 0030 FFF7FEFF 		bl	_ZN7daisysp10Oscillator12CalcPhaseIncEf
 300              	.LVL11:
 301              		.loc 16 70 34 discriminator 2 view .LVU73
 302              	.LBE349:
 303              	.LBE348:
  27:SynthV2.cpp   ****         sig = osc.Process();
 304              		.loc 17 27 26 discriminator 2 view .LVU74
 305 0034 0948     		ldr	r0, .L13+4
 306              	.LBB351:
 307              	.LBB350:
 308              		.loc 16 70 20 discriminator 2 view .LVU75
 309 0036 86ED070A 		vstr.32	s0, [r6, #28]
 310              	.LVL12:
 311              		.loc 16 70 20 discriminator 2 view .LVU76
 312              	.LBE350:
 313              	.LBE351:
 314              		.loc 17 27 9 is_stmt 1 discriminator 2 view .LVU77
 315              		.loc 17 27 26 is_stmt 0 discriminator 2 view .LVU78
 316 003a FFF7FEFF 		bl	_ZN7daisysp10Oscillator7ProcessEv
 317              	.LVL13:
 318              	.LBE352:
  21:SynthV2.cpp   ****     {
 319              		.loc 17 21 26 discriminator 2 view .LVU79
 320 003e AF42     		cmp	r7, r5
 321              	.LBB353:
 322              		.loc 17 27 13 discriminator 2 view .LVU80
 323 0040 88ED000A 		vstr.32	s0, [r8]
  28:SynthV2.cpp   ****         out[i] = sig;
 324              		.loc 17 28 9 is_stmt 1 discriminator 2 view .LVU81
 325              	.LBE353:
  21:SynthV2.cpp   ****     {
 326              		.loc 17 21 26 is_stmt 0 discriminator 2 view .LVU82
 327 0044 05F10105 		add	r5, r5, #1
 328              	.LVL14:
 329              	.LBB354:
 330              		.loc 17 28 16 discriminator 2 view .LVU83
 331 0048 04ED020A 		vstr.32	s0, [r4, #-8]
  29:SynthV2.cpp   ****         out[i + 1] = sig;
 332              		.loc 17 29 9 is_stmt 1 discriminator 2 view .LVU84
 333              		.loc 17 29 20 is_stmt 0 discriminator 2 view .LVU85
 334 004c 04ED010A 		vstr.32	s0, [r4, #-4]
 335              	.LBE354:
  21:SynthV2.cpp   ****     {
 336              		.loc 17 21 5 is_stmt 1 discriminator 2 view .LVU86
 337              	.LVL15:
  21:SynthV2.cpp   ****     {
 338              		.loc 17 21 26 discriminator 2 view .LVU87
 339 0050 E7D1     		bne	.L7
 340              	.L5:
  21:SynthV2.cpp   ****     {
 341              		.loc 17 21 26 is_stmt 0 discriminator 2 view .LVU88
 342              	.LBE346:
  30:SynthV2.cpp   ****     }
  31:SynthV2.cpp   **** }
 343              		.loc 17 31 1 view .LVU89
ARM GAS  /var/folders/hp/45mn71hd0ps5f5pnytxy5bt00000gn/T//ccpJ9dAn.s 			page 27


 344 0052 BDE8F081 		pop	{r4, r5, r6, r7, r8, pc}
 345              	.L14:
 346 0056 00BF     		.align	2
 347              	.L13:
 348 0058 00000000 		.word	_ZL3pod
 349 005c 00000000 		.word	.LANCHOR1
 350 0060 00000000 		.word	.LANCHOR0
 351 0064 00000000 		.word	.LANCHOR2
 352              		.cfi_endproc
 353              	.LFE4854:
 355              		.section	.text.startup.main,"ax",%progbits
 356              		.align	1
 357              		.p2align 2,,3
 358              		.global	main
 359              		.syntax unified
 360              		.thumb
 361              		.thumb_func
 363              	main:
 364              	.LFB4855:
  32:SynthV2.cpp   **** 
  33:SynthV2.cpp   **** int main(void)
  34:SynthV2.cpp   **** {
 365              		.loc 17 34 1 is_stmt 1 view -0
 366              		.cfi_startproc
 367              		@ args = 0, pretend = 0, frame = 32
 368              		@ frame_needed = 0, uses_anonymous_args = 0
  35:SynthV2.cpp   ****     float samplerate;
 369              		.loc 17 35 5 view .LVU91
  36:SynthV2.cpp   **** 
  37:SynthV2.cpp   ****     pod.Init();
 370              		.loc 17 37 5 view .LVU92
  34:SynthV2.cpp   ****     float samplerate;
 371              		.loc 17 34 1 is_stmt 0 view .LVU93
 372 0000 30B5     		push	{r4, r5, lr}
 373              		.cfi_def_cfa_offset 12
 374              		.cfi_offset 4, -12
 375              		.cfi_offset 5, -8
 376              		.cfi_offset 14, -4
 377              		.loc 17 37 13 view .LVU94
 378 0002 0021     		movs	r1, #0
 379 0004 2F48     		ldr	r0, .L18
 380              	.LBB365:
 381              	.LBB366:
  52:../../DaisyExamples/DaisySP//Source/Synthesis/oscillator.h ****         sr_recip_  = 1.0f / sample_rate;
 382              		.loc 16 52 20 view .LVU95
 383 0006 304C     		ldr	r4, .L18+4
 384              	.LBE366:
 385              	.LBE365:
  38:SynthV2.cpp   ****     pod.SetAudioBlockSize(4);
  39:SynthV2.cpp   ****     samplerate = pod.AudioSampleRate();
  40:SynthV2.cpp   **** 
  41:SynthV2.cpp   ****     osc.Init(samplerate);
  42:SynthV2.cpp   ****     osc.SetWaveform(Oscillator::WAVE_TRI);
  43:SynthV2.cpp   ****     osc.SetFreq(400.0);
  44:SynthV2.cpp   ****     osc.SetAmp(0.1f);
  45:SynthV2.cpp   **** 
  46:SynthV2.cpp   ****     // Set parameter for knob1 
ARM GAS  /var/folders/hp/45mn71hd0ps5f5pnytxy5bt00000gn/T//ccpJ9dAn.s 			page 28


  47:SynthV2.cpp   ****     p_freq.Init(pod.knob1, 100, 2000, Parameter::LOGARITHMIC);
 386              		.loc 17 47 21 view .LVU96
 387 0008 304D     		ldr	r5, .L18+8
  34:SynthV2.cpp   ****     float samplerate;
 388              		.loc 17 34 1 view .LVU97
 389 000a 2DED028B 		vpush.64	{d8}
 390              		.cfi_def_cfa_offset 20
 391              		.cfi_offset 80, -20
 392              		.cfi_offset 81, -16
 393 000e 89B0     		sub	sp, sp, #36
 394              		.cfi_def_cfa_offset 56
 395              	.LBB371:
 396              	.LBB367:
  54:../../DaisyExamples/DaisySP//Source/Synthesis/oscillator.h ****         amp_       = 0.5f;
 397              		.loc 16 54 20 view .LVU98
 398 0010 9FED2F8A 		vldr.32	s16, .L18+12
 399              	.LBE367:
 400              	.LBE371:
  37:SynthV2.cpp   ****     pod.SetAudioBlockSize(4);
 401              		.loc 17 37 13 view .LVU99
 402 0014 FFF7FEFF 		bl	_ZN5daisy8DaisyPod4InitEb
 403              	.LVL16:
  38:SynthV2.cpp   ****     samplerate = pod.AudioSampleRate();
 404              		.loc 17 38 5 is_stmt 1 view .LVU100
  38:SynthV2.cpp   ****     samplerate = pod.AudioSampleRate();
 405              		.loc 17 38 26 is_stmt 0 view .LVU101
 406 0018 0421     		movs	r1, #4
 407 001a 2A48     		ldr	r0, .L18
 408 001c FFF7FEFF 		bl	_ZN5daisy8DaisyPod17SetAudioBlockSizeEj
 409              	.LVL17:
  39:SynthV2.cpp   **** 
 410              		.loc 17 39 5 is_stmt 1 view .LVU102
  39:SynthV2.cpp   **** 
 411              		.loc 17 39 37 is_stmt 0 view .LVU103
 412 0020 2848     		ldr	r0, .L18
 413 0022 FFF7FEFF 		bl	_ZN5daisy8DaisyPod15AudioSampleRateEv
 414              	.LVL18:
 415              	.LBB372:
 416              	.LBB368:
  53:../../DaisyExamples/DaisySP//Source/Synthesis/oscillator.h ****         freq_      = 100.0f;
 417              		.loc 16 53 27 view .LVU104
 418 0026 F7EE006A 		vmov.f32	s13, #1.0e+0
 419              	.LBE368:
 420              	.LBE372:
  39:SynthV2.cpp   **** 
 421              		.loc 17 39 37 view .LVU105
 422 002a F0EE407A 		vmov.f32	s15, s0
 423              	.LVL19:
  41:SynthV2.cpp   ****     osc.SetWaveform(Oscillator::WAVE_TRI);
 424              		.loc 17 41 5 is_stmt 1 view .LVU106
 425              	.LBB373:
 426              	.LBI365:
  50:../../DaisyExamples/DaisySP//Source/Synthesis/oscillator.h ****     {
 427              		.loc 16 50 10 view .LVU107
 428              	.LBB369:
  52:../../DaisyExamples/DaisySP//Source/Synthesis/oscillator.h ****         sr_recip_  = 1.0f / sample_rate;
 429              		.loc 16 52 9 view .LVU108
ARM GAS  /var/folders/hp/45mn71hd0ps5f5pnytxy5bt00000gn/T//ccpJ9dAn.s 			page 29


  55:../../DaisyExamples/DaisySP//Source/Synthesis/oscillator.h ****         pw_        = 0.5f;
 430              		.loc 16 55 20 is_stmt 0 view .LVU109
 431 002e 4FF07C53 		mov	r3, #1056964608
  57:../../DaisyExamples/DaisySP//Source/Synthesis/oscillator.h ****         phase_inc_ = CalcPhaseInc(freq_);
 432              		.loc 16 57 20 view .LVU110
 433 0032 0022     		movs	r2, #0
  58:../../DaisyExamples/DaisySP//Source/Synthesis/oscillator.h ****         waveform_  = WAVE_SIN;
 434              		.loc 16 58 34 view .LVU111
 435 0034 2046     		mov	r0, r4
  53:../../DaisyExamples/DaisySP//Source/Synthesis/oscillator.h ****         freq_      = 100.0f;
 436              		.loc 16 53 27 view .LVU112
 437 0036 86EE807A 		vdiv.f32	s14, s13, s0
  55:../../DaisyExamples/DaisySP//Source/Synthesis/oscillator.h ****         pw_        = 0.5f;
 438              		.loc 16 55 20 view .LVU113
 439 003a 6360     		str	r3, [r4, #4]	@ float
  52:../../DaisyExamples/DaisySP//Source/Synthesis/oscillator.h ****         sr_recip_  = 1.0f / sample_rate;
 440              		.loc 16 52 20 view .LVU114
 441 003c C4ED047A 		vstr.32	s15, [r4, #16]
  53:../../DaisyExamples/DaisySP//Source/Synthesis/oscillator.h ****         freq_      = 100.0f;
 442              		.loc 16 53 9 is_stmt 1 view .LVU115
  56:../../DaisyExamples/DaisySP//Source/Synthesis/oscillator.h ****         phase_     = 0.0f;
 443              		.loc 16 56 20 is_stmt 0 view .LVU116
 444 0040 E360     		str	r3, [r4, #12]	@ float
  57:../../DaisyExamples/DaisySP//Source/Synthesis/oscillator.h ****         phase_inc_ = CalcPhaseInc(freq_);
 445              		.loc 16 57 20 view .LVU117
 446 0042 A261     		str	r2, [r4, #24]	@ float
  54:../../DaisyExamples/DaisySP//Source/Synthesis/oscillator.h ****         amp_       = 0.5f;
 447              		.loc 16 54 20 view .LVU118
 448 0044 84ED028A 		vstr.32	s16, [r4, #8]
  58:../../DaisyExamples/DaisySP//Source/Synthesis/oscillator.h ****         waveform_  = WAVE_SIN;
 449              		.loc 16 58 34 view .LVU119
 450 0048 B0EE480A 		vmov.f32	s0, s16
 451              	.LVL20:
  53:../../DaisyExamples/DaisySP//Source/Synthesis/oscillator.h ****         freq_      = 100.0f;
 452              		.loc 16 53 20 view .LVU120
 453 004c 84ED057A 		vstr.32	s14, [r4, #20]
  54:../../DaisyExamples/DaisySP//Source/Synthesis/oscillator.h ****         amp_       = 0.5f;
 454              		.loc 16 54 9 is_stmt 1 view .LVU121
  55:../../DaisyExamples/DaisySP//Source/Synthesis/oscillator.h ****         pw_        = 0.5f;
 455              		.loc 16 55 9 view .LVU122
  56:../../DaisyExamples/DaisySP//Source/Synthesis/oscillator.h ****         phase_     = 0.0f;
 456              		.loc 16 56 9 view .LVU123
  57:../../DaisyExamples/DaisySP//Source/Synthesis/oscillator.h ****         phase_inc_ = CalcPhaseInc(freq_);
 457              		.loc 16 57 9 view .LVU124
  58:../../DaisyExamples/DaisySP//Source/Synthesis/oscillator.h ****         waveform_  = WAVE_SIN;
 458              		.loc 16 58 9 view .LVU125
  58:../../DaisyExamples/DaisySP//Source/Synthesis/oscillator.h ****         waveform_  = WAVE_SIN;
 459              		.loc 16 58 34 is_stmt 0 view .LVU126
 460 0050 FFF7FEFF 		bl	_ZN7daisysp10Oscillator12CalcPhaseIncEf
 461              	.LVL21:
  58:../../DaisyExamples/DaisySP//Source/Synthesis/oscillator.h ****         waveform_  = WAVE_SIN;
 462              		.loc 16 58 34 view .LVU127
 463 0054 F0EE407A 		vmov.f32	s15, s0
  61:../../DaisyExamples/DaisySP//Source/Synthesis/oscillator.h ****     }
 464              		.loc 16 61 20 view .LVU128
 465 0058 40F20112 		movw	r2, #257
 466              	.LBE369:
ARM GAS  /var/folders/hp/45mn71hd0ps5f5pnytxy5bt00000gn/T//ccpJ9dAn.s 			page 30


 467              	.LBE373:
 468              	.LBB374:
 469              	.LBB375:
  71:../../DaisyExamples/DaisySP//Source/Synthesis/oscillator.h ****     }
  72:../../DaisyExamples/DaisySP//Source/Synthesis/oscillator.h **** 
  73:../../DaisyExamples/DaisySP//Source/Synthesis/oscillator.h **** 
  74:../../DaisyExamples/DaisySP//Source/Synthesis/oscillator.h ****     /** Sets the amplitude of the waveform.
  75:../../DaisyExamples/DaisySP//Source/Synthesis/oscillator.h ****     */
  76:../../DaisyExamples/DaisySP//Source/Synthesis/oscillator.h ****     inline void SetAmp(const float a) { amp_ = a; }
  77:../../DaisyExamples/DaisySP//Source/Synthesis/oscillator.h ****     /** Sets the waveform to be synthesized by the Process() function.
  78:../../DaisyExamples/DaisySP//Source/Synthesis/oscillator.h ****     */
  79:../../DaisyExamples/DaisySP//Source/Synthesis/oscillator.h ****     inline void SetWaveform(const uint8_t wf)
  80:../../DaisyExamples/DaisySP//Source/Synthesis/oscillator.h ****     {
  81:../../DaisyExamples/DaisySP//Source/Synthesis/oscillator.h ****         waveform_ = wf < WAVE_LAST ? wf : WAVE_SIN;
 470              		.loc 16 81 19 view .LVU129
 471 005c 0123     		movs	r3, #1
 472              	.LBE375:
 473              	.LBE374:
 474              	.LBB377:
 475              	.LBB378:
  69:../../DaisyExamples/DaisySP//Source/Synthesis/oscillator.h ****         phase_inc_ = CalcPhaseInc(f);
 476              		.loc 16 69 20 view .LVU130
 477 005e 9FED1D0A 		vldr.32	s0, .L18+16
  70:../../DaisyExamples/DaisySP//Source/Synthesis/oscillator.h ****     }
 478              		.loc 16 70 34 view .LVU131
 479 0062 2046     		mov	r0, r4
 480              	.LBE378:
 481              	.LBE377:
 482              	.LBB382:
 483              	.LBB370:
  61:../../DaisyExamples/DaisySP//Source/Synthesis/oscillator.h ****     }
 484              		.loc 16 61 20 view .LVU132
 485 0064 2285     		strh	r2, [r4, #40]	@ movhi
  58:../../DaisyExamples/DaisySP//Source/Synthesis/oscillator.h ****         waveform_  = WAVE_SIN;
 486              		.loc 16 58 20 view .LVU133
 487 0066 C4ED077A 		vstr.32	s15, [r4, #28]
  59:../../DaisyExamples/DaisySP//Source/Synthesis/oscillator.h ****         eoc_       = true;
 488              		.loc 16 59 9 is_stmt 1 view .LVU134
  60:../../DaisyExamples/DaisySP//Source/Synthesis/oscillator.h ****         eor_       = true;
 489              		.loc 16 60 9 view .LVU135
  61:../../DaisyExamples/DaisySP//Source/Synthesis/oscillator.h ****     }
 490              		.loc 16 61 9 view .LVU136
 491              	.LVL22:
  61:../../DaisyExamples/DaisySP//Source/Synthesis/oscillator.h ****     }
 492              		.loc 16 61 9 is_stmt 0 view .LVU137
 493              	.LBE370:
 494              	.LBE382:
  42:SynthV2.cpp   ****     osc.SetFreq(400.0);
 495              		.loc 17 42 5 is_stmt 1 view .LVU138
 496              	.LBB383:
 497              	.LBI374:
  79:../../DaisyExamples/DaisySP//Source/Synthesis/oscillator.h ****     {
 498              		.loc 16 79 17 view .LVU139
 499              	.LBB376:
 500              		.loc 16 81 9 view .LVU140
 501              		.loc 16 81 19 is_stmt 0 view .LVU141
 502 006a 2370     		strb	r3, [r4]
ARM GAS  /var/folders/hp/45mn71hd0ps5f5pnytxy5bt00000gn/T//ccpJ9dAn.s 			page 31


 503              	.LVL23:
 504              		.loc 16 81 19 view .LVU142
 505              	.LBE376:
 506              	.LBE383:
  43:SynthV2.cpp   ****     osc.SetAmp(0.1f);
 507              		.loc 17 43 5 is_stmt 1 view .LVU143
 508              	.LBB384:
 509              	.LBI377:
  67:../../DaisyExamples/DaisySP//Source/Synthesis/oscillator.h ****     {
 510              		.loc 16 67 17 view .LVU144
 511              	.LBB379:
  69:../../DaisyExamples/DaisySP//Source/Synthesis/oscillator.h ****         phase_inc_ = CalcPhaseInc(f);
 512              		.loc 16 69 9 view .LVU145
  70:../../DaisyExamples/DaisySP//Source/Synthesis/oscillator.h ****     }
 513              		.loc 16 70 9 view .LVU146
  69:../../DaisyExamples/DaisySP//Source/Synthesis/oscillator.h ****         phase_inc_ = CalcPhaseInc(f);
 514              		.loc 16 69 20 is_stmt 0 view .LVU147
 515 006c 84ED020A 		vstr.32	s0, [r4, #8]
  70:../../DaisyExamples/DaisySP//Source/Synthesis/oscillator.h ****     }
 516              		.loc 16 70 34 view .LVU148
 517 0070 FFF7FEFF 		bl	_ZN7daisysp10Oscillator12CalcPhaseIncEf
 518              	.LVL24:
 519              	.LBE379:
 520              	.LBE384:
 521              	.LBB385:
 522              	.LBB386:
  76:../../DaisyExamples/DaisySP//Source/Synthesis/oscillator.h ****     /** Sets the waveform to be synthesized by the Process() function.
 523              		.loc 16 76 46 view .LVU149
 524 0074 184B     		ldr	r3, .L18+20
 525              	.LBE386:
 526              	.LBE385:
 527              		.loc 17 47 21 view .LVU150
 528 0076 EC46     		mov	ip, sp
 529              	.LBB389:
 530              	.LBB380:
  70:../../DaisyExamples/DaisySP//Source/Synthesis/oscillator.h ****     }
 531              		.loc 16 70 34 view .LVU151
 532 0078 F0EE407A 		vmov.f32	s15, s0
 533              	.LBE380:
 534              	.LBE389:
 535              		.loc 17 47 16 view .LVU152
 536 007c DFED170A 		vldr.32	s1, .L18+24
 537              	.LBB390:
 538              	.LBB387:
  76:../../DaisyExamples/DaisySP//Source/Synthesis/oscillator.h ****     /** Sets the waveform to be synthesized by the Process() function.
 539              		.loc 16 76 46 view .LVU153
 540 0080 6360     		str	r3, [r4, #4]	@ float
 541              	.LBE387:
 542              	.LBE390:
 543              		.loc 17 47 16 view .LVU154
 544 0082 B0EE480A 		vmov.f32	s0, s16
 545              		.loc 17 47 21 view .LVU155
 546 0086 0FCD     		ldmia	r5!, {r0, r1, r2, r3}
 547 0088 ACE80F00 		stmia	ip!, {r0, r1, r2, r3}
 548 008c 95E80F00 		ldm	r5, {r0, r1, r2, r3}
 549 0090 8CE80F00 		stm	ip, {r0, r1, r2, r3}
 550              		.loc 17 47 16 view .LVU156
ARM GAS  /var/folders/hp/45mn71hd0ps5f5pnytxy5bt00000gn/T//ccpJ9dAn.s 			page 32


 551 0094 6946     		mov	r1, sp
 552 0096 0222     		movs	r2, #2
 553 0098 1148     		ldr	r0, .L18+28
 554              	.LBB391:
 555              	.LBB381:
  70:../../DaisyExamples/DaisySP//Source/Synthesis/oscillator.h ****     }
 556              		.loc 16 70 20 view .LVU157
 557 009a C4ED077A 		vstr.32	s15, [r4, #28]
 558              	.LVL25:
  70:../../DaisyExamples/DaisySP//Source/Synthesis/oscillator.h ****     }
 559              		.loc 16 70 20 view .LVU158
 560              	.LBE381:
 561              	.LBE391:
  44:SynthV2.cpp   **** 
 562              		.loc 17 44 5 is_stmt 1 view .LVU159
 563              	.LBB392:
 564              	.LBI385:
  76:../../DaisyExamples/DaisySP//Source/Synthesis/oscillator.h ****     /** Sets the waveform to be synthesized by the Process() function.
 565              		.loc 16 76 17 view .LVU160
 566              	.LBB388:
  76:../../DaisyExamples/DaisySP//Source/Synthesis/oscillator.h ****     /** Sets the waveform to be synthesized by the Process() function.
 567              		.loc 16 76 41 view .LVU161
  76:../../DaisyExamples/DaisySP//Source/Synthesis/oscillator.h ****     /** Sets the waveform to be synthesized by the Process() function.
 568              		.loc 16 76 41 is_stmt 0 view .LVU162
 569              	.LBE388:
 570              	.LBE392:
 571              		.loc 17 47 5 is_stmt 1 view .LVU163
 572              		.loc 17 47 16 is_stmt 0 view .LVU164
 573 009e FFF7FEFF 		bl	_ZN5daisy9Parameter4InitENS_13AnalogControlEffNS0_5CurveE
 574              	.LVL26:
 575              	.LBB393:
 576              	.LBI393:
 577              		.loc 2 23 5 is_stmt 1 view .LVU165
 578              		.loc 2 23 5 is_stmt 0 view .LVU166
 579              	.LBE393:
  48:SynthV2.cpp   ****     // Apply parameter to oscillator freq
  49:SynthV2.cpp   ****     freq = p_freq.Process();
 580              		.loc 17 49 5 is_stmt 1 view .LVU167
 581              		.loc 17 49 26 is_stmt 0 view .LVU168
 582 00a2 0F48     		ldr	r0, .L18+28
 583 00a4 FFF7FEFF 		bl	_ZN5daisy9Parameter7ProcessEv
 584              	.LVL27:
 585              		.loc 17 49 10 view .LVU169
 586 00a8 0E4B     		ldr	r3, .L18+32
  50:SynthV2.cpp   **** 
  51:SynthV2.cpp   ****     pod.StartAdc();
 587              		.loc 17 51 17 view .LVU170
 588 00aa A5F17800 		sub	r0, r5, #120
  49:SynthV2.cpp   **** 
 589              		.loc 17 49 10 view .LVU171
 590 00ae 83ED000A 		vstr.32	s0, [r3]
 591              		.loc 17 51 5 is_stmt 1 view .LVU172
 592              		.loc 17 51 17 is_stmt 0 view .LVU173
 593 00b2 FFF7FEFF 		bl	_ZN5daisy8DaisyPod8StartAdcEv
 594              	.LVL28:
  52:SynthV2.cpp   ****     pod.StartAudio(AudioCallback);
 595              		.loc 17 52 5 is_stmt 1 view .LVU174
ARM GAS  /var/folders/hp/45mn71hd0ps5f5pnytxy5bt00000gn/T//ccpJ9dAn.s 			page 33


 596              		.loc 17 52 19 is_stmt 0 view .LVU175
 597 00b6 0C49     		ldr	r1, .L18+36
 598 00b8 A5F17800 		sub	r0, r5, #120
 599 00bc FFF7FEFF 		bl	_ZN5daisy8DaisyPod10StartAudioEPFvPKfPfjE
 600              	.LVL29:
 601              	.L16:
  53:SynthV2.cpp   **** 
  54:SynthV2.cpp   ****     while (1) {}
 602              		.loc 17 54 5 is_stmt 1 discriminator 1 view .LVU176
 603              		.loc 17 54 5 discriminator 1 view .LVU177
 604              		.loc 17 54 5 discriminator 1 view .LVU178
 605              		.loc 17 54 5 discriminator 1 view .LVU179
 606 00c0 FEE7     		b	.L16
 607              	.L19:
 608 00c2 00BF     		.align	2
 609              	.L18:
 610 00c4 00000000 		.word	_ZL3pod
 611 00c8 00000000 		.word	.LANCHOR1
 612 00cc 68000000 		.word	_ZL3pod+104
 613 00d0 0000C842 		.word	1120403456
 614 00d4 0000C843 		.word	1137180672
 615 00d8 CDCCCC3D 		.word	1036831949
 616 00dc 0000FA44 		.word	1157234688
 617 00e0 00000000 		.word	.LANCHOR0
 618 00e4 00000000 		.word	.LANCHOR3
 619 00e8 00000000 		.word	_ZL13AudioCallbackPKfPfj
 620              		.cfi_endproc
 621              	.LFE4855:
 623              		.section	.text.startup._GLOBAL__sub_I_sig,"ax",%progbits
 624              		.align	1
 625              		.p2align 2,,3
 626              		.syntax unified
 627              		.thumb
 628              		.thumb_func
 630              	_GLOBAL__sub_I_sig:
 631              	.LFB5439:
  55:SynthV2.cpp   **** }
 632              		.loc 17 55 1 view -0
 633              		.cfi_startproc
 634              		@ args = 0, pretend = 0, frame = 0
 635              		@ frame_needed = 0, uses_anonymous_args = 0
 636              	.LBB470:
 637              	.LBI470:
 638              		.loc 17 55 1 view .LVU181
 639              	.LVL30:
 640              	.LBB471:
 641              	.LBB472:
 642              	.LBI472:
  35:../../DaisyExamples/libDaisy//src/daisy_pod.h ****     ~DaisyPod() {}
 643              		.loc 3 35 5 view .LVU182
 644              	.LBB473:
 645              	.LBB474:
 646              	.LBI474:
  21:../../DaisyExamples/libDaisy//src/daisy_seed.h ****     ~DaisySeed() {}
 647              		.loc 11 21 5 view .LVU183
 648              	.LBB475:
 649              	.LBB476:
ARM GAS  /var/folders/hp/45mn71hd0ps5f5pnytxy5bt00000gn/T//ccpJ9dAn.s 			page 34


 650              	.LBI476:
 651              		.file 18 "../../DaisyExamples/libDaisy//src/per/qspi.h"
   1:../../DaisyExamples/libDaisy//src/per/qspi.h **** #ifndef DSY_QSPI
   2:../../DaisyExamples/libDaisy//src/per/qspi.h **** #define DSY_QSPI /**< Macro */
   3:../../DaisyExamples/libDaisy//src/per/qspi.h **** 
   4:../../DaisyExamples/libDaisy//src/per/qspi.h **** #ifndef UNIT_TEST // for unit tests, a dummy implementation
   5:../../DaisyExamples/libDaisy//src/per/qspi.h **** 
   6:../../DaisyExamples/libDaisy//src/per/qspi.h **** #include <cstdint>
   7:../../DaisyExamples/libDaisy//src/per/qspi.h **** #include "daisy_core.h" // Added for dsy_gpio_pin typedef
   8:../../DaisyExamples/libDaisy//src/per/qspi.h **** 
   9:../../DaisyExamples/libDaisy//src/per/qspi.h **** #define DSY_QSPI_TEXT       \
  10:../../DaisyExamples/libDaisy//src/per/qspi.h ****     __attribute__((section( \
  11:../../DaisyExamples/libDaisy//src/per/qspi.h ****         ".qspiflash_text"))) /**< used for reading memory in memory_mapped mode. */
  12:../../DaisyExamples/libDaisy//src/per/qspi.h **** #define DSY_QSPI_DATA       \
  13:../../DaisyExamples/libDaisy//src/per/qspi.h ****     __attribute__((section( \
  14:../../DaisyExamples/libDaisy//src/per/qspi.h ****         ".qspiflash_data"))) /**< used for reading memory in memory_mapped mode. */
  15:../../DaisyExamples/libDaisy//src/per/qspi.h **** #define DSY_QSPI_BSS        \
  16:../../DaisyExamples/libDaisy//src/per/qspi.h ****     __attribute__((section( \
  17:../../DaisyExamples/libDaisy//src/per/qspi.h ****         ".qspiflash_bss"))) /**< used for reading memory in memory_mapped mode. */
  18:../../DaisyExamples/libDaisy//src/per/qspi.h **** 
  19:../../DaisyExamples/libDaisy//src/per/qspi.h **** namespace daisy
  20:../../DaisyExamples/libDaisy//src/per/qspi.h **** {
  21:../../DaisyExamples/libDaisy//src/per/qspi.h **** /** @addtogroup serial
  22:../../DaisyExamples/libDaisy//src/per/qspi.h **** @{
  23:../../DaisyExamples/libDaisy//src/per/qspi.h **** */
  24:../../DaisyExamples/libDaisy//src/per/qspi.h **** 
  25:../../DaisyExamples/libDaisy//src/per/qspi.h **** /** 
  26:../../DaisyExamples/libDaisy//src/per/qspi.h ****  Driver for QSPI peripheral to interface with external flash memory. \n 
  27:../../DaisyExamples/libDaisy//src/per/qspi.h ****     Currently supported QSPI Devices: \n 
  28:../../DaisyExamples/libDaisy//src/per/qspi.h ****     * IS25LP080D
  29:../../DaisyExamples/libDaisy//src/per/qspi.h **** */
  30:../../DaisyExamples/libDaisy//src/per/qspi.h **** class QSPIHandle
  31:../../DaisyExamples/libDaisy//src/per/qspi.h **** {
  32:../../DaisyExamples/libDaisy//src/per/qspi.h ****   public:
  33:../../DaisyExamples/libDaisy//src/per/qspi.h ****     enum Result
  34:../../DaisyExamples/libDaisy//src/per/qspi.h ****     {
  35:../../DaisyExamples/libDaisy//src/per/qspi.h ****         OK = 0,
  36:../../DaisyExamples/libDaisy//src/per/qspi.h ****         ERR
  37:../../DaisyExamples/libDaisy//src/per/qspi.h ****     };
  38:../../DaisyExamples/libDaisy//src/per/qspi.h **** 
  39:../../DaisyExamples/libDaisy//src/per/qspi.h ****     /** Indicates the current status of the module. 
  40:../../DaisyExamples/libDaisy//src/per/qspi.h ****          *  Warnings are indicated by a leading W.
  41:../../DaisyExamples/libDaisy//src/per/qspi.h ****          *  Errors are indicated by a leading E and cause an immediate exit.
  42:../../DaisyExamples/libDaisy//src/per/qspi.h ****          * 
  43:../../DaisyExamples/libDaisy//src/per/qspi.h ****          *  \param GOOD - No errors have been reported.
  44:../../DaisyExamples/libDaisy//src/per/qspi.h ****          *  \param E_HAL_ERROR - HAL code did not return HAL_OK.
  45:../../DaisyExamples/libDaisy//src/per/qspi.h ****          *  \param E_SWITCHING_MODES - An error was encountered while switching QSPI peripheral mod
  46:../../DaisyExamples/libDaisy//src/per/qspi.h ****          *  \param E_INVALID_MODE - QSPI should not be written to while the program is executing fr
  47:../../DaisyExamples/libDaisy//src/per/qspi.h ****          */
  48:../../DaisyExamples/libDaisy//src/per/qspi.h ****     enum Status
  49:../../DaisyExamples/libDaisy//src/per/qspi.h ****     {
  50:../../DaisyExamples/libDaisy//src/per/qspi.h ****         GOOD = 0,
  51:../../DaisyExamples/libDaisy//src/per/qspi.h ****         E_HAL_ERROR,
  52:../../DaisyExamples/libDaisy//src/per/qspi.h ****         E_SWITCHING_MODES,
  53:../../DaisyExamples/libDaisy//src/per/qspi.h ****         E_INVALID_MODE,
  54:../../DaisyExamples/libDaisy//src/per/qspi.h ****     };
  55:../../DaisyExamples/libDaisy//src/per/qspi.h **** 
ARM GAS  /var/folders/hp/45mn71hd0ps5f5pnytxy5bt00000gn/T//ccpJ9dAn.s 			page 35


  56:../../DaisyExamples/libDaisy//src/per/qspi.h ****     /** Configuration structure for interfacing with QSPI Driver */
  57:../../DaisyExamples/libDaisy//src/per/qspi.h ****     struct Config
  58:../../DaisyExamples/libDaisy//src/per/qspi.h ****     {
  59:../../DaisyExamples/libDaisy//src/per/qspi.h ****         /** Flash Devices supported. (Both of these are more-or-less the same, just different sizes
  60:../../DaisyExamples/libDaisy//src/per/qspi.h ****         enum Device
  61:../../DaisyExamples/libDaisy//src/per/qspi.h ****         {
  62:../../DaisyExamples/libDaisy//src/per/qspi.h ****             IS25LP080D,  /**< & */
  63:../../DaisyExamples/libDaisy//src/per/qspi.h ****             IS25LP064A,  /**< & */
  64:../../DaisyExamples/libDaisy//src/per/qspi.h ****             DEVICE_LAST, /**< & */
  65:../../DaisyExamples/libDaisy//src/per/qspi.h ****         };
  66:../../DaisyExamples/libDaisy//src/per/qspi.h **** 
  67:../../DaisyExamples/libDaisy//src/per/qspi.h ****         /** 
  68:../../DaisyExamples/libDaisy//src/per/qspi.h ****         Modes of operation.
  69:../../DaisyExamples/libDaisy//src/per/qspi.h ****         Memory Mapped mode: QSPI configured so that the QSPI can be
  70:../../DaisyExamples/libDaisy//src/per/qspi.h ****         read from starting address 0x90000000. Writing is not
  71:../../DaisyExamples/libDaisy//src/per/qspi.h ****         possible in this mode. \n 
  72:../../DaisyExamples/libDaisy//src/per/qspi.h ****         Indirect Polling mode: Device driver enabled. 
  73:../../DaisyExamples/libDaisy//src/per/qspi.h ****         */
  74:../../DaisyExamples/libDaisy//src/per/qspi.h ****         enum Mode
  75:../../DaisyExamples/libDaisy//src/per/qspi.h ****         {
  76:../../DaisyExamples/libDaisy//src/per/qspi.h ****             MEMORY_MAPPED,    /**< & */
  77:../../DaisyExamples/libDaisy//src/per/qspi.h ****             INDIRECT_POLLING, /**< & */
  78:../../DaisyExamples/libDaisy//src/per/qspi.h ****             MODE_LAST,
  79:../../DaisyExamples/libDaisy//src/per/qspi.h ****         };
  80:../../DaisyExamples/libDaisy//src/per/qspi.h **** 
  81:../../DaisyExamples/libDaisy//src/per/qspi.h ****         //SCK,  CE# (active low)
  82:../../DaisyExamples/libDaisy//src/per/qspi.h ****         struct
  83:../../DaisyExamples/libDaisy//src/per/qspi.h ****         {
  84:../../DaisyExamples/libDaisy//src/per/qspi.h ****             dsy_gpio_pin io0; /**< & */
  85:../../DaisyExamples/libDaisy//src/per/qspi.h ****             dsy_gpio_pin io1; /**< & */
  86:../../DaisyExamples/libDaisy//src/per/qspi.h ****             dsy_gpio_pin io2; /**< & */
  87:../../DaisyExamples/libDaisy//src/per/qspi.h ****             dsy_gpio_pin io3; /**< & */
  88:../../DaisyExamples/libDaisy//src/per/qspi.h ****             dsy_gpio_pin clk; /**< & */
  89:../../DaisyExamples/libDaisy//src/per/qspi.h ****             dsy_gpio_pin ncs; /**< & */
  90:../../DaisyExamples/libDaisy//src/per/qspi.h ****         } pin_config;
  91:../../DaisyExamples/libDaisy//src/per/qspi.h **** 
  92:../../DaisyExamples/libDaisy//src/per/qspi.h ****         Device device;
  93:../../DaisyExamples/libDaisy//src/per/qspi.h ****         Mode   mode;
  94:../../DaisyExamples/libDaisy//src/per/qspi.h ****     };
  95:../../DaisyExamples/libDaisy//src/per/qspi.h **** 
  96:../../DaisyExamples/libDaisy//src/per/qspi.h ****     /** 
  97:../../DaisyExamples/libDaisy//src/per/qspi.h ****         Initializes QSPI peripheral, and Resets, and prepares memory for access.
  98:../../DaisyExamples/libDaisy//src/per/qspi.h ****         \param config should be populated with the mode, device and pin_config before calling this 
  99:../../DaisyExamples/libDaisy//src/per/qspi.h ****         \return Result::OK or Result::ERR
 100:../../DaisyExamples/libDaisy//src/per/qspi.h ****         */
 101:../../DaisyExamples/libDaisy//src/per/qspi.h ****     Result Init(const Config& config);
 102:../../DaisyExamples/libDaisy//src/per/qspi.h **** 
 103:../../DaisyExamples/libDaisy//src/per/qspi.h ****     /** Returns the current config. */
 104:../../DaisyExamples/libDaisy//src/per/qspi.h ****     const Config& GetConfig() const;
 105:../../DaisyExamples/libDaisy//src/per/qspi.h **** 
 106:../../DaisyExamples/libDaisy//src/per/qspi.h ****     // Couldn't this just be called before anything else in init? That
 107:../../DaisyExamples/libDaisy//src/per/qspi.h ****     // would make manually calling it unnecessary.
 108:../../DaisyExamples/libDaisy//src/per/qspi.h ****     /** 
 109:../../DaisyExamples/libDaisy//src/per/qspi.h ****         Deinitializes the peripheral
 110:../../DaisyExamples/libDaisy//src/per/qspi.h ****         This should be called before reinitializing QSPI in a different mode.
 111:../../DaisyExamples/libDaisy//src/per/qspi.h ****         \return Result::OK or Result::ERR
 112:../../DaisyExamples/libDaisy//src/per/qspi.h ****         */
ARM GAS  /var/folders/hp/45mn71hd0ps5f5pnytxy5bt00000gn/T//ccpJ9dAn.s 			page 36


 113:../../DaisyExamples/libDaisy//src/per/qspi.h ****     Result DeInit();
 114:../../DaisyExamples/libDaisy//src/per/qspi.h **** 
 115:../../DaisyExamples/libDaisy//src/per/qspi.h ****     /** 
 116:../../DaisyExamples/libDaisy//src/per/qspi.h ****         Writes a single page to to the specified address on the QSPI chip.
 117:../../DaisyExamples/libDaisy//src/per/qspi.h ****         For IS25LP*, page size is 256 bytes.
 118:../../DaisyExamples/libDaisy//src/per/qspi.h ****         \param address Address to write to
 119:../../DaisyExamples/libDaisy//src/per/qspi.h ****         \param size Buffer size
 120:../../DaisyExamples/libDaisy//src/per/qspi.h ****         \param buffer Buffer to write
 121:../../DaisyExamples/libDaisy//src/per/qspi.h ****         \return Result::OK or Result::ERR
 122:../../DaisyExamples/libDaisy//src/per/qspi.h ****         */
 123:../../DaisyExamples/libDaisy//src/per/qspi.h ****     Result WritePage(uint32_t address, uint32_t size, uint8_t* buffer);
 124:../../DaisyExamples/libDaisy//src/per/qspi.h **** 
 125:../../DaisyExamples/libDaisy//src/per/qspi.h ****     /** 
 126:../../DaisyExamples/libDaisy//src/per/qspi.h ****         Writes data in buffer to to the QSPI. Starting at address to address+size 
 127:../../DaisyExamples/libDaisy//src/per/qspi.h ****         \param address Address to write to
 128:../../DaisyExamples/libDaisy//src/per/qspi.h ****         \param size Buffer size
 129:../../DaisyExamples/libDaisy//src/per/qspi.h ****         \param buffer Buffer to write
 130:../../DaisyExamples/libDaisy//src/per/qspi.h ****         \return Result::OK or Result::ERR
 131:../../DaisyExamples/libDaisy//src/per/qspi.h ****         */
 132:../../DaisyExamples/libDaisy//src/per/qspi.h ****     Result Write(uint32_t address, uint32_t size, uint8_t* buffer);
 133:../../DaisyExamples/libDaisy//src/per/qspi.h **** 
 134:../../DaisyExamples/libDaisy//src/per/qspi.h ****     /** 
 135:../../DaisyExamples/libDaisy//src/per/qspi.h ****         Erases the area specified on the chip.
 136:../../DaisyExamples/libDaisy//src/per/qspi.h ****         Erasures will happen by 4K, 32K or 64K increments.
 137:../../DaisyExamples/libDaisy//src/per/qspi.h ****         Smallest erase possible is 4kB at a time. (on IS25LP*)
 138:../../DaisyExamples/libDaisy//src/per/qspi.h ****         \param start_addr Address to begin erasing from
 139:../../DaisyExamples/libDaisy//src/per/qspi.h ****         \param end_addr  Address to stop erasing at
 140:../../DaisyExamples/libDaisy//src/per/qspi.h ****         \return Result::OK or Result::ERR
 141:../../DaisyExamples/libDaisy//src/per/qspi.h ****         */
 142:../../DaisyExamples/libDaisy//src/per/qspi.h ****     Result Erase(uint32_t start_addr, uint32_t end_addr);
 143:../../DaisyExamples/libDaisy//src/per/qspi.h **** 
 144:../../DaisyExamples/libDaisy//src/per/qspi.h ****     /**  
 145:../../DaisyExamples/libDaisy//src/per/qspi.h ****          Erases a single sector of the chip.  
 146:../../DaisyExamples/libDaisy//src/per/qspi.h ****         TODO: Document the size of this function. 
 147:../../DaisyExamples/libDaisy//src/per/qspi.h ****         \param address Address of sector to erase
 148:../../DaisyExamples/libDaisy//src/per/qspi.h ****         \return Result::OK or Result::ERR
 149:../../DaisyExamples/libDaisy//src/per/qspi.h ****         */
 150:../../DaisyExamples/libDaisy//src/per/qspi.h ****     Result EraseSector(uint32_t address);
 151:../../DaisyExamples/libDaisy//src/per/qspi.h **** 
 152:../../DaisyExamples/libDaisy//src/per/qspi.h ****     /** Returns the current class status. Useful for debugging.
 153:../../DaisyExamples/libDaisy//src/per/qspi.h ****      *  \returns Status
 154:../../DaisyExamples/libDaisy//src/per/qspi.h ****      */
 155:../../DaisyExamples/libDaisy//src/per/qspi.h ****     Status GetStatus();
 156:../../DaisyExamples/libDaisy//src/per/qspi.h **** 
 157:../../DaisyExamples/libDaisy//src/per/qspi.h ****     /** Returns a pointer to the actual memory used 
 158:../../DaisyExamples/libDaisy//src/per/qspi.h ****      *  The memory at this address is read-only
 159:../../DaisyExamples/libDaisy//src/per/qspi.h ****      *  to write to it use the Write function.
 160:../../DaisyExamples/libDaisy//src/per/qspi.h ****      * 
 161:../../DaisyExamples/libDaisy//src/per/qspi.h ****      *  \param offset returns the pointer starting this 
 162:../../DaisyExamples/libDaisy//src/per/qspi.h ****      *                many bytes into the memory
 163:../../DaisyExamples/libDaisy//src/per/qspi.h ****     */
 164:../../DaisyExamples/libDaisy//src/per/qspi.h ****     void* GetData(uint32_t offset = 0);
 165:../../DaisyExamples/libDaisy//src/per/qspi.h **** 
 166:../../DaisyExamples/libDaisy//src/per/qspi.h ****     QSPIHandle() : pimpl_(nullptr) {}
 652              		.loc 18 166 5 view .LVU184
 653              	.LBE476:
 654              	.LBE475:
ARM GAS  /var/folders/hp/45mn71hd0ps5f5pnytxy5bt00000gn/T//ccpJ9dAn.s 			page 37


 655              	.LBE474:
 656              	.LBE473:
 657              	.LBE472:
 658              	.LBE471:
 659              	.LBE470:
 660              		.loc 17 55 1 is_stmt 0 view .LVU185
 661 0000 38B5     		push	{r3, r4, r5, lr}
 662              		.cfi_def_cfa_offset 16
 663              		.cfi_offset 3, -16
 664              		.cfi_offset 4, -12
 665              		.cfi_offset 5, -8
 666              		.cfi_offset 14, -4
 667              	.LBB565:
 668              	.LBB563:
 669              	.LBB557:
 670              	.LBB555:
 671              	.LBB497:
 672              	.LBB495:
 673              	.LBB481:
 674              	.LBB477:
 675              	.LBB478:
 676              		.loc 18 166 34 view .LVU186
 677 0002 174C     		ldr	r4, .L22
 678 0004 0025     		movs	r5, #0
 679              	.LBE478:
 680              	.LBE477:
 681              	.LBE481:
 682              	.LBE495:
 683              	.LBE497:
 684              	.LBB498:
 685              	.LBB499:
 686              	.LBB500:
 687              	.LBB501:
 157:../../DaisyExamples/libDaisy//src/hid/midi.h **** 
 158:../../DaisyExamples/libDaisy//src/hid/midi.h ****     struct Config
 688              		.loc 4 158 12 view .LVU187
 689 0006 04F5C070 		add	r0, r4, #384
 690              	.LBE501:
 691              	.LBE500:
 692              	.LBE499:
 693              	.LBE498:
 694              	.LBB535:
 695              	.LBB496:
 696              	.LBB482:
 697              	.LBB480:
 698              	.LBB479:
 699              		.loc 18 166 34 view .LVU188
 700 000a 2560     		str	r5, [r4]
 701              	.LVL31:
 702              		.loc 18 166 34 view .LVU189
 703              	.LBE479:
 704              	.LBE480:
 705              	.LBE482:
 706              	.LBB483:
 707              	.LBI483:
  95:../../DaisyExamples/libDaisy//src/hid/audio.h ****     ~AudioHandle() {}
 708              		.loc 15 95 5 is_stmt 1 view .LVU190
ARM GAS  /var/folders/hp/45mn71hd0ps5f5pnytxy5bt00000gn/T//ccpJ9dAn.s 			page 38


 709              	.LBB484:
 710              	.LBB485:
  95:../../DaisyExamples/libDaisy//src/hid/audio.h ****     ~AudioHandle() {}
 711              		.loc 15 95 35 is_stmt 0 view .LVU191
 712 000c 6561     		str	r5, [r4, #20]
 713              	.LVL32:
  95:../../DaisyExamples/libDaisy//src/hid/audio.h ****     ~AudioHandle() {}
 714              		.loc 15 95 35 view .LVU192
 715              	.LBE485:
 716              	.LBE484:
 717              	.LBE483:
 718              	.LBB486:
 719              	.LBI486:
 109:../../DaisyExamples/libDaisy//src/per/adc.h ****     ~AdcHandle() {}
 720              		.loc 14 109 5 is_stmt 1 view .LVU193
 109:../../DaisyExamples/libDaisy//src/per/adc.h ****     ~AdcHandle() {}
 721              		.loc 14 109 5 is_stmt 0 view .LVU194
 722              	.LBE486:
 723              	.LBB487:
 724              	.LBI487:
 725              		.file 19 "../../DaisyExamples/libDaisy//src/per/dac.h"
   1:../../DaisyExamples/libDaisy//src/per/dac.h **** #pragma once
   2:../../DaisyExamples/libDaisy//src/per/dac.h **** #ifndef DSY_DAC_H
   3:../../DaisyExamples/libDaisy//src/per/dac.h **** #define DSY_DAC_H
   4:../../DaisyExamples/libDaisy//src/per/dac.h **** 
   5:../../DaisyExamples/libDaisy//src/per/dac.h **** #include "daisy_core.h"
   6:../../DaisyExamples/libDaisy//src/per/dac.h **** 
   7:../../DaisyExamples/libDaisy//src/per/dac.h **** namespace daisy
   8:../../DaisyExamples/libDaisy//src/per/dac.h **** {
   9:../../DaisyExamples/libDaisy//src/per/dac.h **** /** @brief DAC handle for Built-in DAC Peripheral 
  10:../../DaisyExamples/libDaisy//src/per/dac.h ****  *  @ingroup per_analog
  11:../../DaisyExamples/libDaisy//src/per/dac.h ****  ** 
  12:../../DaisyExamples/libDaisy//src/per/dac.h ****  ** For now only Normal Mode is supported,
  13:../../DaisyExamples/libDaisy//src/per/dac.h ****  ** Sample and hold mode provides reduced power consumption, but requires a bit more setup.
  14:../../DaisyExamples/libDaisy//src/per/dac.h ****  **
  15:../../DaisyExamples/libDaisy//src/per/dac.h ****  ** For now connecting the DAC through other internal peripherals is also not supported.
  16:../../DaisyExamples/libDaisy//src/per/dac.h ****  **
  17:../../DaisyExamples/libDaisy//src/per/dac.h ****  ** Since the DAC channels have dedicated pins we don't need to pass in a pin config like with
  18:../../DaisyExamples/libDaisy//src/per/dac.h ****  ** other modules. However, it is still important to not try to use the DAC pins for anything else.
  19:../../DaisyExamples/libDaisy//src/per/dac.h ****  ** DAC Channel 1 is on PA4, and DAC Channel 2 is on PA5
  20:../../DaisyExamples/libDaisy//src/per/dac.h ****  ***/
  21:../../DaisyExamples/libDaisy//src/per/dac.h **** class DacHandle
  22:../../DaisyExamples/libDaisy//src/per/dac.h **** {
  23:../../DaisyExamples/libDaisy//src/per/dac.h ****   public:
  24:../../DaisyExamples/libDaisy//src/per/dac.h ****     /** Return Values for the DacHandle class */
  25:../../DaisyExamples/libDaisy//src/per/dac.h ****     enum class Result
  26:../../DaisyExamples/libDaisy//src/per/dac.h ****     {
  27:../../DaisyExamples/libDaisy//src/per/dac.h ****         OK,
  28:../../DaisyExamples/libDaisy//src/per/dac.h ****         ERR,
  29:../../DaisyExamples/libDaisy//src/per/dac.h ****     };
  30:../../DaisyExamples/libDaisy//src/per/dac.h **** 
  31:../../DaisyExamples/libDaisy//src/per/dac.h ****     /** Selects which channel(s) will be configured for use. */
  32:../../DaisyExamples/libDaisy//src/per/dac.h ****     enum class Channel
  33:../../DaisyExamples/libDaisy//src/per/dac.h ****     {
  34:../../DaisyExamples/libDaisy//src/per/dac.h ****         ONE,
  35:../../DaisyExamples/libDaisy//src/per/dac.h ****         TWO,
  36:../../DaisyExamples/libDaisy//src/per/dac.h ****         BOTH,
ARM GAS  /var/folders/hp/45mn71hd0ps5f5pnytxy5bt00000gn/T//ccpJ9dAn.s 			page 39


  37:../../DaisyExamples/libDaisy//src/per/dac.h ****     };
  38:../../DaisyExamples/libDaisy//src/per/dac.h **** 
  39:../../DaisyExamples/libDaisy//src/per/dac.h ****     /** Sets the Mode for the DAC channels.
  40:../../DaisyExamples/libDaisy//src/per/dac.h ****      **
  41:../../DaisyExamples/libDaisy//src/per/dac.h ****      ** Polling mode uses the blocking mode to transmit a single value at a time.
  42:../../DaisyExamples/libDaisy//src/per/dac.h ****      **
  43:../../DaisyExamples/libDaisy//src/per/dac.h ****      ** DMA mode uses a buffer, and periodically transmits it triggering a 
  44:../../DaisyExamples/libDaisy//src/per/dac.h ****      ** callback to fill the buffer when it is ready for more samples.
  45:../../DaisyExamples/libDaisy//src/per/dac.h ****      ***/
  46:../../DaisyExamples/libDaisy//src/per/dac.h ****     enum class Mode
  47:../../DaisyExamples/libDaisy//src/per/dac.h ****     {
  48:../../DaisyExamples/libDaisy//src/per/dac.h ****         POLLING,
  49:../../DaisyExamples/libDaisy//src/per/dac.h ****         DMA,
  50:../../DaisyExamples/libDaisy//src/per/dac.h ****     };
  51:../../DaisyExamples/libDaisy//src/per/dac.h **** 
  52:../../DaisyExamples/libDaisy//src/per/dac.h ****     /** Sets the number of bits per sample transmitted out of the DAC.
  53:../../DaisyExamples/libDaisy//src/per/dac.h ****      ** The output range will be: 0V - VDDA
  54:../../DaisyExamples/libDaisy//src/per/dac.h ****      ** The resolution will be roughly: bitdepth / (VDDA - 0V) 
  55:../../DaisyExamples/libDaisy//src/per/dac.h ****      ***/
  56:../../DaisyExamples/libDaisy//src/per/dac.h ****     enum class BitDepth
  57:../../DaisyExamples/libDaisy//src/per/dac.h ****     {
  58:../../DaisyExamples/libDaisy//src/per/dac.h ****         BITS_8,
  59:../../DaisyExamples/libDaisy//src/per/dac.h ****         BITS_12
  60:../../DaisyExamples/libDaisy//src/per/dac.h ****     };
  61:../../DaisyExamples/libDaisy//src/per/dac.h **** 
  62:../../DaisyExamples/libDaisy//src/per/dac.h ****     /** Sets whether the DAC output is buffered for higher drive ability. */
  63:../../DaisyExamples/libDaisy//src/per/dac.h ****     enum class BufferState
  64:../../DaisyExamples/libDaisy//src/per/dac.h ****     {
  65:../../DaisyExamples/libDaisy//src/per/dac.h ****         ENABLED,
  66:../../DaisyExamples/libDaisy//src/per/dac.h ****         DISABLED,
  67:../../DaisyExamples/libDaisy//src/per/dac.h ****     };
  68:../../DaisyExamples/libDaisy//src/per/dac.h **** 
  69:../../DaisyExamples/libDaisy//src/per/dac.h ****     /** Configuration structure for initializing the DAC structure. */
  70:../../DaisyExamples/libDaisy//src/per/dac.h ****     struct Config
  71:../../DaisyExamples/libDaisy//src/per/dac.h ****     {
  72:../../DaisyExamples/libDaisy//src/per/dac.h ****         /** Target Samplerate in Hz used to configure the internal 
  73:../../DaisyExamples/libDaisy//src/per/dac.h ****          ** timebase for DMA mode. Does nothing in POLLING mode.
  74:../../DaisyExamples/libDaisy//src/per/dac.h ****          ** If the value is 0 at Init time this will default to 48000Hz 
  75:../../DaisyExamples/libDaisy//src/per/dac.h ****          ** otherwise the driver will attempt meet the target.*/
  76:../../DaisyExamples/libDaisy//src/per/dac.h ****         uint32_t target_samplerate;
  77:../../DaisyExamples/libDaisy//src/per/dac.h **** 
  78:../../DaisyExamples/libDaisy//src/per/dac.h ****         Channel     chn;
  79:../../DaisyExamples/libDaisy//src/per/dac.h ****         Mode        mode;
  80:../../DaisyExamples/libDaisy//src/per/dac.h ****         BitDepth    bitdepth;
  81:../../DaisyExamples/libDaisy//src/per/dac.h ****         BufferState buff_state;
  82:../../DaisyExamples/libDaisy//src/per/dac.h ****     };
  83:../../DaisyExamples/libDaisy//src/per/dac.h **** 
  84:../../DaisyExamples/libDaisy//src/per/dac.h ****     DacHandle() : pimpl_(nullptr) {}
 726              		.loc 19 84 5 is_stmt 1 view .LVU195
 727              	.LBB488:
 728              	.LBB489:
 729              		.loc 19 84 33 is_stmt 0 view .LVU196
 730 000e 2562     		str	r5, [r4, #32]
 731              	.LVL33:
 732              		.loc 19 84 33 view .LVU197
 733              	.LBE489:
 734              	.LBE488:
ARM GAS  /var/folders/hp/45mn71hd0ps5f5pnytxy5bt00000gn/T//ccpJ9dAn.s 			page 40


 735              	.LBE487:
 736              	.LBB490:
 737              	.LBI490:
  40:../../DaisyExamples/libDaisy//src/hid/usb.h **** 
 738              		.loc 13 40 5 is_stmt 1 view .LVU198
  40:../../DaisyExamples/libDaisy//src/hid/usb.h **** 
 739              		.loc 13 40 5 is_stmt 0 view .LVU199
 740              	.LBE490:
 741              	.LBB491:
 742              	.LBI491:
  96:../../DaisyExamples/libDaisy//src/sys/system.h ****     ~System() {}
 743              		.loc 12 96 5 is_stmt 1 view .LVU200
  96:../../DaisyExamples/libDaisy//src/sys/system.h ****     ~System() {}
 744              		.loc 12 96 5 is_stmt 0 view .LVU201
 745              	.LBE491:
 746              	.LBB492:
 747              	.LBI492:
 748              		.file 20 "../../DaisyExamples/libDaisy//src/per/sai.h"
   1:../../DaisyExamples/libDaisy//src/per/sai.h **** #pragma once
   2:../../DaisyExamples/libDaisy//src/per/sai.h **** #ifndef DSY_SAI_H
   3:../../DaisyExamples/libDaisy//src/per/sai.h **** #define DSY_SAI_H
   4:../../DaisyExamples/libDaisy//src/per/sai.h **** 
   5:../../DaisyExamples/libDaisy//src/per/sai.h **** #include "daisy_core.h"
   6:../../DaisyExamples/libDaisy//src/per/sai.h **** 
   7:../../DaisyExamples/libDaisy//src/per/sai.h **** namespace daisy
   8:../../DaisyExamples/libDaisy//src/per/sai.h **** {
   9:../../DaisyExamples/libDaisy//src/per/sai.h **** /** 
  10:../../DaisyExamples/libDaisy//src/per/sai.h ****  * Support for I2S Audio Protocol with different bit-depth, samplerate options
  11:../../DaisyExamples/libDaisy//src/per/sai.h ****  * Allows for master or slave, as well as freedom of selecting direction, 
  12:../../DaisyExamples/libDaisy//src/per/sai.h ****  * and other behavior for each peripheral, and block.
  13:../../DaisyExamples/libDaisy//src/per/sai.h ****  * 
  14:../../DaisyExamples/libDaisy//src/per/sai.h ****  * DMA Transfer commands must use buffers located within non-cached memory or use cache maintenance
  15:../../DaisyExamples/libDaisy//src/per/sai.h ****  * To declare an unitialized global element in the DMA memory section:
  16:../../DaisyExamples/libDaisy//src/per/sai.h ****  *    int32_t DSY_DMA_BUFFER_SECTOR my_buffer[96];
  17:../../DaisyExamples/libDaisy//src/per/sai.h ****  *
  18:../../DaisyExamples/libDaisy//src/per/sai.h ****  * Callback functions will be called once per half of the buffer. In the above example, 
  19:../../DaisyExamples/libDaisy//src/per/sai.h ****  * the callback function would be called once for every 48 samples.
  20:../../DaisyExamples/libDaisy//src/per/sai.h ****  * 
  21:../../DaisyExamples/libDaisy//src/per/sai.h ****  * Use SAI Handle like this:
  22:../../DaisyExamples/libDaisy//src/per/sai.h ****  * 
  23:../../DaisyExamples/libDaisy//src/per/sai.h ****  *  SaiHandle::Config sai_config;
  24:../../DaisyExamples/libDaisy//src/per/sai.h ****  *  sai_config.periph          = SaiHandle::Config::Peripheral::SAI_1;
  25:../../DaisyExamples/libDaisy//src/per/sai.h ****  *  sai_config.sr              = SaiHandle::Config::SampleRate::SAI_48KHZ;
  26:../../DaisyExamples/libDaisy//src/per/sai.h ****  *  sai_config.bit_depth       = SaiHandle::Config::BitDepth::SAI_24BIT;
  27:../../DaisyExamples/libDaisy//src/per/sai.h ****  *  sai_config.a_sync          = SaiHandle::Config::Sync::MASTER;
  28:../../DaisyExamples/libDaisy//src/per/sai.h ****  *  sai_config.b_sync          = SaiHandle::Config::Sync::SLAVE;
  29:../../DaisyExamples/libDaisy//src/per/sai.h ****  *  sai_config.a_dir           = SaiHandle::Config::Direction::RECEIVE;
  30:../../DaisyExamples/libDaisy//src/per/sai.h ****  *  sai_config.b_dir           = SaiHandle::Config::Direction::TRANSMIT;
  31:../../DaisyExamples/libDaisy//src/per/sai.h ****  *  sai_config.pin_config.fs   = {DSY_GPIOE, 4};
  32:../../DaisyExamples/libDaisy//src/per/sai.h ****  *  sai_config.pin_config.mclk = {DSY_GPIOE, 2};
  33:../../DaisyExamples/libDaisy//src/per/sai.h ****  *  sai_config.pin_config.sck  = {DSY_GPIOE, 5};
  34:../../DaisyExamples/libDaisy//src/per/sai.h ****  *  sai_config.pin_config.sa   = {DSY_GPIOE, 6};
  35:../../DaisyExamples/libDaisy//src/per/sai.h ****  *  sai_config.pin_config.sb   = {DSY_GPIOE, 3};
  36:../../DaisyExamples/libDaisy//src/per/sai.h ****  *  // Then Initialize
  37:../../DaisyExamples/libDaisy//src/per/sai.h ****  *  SaiHandle sai;
  38:../../DaisyExamples/libDaisy//src/per/sai.h ****  *  sai.Init(sai_config);
  39:../../DaisyExamples/libDaisy//src/per/sai.h ****  *  // Now you can use it:
ARM GAS  /var/folders/hp/45mn71hd0ps5f5pnytxy5bt00000gn/T//ccpJ9dAn.s 			page 41


  40:../../DaisyExamples/libDaisy//src/per/sai.h ****  *  sai.StartDma(. . .);
  41:../../DaisyExamples/libDaisy//src/per/sai.h ****  */
  42:../../DaisyExamples/libDaisy//src/per/sai.h **** class SaiHandle
  43:../../DaisyExamples/libDaisy//src/per/sai.h **** {
  44:../../DaisyExamples/libDaisy//src/per/sai.h ****   public:
  45:../../DaisyExamples/libDaisy//src/per/sai.h ****     /** Contains settings for initialising an SAI Interface */
  46:../../DaisyExamples/libDaisy//src/per/sai.h ****     struct Config
  47:../../DaisyExamples/libDaisy//src/per/sai.h ****     {
  48:../../DaisyExamples/libDaisy//src/per/sai.h ****         /** Specifies the internal peripheral to use (mapped to different hardware pins) */
  49:../../DaisyExamples/libDaisy//src/per/sai.h ****         enum class Peripheral
  50:../../DaisyExamples/libDaisy//src/per/sai.h ****         {
  51:../../DaisyExamples/libDaisy//src/per/sai.h ****             SAI_1,
  52:../../DaisyExamples/libDaisy//src/per/sai.h ****             SAI_2,
  53:../../DaisyExamples/libDaisy//src/per/sai.h ****         };
  54:../../DaisyExamples/libDaisy//src/per/sai.h **** 
  55:../../DaisyExamples/libDaisy//src/per/sai.h ****         /** Rate at which samples will be streaming to/from the device. */
  56:../../DaisyExamples/libDaisy//src/per/sai.h ****         enum class SampleRate
  57:../../DaisyExamples/libDaisy//src/per/sai.h ****         {
  58:../../DaisyExamples/libDaisy//src/per/sai.h ****             SAI_8KHZ,
  59:../../DaisyExamples/libDaisy//src/per/sai.h ****             SAI_16KHZ,
  60:../../DaisyExamples/libDaisy//src/per/sai.h ****             SAI_32KHZ,
  61:../../DaisyExamples/libDaisy//src/per/sai.h ****             SAI_48KHZ,
  62:../../DaisyExamples/libDaisy//src/per/sai.h ****             SAI_96KHZ,
  63:../../DaisyExamples/libDaisy//src/per/sai.h ****         };
  64:../../DaisyExamples/libDaisy//src/per/sai.h **** 
  65:../../DaisyExamples/libDaisy//src/per/sai.h ****         /** Bit Depth that the hardware expects to be transferred to/from the device. */
  66:../../DaisyExamples/libDaisy//src/per/sai.h ****         enum class BitDepth
  67:../../DaisyExamples/libDaisy//src/per/sai.h ****         {
  68:../../DaisyExamples/libDaisy//src/per/sai.h ****             SAI_16BIT,
  69:../../DaisyExamples/libDaisy//src/per/sai.h ****             SAI_24BIT,
  70:../../DaisyExamples/libDaisy//src/per/sai.h ****             SAI_32BIT,
  71:../../DaisyExamples/libDaisy//src/per/sai.h ****         };
  72:../../DaisyExamples/libDaisy//src/per/sai.h **** 
  73:../../DaisyExamples/libDaisy//src/per/sai.h ****         /** Specifies whether a particular block is the master or the slave 
  74:../../DaisyExamples/libDaisy//src/per/sai.h ****          ** If both are set to slave, no MCLK signal will be used, and it is
  75:../../DaisyExamples/libDaisy//src/per/sai.h ****          ** expected that the codec will have its own xtal.
  76:../../DaisyExamples/libDaisy//src/per/sai.h ****          */
  77:../../DaisyExamples/libDaisy//src/per/sai.h ****         enum class Sync
  78:../../DaisyExamples/libDaisy//src/per/sai.h ****         {
  79:../../DaisyExamples/libDaisy//src/per/sai.h ****             MASTER,
  80:../../DaisyExamples/libDaisy//src/per/sai.h ****             SLAVE,
  81:../../DaisyExamples/libDaisy//src/per/sai.h ****         };
  82:../../DaisyExamples/libDaisy//src/per/sai.h **** 
  83:../../DaisyExamples/libDaisy//src/per/sai.h ****         /** Specifies the direction for each peripheral block. */
  84:../../DaisyExamples/libDaisy//src/per/sai.h ****         enum class Direction
  85:../../DaisyExamples/libDaisy//src/per/sai.h ****         {
  86:../../DaisyExamples/libDaisy//src/per/sai.h ****             TRANSMIT,
  87:../../DaisyExamples/libDaisy//src/per/sai.h ****             RECEIVE,
  88:../../DaisyExamples/libDaisy//src/per/sai.h ****         };
  89:../../DaisyExamples/libDaisy//src/per/sai.h **** 
  90:../../DaisyExamples/libDaisy//src/per/sai.h ****         Peripheral periph;
  91:../../DaisyExamples/libDaisy//src/per/sai.h ****         struct
  92:../../DaisyExamples/libDaisy//src/per/sai.h ****         {
  93:../../DaisyExamples/libDaisy//src/per/sai.h ****             dsy_gpio_pin mclk, fs, sck, sa, sb;
  94:../../DaisyExamples/libDaisy//src/per/sai.h ****         } pin_config;
  95:../../DaisyExamples/libDaisy//src/per/sai.h ****         SampleRate sr;
  96:../../DaisyExamples/libDaisy//src/per/sai.h ****         BitDepth   bit_depth;
ARM GAS  /var/folders/hp/45mn71hd0ps5f5pnytxy5bt00000gn/T//ccpJ9dAn.s 			page 42


  97:../../DaisyExamples/libDaisy//src/per/sai.h ****         Sync       a_sync, b_sync;
  98:../../DaisyExamples/libDaisy//src/per/sai.h ****         Direction  a_dir, b_dir;
  99:../../DaisyExamples/libDaisy//src/per/sai.h ****     };
 100:../../DaisyExamples/libDaisy//src/per/sai.h **** 
 101:../../DaisyExamples/libDaisy//src/per/sai.h ****     /** Return values for SAI functions */
 102:../../DaisyExamples/libDaisy//src/per/sai.h ****     enum class Result
 103:../../DaisyExamples/libDaisy//src/per/sai.h ****     {
 104:../../DaisyExamples/libDaisy//src/per/sai.h ****         OK,
 105:../../DaisyExamples/libDaisy//src/per/sai.h ****         ERR,
 106:../../DaisyExamples/libDaisy//src/per/sai.h ****     };
 107:../../DaisyExamples/libDaisy//src/per/sai.h **** 
 108:../../DaisyExamples/libDaisy//src/per/sai.h ****     SaiHandle() : pimpl_(nullptr) {}
 749              		.loc 20 108 5 is_stmt 1 view .LVU202
 750              	.LBB493:
 751              	.LBB494:
 752              		.loc 20 108 33 is_stmt 0 view .LVU203
 753 0010 E563     		str	r5, [r4, #60]
 754              	.LVL34:
 755              		.loc 20 108 33 view .LVU204
 756              	.LBE494:
 757              	.LBE493:
 758              	.LBE492:
 759              	.LBE496:
 760              	.LBE535:
 761              	.LBB536:
 762              	.LBI536:
  20:../../DaisyExamples/libDaisy//src/hid/encoder.h ****     ~Encoder() {}
 763              		.loc 10 20 5 is_stmt 1 view .LVU205
 764              	.LBB537:
 765              	.LBB538:
 766              	.LBI538:
  41:../../DaisyExamples/libDaisy//src/hid/switch.h ****     ~Switch() {}
 767              		.loc 9 41 5 view .LVU206
  41:../../DaisyExamples/libDaisy//src/hid/switch.h ****     ~Switch() {}
 768              		.loc 9 41 5 is_stmt 0 view .LVU207
 769              	.LBE538:
 770              	.LBE537:
 771              	.LBE536:
 772              	.LBB539:
 773              	.LBI539:
  21:../../DaisyExamples/libDaisy//src/hid/ctrl.h ****     /** destructor */
 774              		.loc 2 21 5 is_stmt 1 view .LVU208
  21:../../DaisyExamples/libDaisy//src/hid/ctrl.h ****     /** destructor */
 775              		.loc 2 21 5 is_stmt 0 view .LVU209
 776              	.LBE539:
 777              	.LBB540:
 778              	.LBI540:
  21:../../DaisyExamples/libDaisy//src/hid/ctrl.h ****     /** destructor */
 779              		.loc 2 21 5 is_stmt 1 view .LVU210
  21:../../DaisyExamples/libDaisy//src/hid/ctrl.h ****     /** destructor */
 780              		.loc 2 21 5 is_stmt 0 view .LVU211
 781              	.LBE540:
 782              	.LBB541:
 783              	.LBI541:
  41:../../DaisyExamples/libDaisy//src/hid/switch.h ****     ~Switch() {}
 784              		.loc 9 41 5 is_stmt 1 view .LVU212
  41:../../DaisyExamples/libDaisy//src/hid/switch.h ****     ~Switch() {}
ARM GAS  /var/folders/hp/45mn71hd0ps5f5pnytxy5bt00000gn/T//ccpJ9dAn.s 			page 43


 785              		.loc 9 41 5 is_stmt 0 view .LVU213
 786              	.LBE541:
 787              	.LBB542:
 788              	.LBI542:
  41:../../DaisyExamples/libDaisy//src/hid/switch.h ****     ~Switch() {}
 789              		.loc 9 41 5 is_stmt 1 view .LVU214
  41:../../DaisyExamples/libDaisy//src/hid/switch.h ****     ~Switch() {}
 790              		.loc 9 41 5 is_stmt 0 view .LVU215
 791              	.LBE542:
 792              	.LBB543:
 793              	.LBI543:
  17:../../DaisyExamples/libDaisy//src/hid/rgb_led.h ****     ~RgbLed() {}
 794              		.loc 7 17 5 is_stmt 1 view .LVU216
 795              	.LBB544:
 796              	.LBB545:
 797              	.LBI545:
  24:../../DaisyExamples/libDaisy//src/hid/led.h ****     ~Led() {}
 798              		.loc 8 24 5 view .LVU217
  24:../../DaisyExamples/libDaisy//src/hid/led.h ****     ~Led() {}
 799              		.loc 8 24 5 is_stmt 0 view .LVU218
 800              	.LBE545:
 801              	.LBB546:
 802              	.LBI546:
  24:../../DaisyExamples/libDaisy//src/hid/led.h ****     ~Led() {}
 803              		.loc 8 24 5 is_stmt 1 view .LVU219
  24:../../DaisyExamples/libDaisy//src/hid/led.h ****     ~Led() {}
 804              		.loc 8 24 5 is_stmt 0 view .LVU220
 805              	.LBE546:
 806              	.LBB547:
 807              	.LBI547:
  24:../../DaisyExamples/libDaisy//src/hid/led.h ****     ~Led() {}
 808              		.loc 8 24 5 is_stmt 1 view .LVU221
  24:../../DaisyExamples/libDaisy//src/hid/led.h ****     ~Led() {}
 809              		.loc 8 24 5 is_stmt 0 view .LVU222
 810              	.LBE547:
 811              	.LBE544:
 812              	.LBE543:
 813              	.LBB548:
 814              	.LBI548:
  17:../../DaisyExamples/libDaisy//src/hid/rgb_led.h ****     ~RgbLed() {}
 815              		.loc 7 17 5 is_stmt 1 view .LVU223
 816              	.LBB549:
 817              	.LBB550:
 818              	.LBI550:
  24:../../DaisyExamples/libDaisy//src/hid/led.h ****     ~Led() {}
 819              		.loc 8 24 5 view .LVU224
  24:../../DaisyExamples/libDaisy//src/hid/led.h ****     ~Led() {}
 820              		.loc 8 24 5 is_stmt 0 view .LVU225
 821              	.LBE550:
 822              	.LBB551:
 823              	.LBI551:
  24:../../DaisyExamples/libDaisy//src/hid/led.h ****     ~Led() {}
 824              		.loc 8 24 5 is_stmt 1 view .LVU226
  24:../../DaisyExamples/libDaisy//src/hid/led.h ****     ~Led() {}
 825              		.loc 8 24 5 is_stmt 0 view .LVU227
 826              	.LBE551:
 827              	.LBB552:
ARM GAS  /var/folders/hp/45mn71hd0ps5f5pnytxy5bt00000gn/T//ccpJ9dAn.s 			page 44


 828              	.LBI552:
  24:../../DaisyExamples/libDaisy//src/hid/led.h ****     ~Led() {}
 829              		.loc 8 24 5 is_stmt 1 view .LVU228
  24:../../DaisyExamples/libDaisy//src/hid/led.h ****     ~Led() {}
 830              		.loc 8 24 5 is_stmt 0 view .LVU229
 831              	.LBE552:
 832              	.LBE549:
 833              	.LBE548:
 834              	.LBB553:
 835              	.LBI498:
 155:../../DaisyExamples/libDaisy//src/hid/midi.h ****     ~MidiHandler() {}
 836              		.loc 4 155 5 is_stmt 1 view .LVU230
 837              	.LBB533:
 838              	.LBB503:
 839              	.LBI500:
 840              		.loc 4 158 12 view .LVU231
 841              	.LBB502:
 842 0012 FFF7FEFF 		bl	_ZN5daisy17MidiUartTransport6ConfigC1Ev
 843              	.LVL35:
 844              		.loc 4 158 12 is_stmt 0 view .LVU232
 845              	.LBE502:
 846              	.LBE503:
 847              	.LBB504:
 848              	.LBI504:
  31:../../DaisyExamples/libDaisy//src/hid/midi.h ****     ~MidiUartTransport() {}
 849              		.loc 4 31 5 is_stmt 1 view .LVU233
 850              	.LBB505:
 851              	.LBB506:
 852              	.LBI506:
 853              		.file 21 "../../DaisyExamples/libDaisy//src/per/uart.h"
   1:../../DaisyExamples/libDaisy//src/per/uart.h **** /* 
   2:../../DaisyExamples/libDaisy//src/per/uart.h **** TODO
   3:../../DaisyExamples/libDaisy//src/per/uart.h **** - Overflow handling, etc. for Rx Queue.
   4:../../DaisyExamples/libDaisy//src/per/uart.h **** */
   5:../../DaisyExamples/libDaisy//src/per/uart.h **** 
   6:../../DaisyExamples/libDaisy//src/per/uart.h **** #pragma once
   7:../../DaisyExamples/libDaisy//src/per/uart.h **** #ifndef DSY_UART_H
   8:../../DaisyExamples/libDaisy//src/per/uart.h **** #define DSY_UART_H /**< macro */
   9:../../DaisyExamples/libDaisy//src/per/uart.h **** #include "daisy_core.h"
  10:../../DaisyExamples/libDaisy//src/per/uart.h **** 
  11:../../DaisyExamples/libDaisy//src/per/uart.h **** 
  12:../../DaisyExamples/libDaisy//src/per/uart.h **** namespace daisy
  13:../../DaisyExamples/libDaisy//src/per/uart.h **** {
  14:../../DaisyExamples/libDaisy//src/per/uart.h **** /** @addtogroup serial
  15:../../DaisyExamples/libDaisy//src/per/uart.h ****     @{
  16:../../DaisyExamples/libDaisy//src/per/uart.h ****     */
  17:../../DaisyExamples/libDaisy//src/per/uart.h **** 
  18:../../DaisyExamples/libDaisy//src/per/uart.h **** /** 
  19:../../DaisyExamples/libDaisy//src/per/uart.h ****     Uart Peripheral
  20:../../DaisyExamples/libDaisy//src/per/uart.h ****     @author shensley
  21:../../DaisyExamples/libDaisy//src/per/uart.h ****     @date March 2020
  22:../../DaisyExamples/libDaisy//src/per/uart.h ****     */
  23:../../DaisyExamples/libDaisy//src/per/uart.h **** class UartHandler
  24:../../DaisyExamples/libDaisy//src/per/uart.h **** {
  25:../../DaisyExamples/libDaisy//src/per/uart.h ****   public:
  26:../../DaisyExamples/libDaisy//src/per/uart.h ****     struct Config
  27:../../DaisyExamples/libDaisy//src/per/uart.h ****     {
ARM GAS  /var/folders/hp/45mn71hd0ps5f5pnytxy5bt00000gn/T//ccpJ9dAn.s 			page 45


  28:../../DaisyExamples/libDaisy//src/per/uart.h ****         enum class Peripheral
  29:../../DaisyExamples/libDaisy//src/per/uart.h ****         {
  30:../../DaisyExamples/libDaisy//src/per/uart.h ****             USART_1,
  31:../../DaisyExamples/libDaisy//src/per/uart.h ****             USART_2,
  32:../../DaisyExamples/libDaisy//src/per/uart.h ****             USART_3,
  33:../../DaisyExamples/libDaisy//src/per/uart.h ****             UART_4,
  34:../../DaisyExamples/libDaisy//src/per/uart.h ****             UART_5,
  35:../../DaisyExamples/libDaisy//src/per/uart.h ****             USART_6,
  36:../../DaisyExamples/libDaisy//src/per/uart.h ****             UART_7,
  37:../../DaisyExamples/libDaisy//src/per/uart.h ****             UART_8,
  38:../../DaisyExamples/libDaisy//src/per/uart.h ****             LPUART_1,
  39:../../DaisyExamples/libDaisy//src/per/uart.h ****         };
  40:../../DaisyExamples/libDaisy//src/per/uart.h **** 
  41:../../DaisyExamples/libDaisy//src/per/uart.h ****         enum class StopBits
  42:../../DaisyExamples/libDaisy//src/per/uart.h ****         {
  43:../../DaisyExamples/libDaisy//src/per/uart.h ****             BITS_0_5,
  44:../../DaisyExamples/libDaisy//src/per/uart.h ****             BITS_1,
  45:../../DaisyExamples/libDaisy//src/per/uart.h ****             BITS_1_5,
  46:../../DaisyExamples/libDaisy//src/per/uart.h ****             BITS_2,
  47:../../DaisyExamples/libDaisy//src/per/uart.h ****         };
  48:../../DaisyExamples/libDaisy//src/per/uart.h **** 
  49:../../DaisyExamples/libDaisy//src/per/uart.h ****         enum class Parity
  50:../../DaisyExamples/libDaisy//src/per/uart.h ****         {
  51:../../DaisyExamples/libDaisy//src/per/uart.h ****             NONE,
  52:../../DaisyExamples/libDaisy//src/per/uart.h ****             EVEN,
  53:../../DaisyExamples/libDaisy//src/per/uart.h ****             ODD,
  54:../../DaisyExamples/libDaisy//src/per/uart.h ****         };
  55:../../DaisyExamples/libDaisy//src/per/uart.h **** 
  56:../../DaisyExamples/libDaisy//src/per/uart.h ****         enum class Mode
  57:../../DaisyExamples/libDaisy//src/per/uart.h ****         {
  58:../../DaisyExamples/libDaisy//src/per/uart.h ****             RX,
  59:../../DaisyExamples/libDaisy//src/per/uart.h ****             TX,
  60:../../DaisyExamples/libDaisy//src/per/uart.h ****             TX_RX,
  61:../../DaisyExamples/libDaisy//src/per/uart.h ****         };
  62:../../DaisyExamples/libDaisy//src/per/uart.h **** 
  63:../../DaisyExamples/libDaisy//src/per/uart.h ****         enum class WordLength
  64:../../DaisyExamples/libDaisy//src/per/uart.h ****         {
  65:../../DaisyExamples/libDaisy//src/per/uart.h ****             BITS_7,
  66:../../DaisyExamples/libDaisy//src/per/uart.h ****             BITS_8,
  67:../../DaisyExamples/libDaisy//src/per/uart.h ****             BITS_9,
  68:../../DaisyExamples/libDaisy//src/per/uart.h ****         };
  69:../../DaisyExamples/libDaisy//src/per/uart.h **** 
  70:../../DaisyExamples/libDaisy//src/per/uart.h ****         struct
  71:../../DaisyExamples/libDaisy//src/per/uart.h ****         {
  72:../../DaisyExamples/libDaisy//src/per/uart.h ****             dsy_gpio_pin tx; /**< & */
  73:../../DaisyExamples/libDaisy//src/per/uart.h ****             dsy_gpio_pin rx; /**< & */
  74:../../DaisyExamples/libDaisy//src/per/uart.h ****         } pin_config;        /**< & */
  75:../../DaisyExamples/libDaisy//src/per/uart.h **** 
  76:../../DaisyExamples/libDaisy//src/per/uart.h ****         Config()
  77:../../DaisyExamples/libDaisy//src/per/uart.h ****         {
  78:../../DaisyExamples/libDaisy//src/per/uart.h ****             // user must init periph, pin_config, and mode
  79:../../DaisyExamples/libDaisy//src/per/uart.h ****             stopbits   = StopBits::BITS_1;
  80:../../DaisyExamples/libDaisy//src/per/uart.h ****             parity     = Parity::NONE;
  81:../../DaisyExamples/libDaisy//src/per/uart.h ****             wordlength = WordLength::BITS_8;
  82:../../DaisyExamples/libDaisy//src/per/uart.h ****             baudrate   = 31250;
  83:../../DaisyExamples/libDaisy//src/per/uart.h ****         }
  84:../../DaisyExamples/libDaisy//src/per/uart.h **** 
ARM GAS  /var/folders/hp/45mn71hd0ps5f5pnytxy5bt00000gn/T//ccpJ9dAn.s 			page 46


  85:../../DaisyExamples/libDaisy//src/per/uart.h ****         Peripheral periph;
  86:../../DaisyExamples/libDaisy//src/per/uart.h ****         StopBits   stopbits;
  87:../../DaisyExamples/libDaisy//src/per/uart.h ****         Parity     parity;
  88:../../DaisyExamples/libDaisy//src/per/uart.h ****         Mode       mode;
  89:../../DaisyExamples/libDaisy//src/per/uart.h ****         WordLength wordlength;
  90:../../DaisyExamples/libDaisy//src/per/uart.h ****         uint32_t   baudrate;
  91:../../DaisyExamples/libDaisy//src/per/uart.h ****     };
  92:../../DaisyExamples/libDaisy//src/per/uart.h **** 
  93:../../DaisyExamples/libDaisy//src/per/uart.h **** 
  94:../../DaisyExamples/libDaisy//src/per/uart.h ****     UartHandler() : pimpl_(nullptr) {}
 854              		.loc 21 94 5 view .LVU234
 855              		.loc 21 94 5 is_stmt 0 view .LVU235
 856              	.LBE506:
 857              	.LBE505:
 858              	.LBE504:
 859              	.LBB511:
 860              	.LBI511:
  18:../../DaisyExamples/libDaisy//src/hid/midi_parser.h ****     ~MidiParser() {}
 861              		.loc 6 18 5 is_stmt 1 view .LVU236
 862              	.LBB512:
  18:../../DaisyExamples/libDaisy//src/hid/midi_parser.h ****     ~MidiParser() {}
 863              		.loc 6 18 17 is_stmt 0 view .LVU237
 864 0016 1349     		ldr	r1, .L22+4
 865 0018 40F20F73 		movw	r3, #1807
 866              	.LBE512:
 867              	.LBE511:
 868              	.LBE533:
 869              	.LBE553:
 870              	.LBE555:
 871              	.LBE557:
   7:SynthV2.cpp   **** static Oscillator osc;
 872              		.loc 17 7 17 view .LVU238
 873 001c 124A     		ldr	r2, .L22+8
 874 001e 2046     		mov	r0, r4
 875              	.LBB558:
 876              	.LBB556:
 877              	.LBB554:
 878              	.LBB534:
 879              	.LBB515:
 880              	.LBB513:
  18:../../DaisyExamples/libDaisy//src/hid/midi_parser.h ****     ~MidiParser() {}
 881              		.loc 6 18 17 view .LVU239
 882 0020 C4F83812 		str	r1, [r4, #568]
 883              	.LBE513:
 884              	.LBE515:
 885              	.LBB516:
 886              	.LBB517:
 887              	.LBB518:
 888              	.LBB519:
 889              	.LBB520:
  15:../../DaisyExamples/libDaisy//src/util/FIFO.h ****     {
 890              		.loc 5 15 75 view .LVU240
 891 0024 04F51471 		add	r1, r4, #592
 892              	.LBE520:
 893              	.LBE519:
 894              	.LBE518:
 895              	.LBE517:
ARM GAS  /var/folders/hp/45mn71hd0ps5f5pnytxy5bt00000gn/T//ccpJ9dAn.s 			page 47


 896              	.LBE516:
 897              	.LBB529:
 898              	.LBB514:
  18:../../DaisyExamples/libDaisy//src/hid/midi_parser.h ****     ~MidiParser() {}
 899              		.loc 6 18 17 view .LVU241
 900 0028 A4F83C32 		strh	r3, [r4, #572]	@ movhi
 901              	.LVL36:
  18:../../DaisyExamples/libDaisy//src/hid/midi_parser.h ****     ~MidiParser() {}
 902              		.loc 6 18 17 view .LVU242
 903              	.LBE514:
 904              	.LBE529:
 905              	.LBB530:
 906              	.LBI516:
 299:../../DaisyExamples/libDaisy//src/util/FIFO.h **** {
 300:../../DaisyExamples/libDaisy//src/util/FIFO.h ****   public:
 301:../../DaisyExamples/libDaisy//src/util/FIFO.h ****     /** Creates an empty FIFO */
 302:../../DaisyExamples/libDaisy//src/util/FIFO.h ****     FIFO() : FIFOBase<T>(buffer_, capacity + 1) {}
 907              		.loc 5 302 5 is_stmt 1 view .LVU243
 908              	.LBB527:
 909              	.LBB525:
 910              	.LBI518:
  14:../../DaisyExamples/libDaisy//src/util/FIFO.h ****     : buffer_(buffer), bufferSize_(bufferSize), bufferIn_(0), bufferOut_(0)
 911              		.loc 5 14 5 view .LVU244
 912              	.LBB523:
 913              	.LBB521:
  15:../../DaisyExamples/libDaisy//src/util/FIFO.h ****     {
 914              		.loc 5 15 75 is_stmt 0 view .LVU245
 915 002c 40F20113 		movw	r3, #257
 916              	.LBE521:
 917              	.LBE523:
 918              	.LBE525:
 919              	.LBE527:
 920              	.LBE530:
 921              	.LBB531:
 922              	.LBB510:
 923              	.LBB509:
 924              	.LBB507:
 925              	.LBB508:
 926              		.loc 21 94 35 view .LVU246
 927 0030 C4F89051 		str	r5, [r4, #400]
 928              	.LBE508:
 929              	.LBE507:
 930              	.LBE509:
 931              	.LBE510:
 932              	.LBE531:
 933              	.LBB532:
 934              	.LBB528:
 935              	.LBB526:
 936              	.LBB524:
 937              	.LBB522:
  15:../../DaisyExamples/libDaisy//src/util/FIFO.h ****     {
 938              		.loc 5 15 75 view .LVU247
 939 0034 C4F84852 		str	r5, [r4, #584]
 940 0038 C4F84C52 		str	r5, [r4, #588]
 941              	.LVL37:
  15:../../DaisyExamples/libDaisy//src/util/FIFO.h ****     {
 942              		.loc 5 15 75 view .LVU248
ARM GAS  /var/folders/hp/45mn71hd0ps5f5pnytxy5bt00000gn/T//ccpJ9dAn.s 			page 48


 943 003c C4E99013 		strd	r1, r3, [r4, #576]
 944              	.LBE522:
 945              	.LBE524:
 946              	.LBE526:
 947              	.LBE528:
 948              	.LBE532:
 949              	.LBE534:
 950              	.LBE554:
 951              	.LBE556:
 952              	.LBE558:
   7:SynthV2.cpp   **** static Oscillator osc;
 953              		.loc 17 7 17 view .LVU249
 954 0040 0A49     		ldr	r1, .L22+12
 955 0042 FFF7FEFF 		bl	__aeabi_atexit
 956              	.LVL38:
 957              	.LBB559:
 958              	.LBI559:
  23:../../DaisyExamples/DaisySP//Source/Synthesis/oscillator.h ****     ~Oscillator() {}
 959              		.loc 16 23 5 is_stmt 1 view .LVU250
  23:../../DaisyExamples/DaisySP//Source/Synthesis/oscillator.h ****     ~Oscillator() {}
 960              		.loc 16 23 5 is_stmt 0 view .LVU251
 961              	.LBE559:
   8:SynthV2.cpp   **** static Parameter p_freq;
 962              		.loc 17 8 19 view .LVU252
 963 0046 084A     		ldr	r2, .L22+8
 964 0048 0949     		ldr	r1, .L22+16
 965 004a 0A48     		ldr	r0, .L22+20
 966 004c FFF7FEFF 		bl	__aeabi_atexit
 967              	.LVL39:
 968              	.LBB560:
 969              	.LBI560:
  25:../../DaisyExamples/libDaisy//src/hid/parameter.h ****     /** Destructor */
 970              		.loc 1 25 5 is_stmt 1 view .LVU253
 971              	.LBB561:
 972              	.LBB562:
 973              	.LBI562:
  21:../../DaisyExamples/libDaisy//src/hid/ctrl.h ****     /** destructor */
 974              		.loc 2 21 5 view .LVU254
  21:../../DaisyExamples/libDaisy//src/hid/ctrl.h ****     /** destructor */
 975              		.loc 2 21 5 is_stmt 0 view .LVU255
 976              	.LBE562:
 977              	.LBE561:
 978              	.LBE560:
   9:SynthV2.cpp   **** 
 979              		.loc 17 9 18 view .LVU256
 980 0050 054A     		ldr	r2, .L22+8
 981 0052 0949     		ldr	r1, .L22+24
 982 0054 0948     		ldr	r0, .L22+28
 983              	.LBE563:
 984              	.LBE565:
 985              		.loc 17 55 1 view .LVU257
 986 0056 BDE83840 		pop	{r3, r4, r5, lr}
 987              		.cfi_restore 14
 988              		.cfi_restore 5
 989              		.cfi_restore 4
 990              		.cfi_restore 3
 991              		.cfi_def_cfa_offset 0
ARM GAS  /var/folders/hp/45mn71hd0ps5f5pnytxy5bt00000gn/T//ccpJ9dAn.s 			page 49


 992              	.LBB566:
 993              	.LBB564:
   9:SynthV2.cpp   **** 
 994              		.loc 17 9 18 view .LVU258
 995 005a FFF7FEBF 		b	__aeabi_atexit
 996              	.LVL40:
 997              	.L23:
 998 005e 00BF     		.align	2
 999              	.L22:
 1000 0060 00000000 		.word	_ZL3pod
 1001 0064 0080707F 		.word	2138079232
 1002 0068 00000000 		.word	__dso_handle
 1003 006c 00000000 		.word	_ZN5daisy8DaisyPodD1Ev
 1004 0070 00000000 		.word	_ZN7daisysp10OscillatorD1Ev
 1005 0074 00000000 		.word	.LANCHOR1
 1006 0078 00000000 		.word	_ZN5daisy9ParameterD1Ev
 1007 007c 00000000 		.word	.LANCHOR0
 1008              	.LBE564:
 1009              	.LBE566:
 1010              		.cfi_endproc
 1011              	.LFE5439:
 1013              		.section	.init_array,"aw",%init_array
 1014              		.align	2
 1015 0000 00000000 		.word	_GLOBAL__sub_I_sig(target1)
 1016              		.global	freq
 1017              		.global	sig
 1018              		.section	.bss._ZL3osc,"aw",%nobits
 1019              		.align	2
 1020              		.set	.LANCHOR1,. + 0
 1023              	_ZL3osc:
 1024 0000 00000000 		.space	44
 1024      00000000 
 1024      00000000 
 1024      00000000 
 1024      00000000 
 1025              		.section	.bss._ZL3pod,"aw",%nobits
 1026              		.align	2
 1029              	_ZL3pod:
 1030 0000 00000000 		.space	37600
 1030      00000000 
 1030      00000000 
 1030      00000000 
 1030      00000000 
 1031              		.section	.bss._ZL6p_freq,"aw",%nobits
 1032              		.align	2
 1033              		.set	.LANCHOR0,. + 0
 1036              	_ZL6p_freq:
 1037 0000 00000000 		.space	56
 1037      00000000 
 1037      00000000 
 1037      00000000 
 1037      00000000 
 1038              		.section	.bss.freq,"aw",%nobits
 1039              		.align	2
 1040              		.set	.LANCHOR3,. + 0
 1043              	freq:
 1044 0000 00000000 		.space	4
ARM GAS  /var/folders/hp/45mn71hd0ps5f5pnytxy5bt00000gn/T//ccpJ9dAn.s 			page 50


 1045              		.section	.bss.sig,"aw",%nobits
 1046              		.align	2
 1047              		.set	.LANCHOR2,. + 0
 1050              	sig:
 1051 0000 00000000 		.space	4
 1052              		.text
 1053              	.Letext0:
 1054              		.file 22 "/Library/DaisyToolchain/0.2.0/arm/arm-none-eabi/include/machine/_default_types.h"
 1055              		.file 23 "/Library/DaisyToolchain/0.2.0/arm/arm-none-eabi/include/sys/_stdint.h"
 1056              		.file 24 "/Library/DaisyToolchain/0.2.0/arm/arm-none-eabi/include/stdint.h"
 1057              		.file 25 "/Library/DaisyToolchain/0.2.0/arm/lib/gcc/arm-none-eabi/10.3.1/include/stddef.h"
 1058              		.file 26 "/Library/DaisyToolchain/0.2.0/arm/arm-none-eabi/include/c++/10.3.1/cmath"
 1059              		.file 27 "/Library/DaisyToolchain/0.2.0/arm/arm-none-eabi/include/c++/10.3.1/bits/std_abs.h"
 1060              		.file 28 "/Library/DaisyToolchain/0.2.0/arm/arm-none-eabi/include/c++/10.3.1/cstdlib"
 1061              		.file 29 "/Library/DaisyToolchain/0.2.0/arm/arm-none-eabi/include/c++/10.3.1/cstdint"
 1062              		.file 30 "/Library/DaisyToolchain/0.2.0/arm/arm-none-eabi/include/c++/10.3.1/arm-none-eabi/thumb/v
 1063              		.file 31 "/Library/DaisyToolchain/0.2.0/arm/arm-none-eabi/include/c++/10.3.1/type_traits"
 1064              		.file 32 "/Library/DaisyToolchain/0.2.0/arm/arm-none-eabi/include/c++/10.3.1/debug/debug.h"
 1065              		.file 33 "/Library/DaisyToolchain/0.2.0/arm/arm-none-eabi/include/c++/10.3.1/bits/algorithmfwd.h"
 1066              		.file 34 "/Library/DaisyToolchain/0.2.0/arm/arm-none-eabi/include/c++/10.3.1/bits/stl_pair.h"
 1067              		.file 35 "/Library/DaisyToolchain/0.2.0/arm/arm-none-eabi/include/c++/10.3.1/bits/exception_ptr.h"
 1068              		.file 36 "/Library/DaisyToolchain/0.2.0/arm/arm-none-eabi/include/c++/10.3.1/initializer_list"
 1069              		.file 37 "/Library/DaisyToolchain/0.2.0/arm/arm-none-eabi/include/c++/10.3.1/cstdarg"
 1070              		.file 38 "/Library/DaisyToolchain/0.2.0/arm/arm-none-eabi/include/c++/10.3.1/cstdio"
 1071              		.file 39 "/Library/DaisyToolchain/0.2.0/arm/arm-none-eabi/include/c++/10.3.1/cstring"
 1072              		.file 40 "/Library/DaisyToolchain/0.2.0/arm/arm-none-eabi/include/c++/10.3.1/cwchar"
 1073              		.file 41 "/Library/DaisyToolchain/0.2.0/arm/arm-none-eabi/include/c++/10.3.1/clocale"
 1074              		.file 42 "/Library/DaisyToolchain/0.2.0/arm/arm-none-eabi/include/c++/10.3.1/bits/basic_string.h"
 1075              		.file 43 "/Library/DaisyToolchain/0.2.0/arm/arm-none-eabi/include/c++/10.3.1/bits/stl_iterator.h"
 1076              		.file 44 "/Library/DaisyToolchain/0.2.0/arm/arm-none-eabi/include/c++/10.3.1/bits/predefined_ops.h
 1077              		.file 45 "/Library/DaisyToolchain/0.2.0/arm/arm-none-eabi/include/sys/_types.h"
 1078              		.file 46 "/Library/DaisyToolchain/0.2.0/arm/arm-none-eabi/include/sys/reent.h"
 1079              		.file 47 "/Library/DaisyToolchain/0.2.0/arm/arm-none-eabi/include/sys/lock.h"
 1080              		.file 48 "/Library/DaisyToolchain/0.2.0/arm/arm-none-eabi/include/math.h"
 1081              		.file 49 "/Library/DaisyToolchain/0.2.0/arm/arm-none-eabi/include/stdlib.h"
 1082              		.file 50 "/Library/DaisyToolchain/0.2.0/arm/arm-none-eabi/include/c++/10.3.1/math.h"
 1083              		.file 51 "/Library/DaisyToolchain/0.2.0/arm/arm-none-eabi/include/c++/10.3.1/stdlib.h"
 1084              		.file 52 "../../DaisyExamples/libDaisy//src/daisy_core.h"
 1085              		.file 53 "../../DaisyExamples/libDaisy//src/per/tim.h"
 1086              		.file 54 "../../DaisyExamples/libDaisy//src/hid/MidiEvent.h"
 1087              		.file 55 "../../DaisyExamples/libDaisy//src/util/wav_format.h"
 1088              		.file 56 "../../DaisyExamples/libDaisy//src/util/color.h"
 1089              		.file 57 "../../DaisyExamples/libDaisy//src/dev/max11300.h"
 1090              		.file 58 "../../DaisyExamples/libDaisy//src/per/gpio.h"
 1091              		.file 59 "../../DaisyExamples/libDaisy//src/dev/sdram.h"
 1092              		.file 60 "/Library/DaisyToolchain/0.2.0/arm/lib/gcc/arm-none-eabi/10.3.1/include/stdarg.h"
 1093              		.file 61 "/Library/DaisyToolchain/0.2.0/arm/arm-none-eabi/include/stdio.h"
 1094              		.file 62 "/Library/DaisyToolchain/0.2.0/arm/arm-none-eabi/include/string.h"
 1095              		.file 63 "../../DaisyExamples/DaisySP//Source/Control/adenv.h"
 1096              		.file 64 "../../DaisyExamples/DaisySP//Source/Utility/dsp.h"
 1097              		.file 65 "/Library/DaisyToolchain/0.2.0/arm/arm-none-eabi/include/wchar.h"
 1098              		.file 66 "/Library/DaisyToolchain/0.2.0/arm/arm-none-eabi/include/locale.h"
 1099              		.file 67 "../../DaisyExamples/libDaisy//src/dev/sr_595.h"
 1100              		.file 68 "<built-in>"
ARM GAS  /var/folders/hp/45mn71hd0ps5f5pnytxy5bt00000gn/T//ccpJ9dAn.s 			page 51

