ARM GAS  /var/folders/hp/45mn71hd0ps5f5pnytxy5bt00000gn/T//ccaKukFC.s 			page 1


   1              		.cpu cortex-m7
   2              		.arch armv7e-m
   3              		.fpu fpv5-d16
   4              		.eabi_attribute 28, 1
   5              		.eabi_attribute 20, 1
   6              		.eabi_attribute 21, 1
   7              		.eabi_attribute 23, 3
   8              		.eabi_attribute 24, 1
   9              		.eabi_attribute 25, 1
  10              		.eabi_attribute 26, 1
  11              		.eabi_attribute 30, 2
  12              		.eabi_attribute 34, 1
  13              		.eabi_attribute 18, 4
  14              		.file	"SynthV5.cpp"
  15              		.text
  16              	.Ltext0:
  17              		.cfi_sections	.debug_frame
  18              		.section	.text._ZN5daisy9ParameterD2Ev,"axG",%progbits,_ZN5daisy9ParameterD5Ev,comdat
  19              		.align	1
  20              		.p2align 2,,3
  21              		.weak	_ZN5daisy9ParameterD2Ev
  22              		.syntax unified
  23              		.thumb
  24              		.thumb_func
  26              	_ZN5daisy9ParameterD2Ev:
  27              	.LVL0:
  28              	.LFB1689:
  29              		.file 1 "../../DaisyExamples/libDaisy/src/hid/parameter.h"
   1:../../DaisyExamples/libDaisy/src/hid/parameter.h **** #pragma once
   2:../../DaisyExamples/libDaisy/src/hid/parameter.h **** #include <stdint.h>
   3:../../DaisyExamples/libDaisy/src/hid/parameter.h **** #include "hid/ctrl.h"
   4:../../DaisyExamples/libDaisy/src/hid/parameter.h **** 
   5:../../DaisyExamples/libDaisy/src/hid/parameter.h **** namespace daisy
   6:../../DaisyExamples/libDaisy/src/hid/parameter.h **** {
   7:../../DaisyExamples/libDaisy/src/hid/parameter.h **** /** @addtogroup controls
   8:../../DaisyExamples/libDaisy/src/hid/parameter.h ****     @{
   9:../../DaisyExamples/libDaisy/src/hid/parameter.h **** */
  10:../../DaisyExamples/libDaisy/src/hid/parameter.h **** 
  11:../../DaisyExamples/libDaisy/src/hid/parameter.h **** /**      Simple parameter mapping tool that takes a 0-1 input from an hid_ctrl. */
  12:../../DaisyExamples/libDaisy/src/hid/parameter.h **** class Parameter
  13:../../DaisyExamples/libDaisy/src/hid/parameter.h **** {
  14:../../DaisyExamples/libDaisy/src/hid/parameter.h ****   public:
  15:../../DaisyExamples/libDaisy/src/hid/parameter.h ****     /** Curves are applied to the output signal */
  16:../../DaisyExamples/libDaisy/src/hid/parameter.h ****     enum Curve
  17:../../DaisyExamples/libDaisy/src/hid/parameter.h ****     {
  18:../../DaisyExamples/libDaisy/src/hid/parameter.h ****         LINEAR,      /**< Linear curve */
  19:../../DaisyExamples/libDaisy/src/hid/parameter.h ****         EXPONENTIAL, /**< Exponential curve */
  20:../../DaisyExamples/libDaisy/src/hid/parameter.h ****         LOGARITHMIC, /**<  Logarithmic curve */
  21:../../DaisyExamples/libDaisy/src/hid/parameter.h ****         CUBE,        /**< Cubic curve */
  22:../../DaisyExamples/libDaisy/src/hid/parameter.h ****         LAST,        /**< Final enum element. */
  23:../../DaisyExamples/libDaisy/src/hid/parameter.h ****     };
  24:../../DaisyExamples/libDaisy/src/hid/parameter.h ****     /** Constructor */
  25:../../DaisyExamples/libDaisy/src/hid/parameter.h ****     Parameter() {}
  26:../../DaisyExamples/libDaisy/src/hid/parameter.h ****     /** Destructor */
  27:../../DaisyExamples/libDaisy/src/hid/parameter.h ****     ~Parameter() {}
  30              		.loc 1 27 5 view -0
  31              		.cfi_startproc
ARM GAS  /var/folders/hp/45mn71hd0ps5f5pnytxy5bt00000gn/T//ccaKukFC.s 			page 2


  32              		@ args = 0, pretend = 0, frame = 0
  33              		@ frame_needed = 0, uses_anonymous_args = 0
  34              		@ link register save eliminated.
  35              	.LBB476:
  36              	.LBI476:
  37              		.file 2 "../../DaisyExamples/libDaisy/src/hid/ctrl.h"
   1:../../DaisyExamples/libDaisy/src/hid/ctrl.h **** #pragma once
   2:../../DaisyExamples/libDaisy/src/hid/ctrl.h **** #ifndef DSY_KNOB_H
   3:../../DaisyExamples/libDaisy/src/hid/ctrl.h **** #define DSY_KNOB_H /**< & */
   4:../../DaisyExamples/libDaisy/src/hid/ctrl.h **** #include <stdint.h>
   5:../../DaisyExamples/libDaisy/src/hid/ctrl.h **** 
   6:../../DaisyExamples/libDaisy/src/hid/ctrl.h **** #ifdef __cplusplus
   7:../../DaisyExamples/libDaisy/src/hid/ctrl.h **** namespace daisy
   8:../../DaisyExamples/libDaisy/src/hid/ctrl.h **** {
   9:../../DaisyExamples/libDaisy/src/hid/ctrl.h **** /**
  10:../../DaisyExamples/libDaisy/src/hid/ctrl.h ****     @brief Hardware Interface for control inputs \n 
  11:../../DaisyExamples/libDaisy/src/hid/ctrl.h ****     Primarily designed for ADC input controls such as \n 
  12:../../DaisyExamples/libDaisy/src/hid/ctrl.h ****     potentiometers, and control voltage. \n 
  13:../../DaisyExamples/libDaisy/src/hid/ctrl.h ****     @author Stephen Hensley
  14:../../DaisyExamples/libDaisy/src/hid/ctrl.h ****     @date November 2019
  15:../../DaisyExamples/libDaisy/src/hid/ctrl.h ****     @ingroup controls
  16:../../DaisyExamples/libDaisy/src/hid/ctrl.h **** */
  17:../../DaisyExamples/libDaisy/src/hid/ctrl.h **** class AnalogControl
  18:../../DaisyExamples/libDaisy/src/hid/ctrl.h **** {
  19:../../DaisyExamples/libDaisy/src/hid/ctrl.h ****   public:
  20:../../DaisyExamples/libDaisy/src/hid/ctrl.h ****     /** Constructor */
  21:../../DaisyExamples/libDaisy/src/hid/ctrl.h ****     AnalogControl() {}
  22:../../DaisyExamples/libDaisy/src/hid/ctrl.h ****     /** destructor */
  23:../../DaisyExamples/libDaisy/src/hid/ctrl.h ****     ~AnalogControl() {}
  38              		.loc 2 23 5 view .LVU1
  39              		.loc 2 23 5 is_stmt 0 view .LVU2
  40              	.LBE476:
  41              		.loc 1 27 19 view .LVU3
  42 0000 7047     		bx	lr
  43              		.cfi_endproc
  44              	.LFE1689:
  46              		.weak	_ZN5daisy9ParameterD1Ev
  47              		.thumb_set _ZN5daisy9ParameterD1Ev,_ZN5daisy9ParameterD2Ev
  48 0002 00BF     		.section	.text._ZN5daisy8DaisyPodD2Ev,"axG",%progbits,_ZN5daisy8DaisyPodD5Ev,comdat
  49              		.align	1
  50              		.p2align 2,,3
  51              		.weak	_ZN5daisy8DaisyPodD2Ev
  52              		.syntax unified
  53              		.thumb
  54              		.thumb_func
  56              	_ZN5daisy8DaisyPodD2Ev:
  57              	.LVL1:
  58              	.LFB2565:
  59              		.file 3 "../../DaisyExamples/libDaisy/src/daisy_pod.h"
   1:../../DaisyExamples/libDaisy/src/daisy_pod.h **** #pragma once
   2:../../DaisyExamples/libDaisy/src/daisy_pod.h **** #ifndef DSY_POD_BSP_H
   3:../../DaisyExamples/libDaisy/src/daisy_pod.h **** #define DSY_POD_BSP_H
   4:../../DaisyExamples/libDaisy/src/daisy_pod.h **** 
   5:../../DaisyExamples/libDaisy/src/daisy_pod.h **** #include "daisy_seed.h"
   6:../../DaisyExamples/libDaisy/src/daisy_pod.h **** 
   7:../../DaisyExamples/libDaisy/src/daisy_pod.h **** namespace daisy
   8:../../DaisyExamples/libDaisy/src/daisy_pod.h **** {
ARM GAS  /var/folders/hp/45mn71hd0ps5f5pnytxy5bt00000gn/T//ccaKukFC.s 			page 3


   9:../../DaisyExamples/libDaisy/src/daisy_pod.h **** /**
  10:../../DaisyExamples/libDaisy/src/daisy_pod.h ****     @brief Class that handles initializing all of the hardware specific to the Daisy Patch Board. \
  11:../../DaisyExamples/libDaisy/src/daisy_pod.h ****     Helper funtions are also in place to provide easy access to built-in controls and peripherals.
  12:../../DaisyExamples/libDaisy/src/daisy_pod.h ****     @author Stephen Hensley
  13:../../DaisyExamples/libDaisy/src/daisy_pod.h ****     @date November 2019
  14:../../DaisyExamples/libDaisy/src/daisy_pod.h ****     @ingroup boards
  15:../../DaisyExamples/libDaisy/src/daisy_pod.h **** */
  16:../../DaisyExamples/libDaisy/src/daisy_pod.h **** class DaisyPod
  17:../../DaisyExamples/libDaisy/src/daisy_pod.h **** {
  18:../../DaisyExamples/libDaisy/src/daisy_pod.h ****   public:
  19:../../DaisyExamples/libDaisy/src/daisy_pod.h ****     /** Switches */
  20:../../DaisyExamples/libDaisy/src/daisy_pod.h ****     enum Sw
  21:../../DaisyExamples/libDaisy/src/daisy_pod.h ****     {
  22:../../DaisyExamples/libDaisy/src/daisy_pod.h ****         BUTTON_1,    /** & */
  23:../../DaisyExamples/libDaisy/src/daisy_pod.h ****         BUTTON_2,    /** & */
  24:../../DaisyExamples/libDaisy/src/daisy_pod.h ****         BUTTON_LAST, /** &  */
  25:../../DaisyExamples/libDaisy/src/daisy_pod.h ****     };
  26:../../DaisyExamples/libDaisy/src/daisy_pod.h **** 
  27:../../DaisyExamples/libDaisy/src/daisy_pod.h ****     /** Knobs */
  28:../../DaisyExamples/libDaisy/src/daisy_pod.h ****     enum Knob
  29:../../DaisyExamples/libDaisy/src/daisy_pod.h ****     {
  30:../../DaisyExamples/libDaisy/src/daisy_pod.h ****         KNOB_1,    /** &  */
  31:../../DaisyExamples/libDaisy/src/daisy_pod.h ****         KNOB_2,    /** & */
  32:../../DaisyExamples/libDaisy/src/daisy_pod.h ****         KNOB_LAST, /** & */
  33:../../DaisyExamples/libDaisy/src/daisy_pod.h ****     };
  34:../../DaisyExamples/libDaisy/src/daisy_pod.h **** 
  35:../../DaisyExamples/libDaisy/src/daisy_pod.h ****     DaisyPod() {}
  36:../../DaisyExamples/libDaisy/src/daisy_pod.h ****     ~DaisyPod() {}
  60              		.loc 3 36 5 is_stmt 1 view -0
  61              		.cfi_startproc
  62              		@ args = 0, pretend = 0, frame = 0
  63              		@ frame_needed = 0, uses_anonymous_args = 0
  64              		@ link register save eliminated.
  65              	.LBB477:
  66              	.LBI477:
  67              		.file 4 "../../DaisyExamples/libDaisy/src/hid/midi.h"
   1:../../DaisyExamples/libDaisy/src/hid/midi.h **** #pragma once
   2:../../DaisyExamples/libDaisy/src/hid/midi.h **** #ifndef DSY_MIDI_H
   3:../../DaisyExamples/libDaisy/src/hid/midi.h **** #define DSY_MIDI_H
   4:../../DaisyExamples/libDaisy/src/hid/midi.h **** 
   5:../../DaisyExamples/libDaisy/src/hid/midi.h **** #include <stdint.h>
   6:../../DaisyExamples/libDaisy/src/hid/midi.h **** #include <stdlib.h>
   7:../../DaisyExamples/libDaisy/src/hid/midi.h **** #include <algorithm>
   8:../../DaisyExamples/libDaisy/src/hid/midi.h **** #include "per/uart.h"
   9:../../DaisyExamples/libDaisy/src/hid/midi.h **** #include "util/ringbuffer.h"
  10:../../DaisyExamples/libDaisy/src/hid/midi.h **** #include "util/FIFO.h"
  11:../../DaisyExamples/libDaisy/src/hid/midi.h **** #include "hid/midi_parser.h"
  12:../../DaisyExamples/libDaisy/src/hid/midi.h **** #include "hid/usb_midi.h"
  13:../../DaisyExamples/libDaisy/src/hid/midi.h **** #include "sys/dma.h"
  14:../../DaisyExamples/libDaisy/src/hid/midi.h **** #include "sys/system.h"
  15:../../DaisyExamples/libDaisy/src/hid/midi.h **** 
  16:../../DaisyExamples/libDaisy/src/hid/midi.h **** namespace daisy
  17:../../DaisyExamples/libDaisy/src/hid/midi.h **** {
  18:../../DaisyExamples/libDaisy/src/hid/midi.h **** /** @brief   Transport layer for sending and receiving MIDI data over UART
  19:../../DaisyExamples/libDaisy/src/hid/midi.h ****  *  @details This is the mode of communication used for TRS and DIN MIDI
  20:../../DaisyExamples/libDaisy/src/hid/midi.h ****  *           There is an additional 2kB of RAM data used within this class
  21:../../DaisyExamples/libDaisy/src/hid/midi.h ****  *           for processing bulk data from the UART peripheral
ARM GAS  /var/folders/hp/45mn71hd0ps5f5pnytxy5bt00000gn/T//ccaKukFC.s 			page 4


  22:../../DaisyExamples/libDaisy/src/hid/midi.h ****  *  @ingroup midi
  23:../../DaisyExamples/libDaisy/src/hid/midi.h **** */
  24:../../DaisyExamples/libDaisy/src/hid/midi.h **** class MidiUartTransport
  25:../../DaisyExamples/libDaisy/src/hid/midi.h **** {
  26:../../DaisyExamples/libDaisy/src/hid/midi.h ****   public:
  27:../../DaisyExamples/libDaisy/src/hid/midi.h ****     typedef void (*MidiRxParseCallback)(uint8_t* data,
  28:../../DaisyExamples/libDaisy/src/hid/midi.h ****                                         size_t   size,
  29:../../DaisyExamples/libDaisy/src/hid/midi.h ****                                         void*    context);
  30:../../DaisyExamples/libDaisy/src/hid/midi.h **** 
  31:../../DaisyExamples/libDaisy/src/hid/midi.h ****     MidiUartTransport() {}
  32:../../DaisyExamples/libDaisy/src/hid/midi.h ****     ~MidiUartTransport() {}
  33:../../DaisyExamples/libDaisy/src/hid/midi.h **** 
  34:../../DaisyExamples/libDaisy/src/hid/midi.h ****     /** @brief Configuration structure for UART MIDI */
  35:../../DaisyExamples/libDaisy/src/hid/midi.h ****     struct Config
  36:../../DaisyExamples/libDaisy/src/hid/midi.h ****     {
  37:../../DaisyExamples/libDaisy/src/hid/midi.h ****         UartHandler::Config::Peripheral periph;
  38:../../DaisyExamples/libDaisy/src/hid/midi.h ****         dsy_gpio_pin                    rx;
  39:../../DaisyExamples/libDaisy/src/hid/midi.h ****         dsy_gpio_pin                    tx;
  40:../../DaisyExamples/libDaisy/src/hid/midi.h **** 
  41:../../DaisyExamples/libDaisy/src/hid/midi.h ****         /** Pointer to buffer for DMA UART rx byte transfer in background.
  42:../../DaisyExamples/libDaisy/src/hid/midi.h ****          *
  43:../../DaisyExamples/libDaisy/src/hid/midi.h ****          *  @details By default this uses a shared buffer in DMA_BUFFER_MEM_SECTION,
  44:../../DaisyExamples/libDaisy/src/hid/midi.h ****          *           which can only be utilized for a single UART peripheral. To
  45:../../DaisyExamples/libDaisy/src/hid/midi.h ****          *           use MIDI with multiple UART peripherals, you must provide your own
  46:../../DaisyExamples/libDaisy/src/hid/midi.h ****          *           buffer, allocated to a DMA-capable memory section.
  47:../../DaisyExamples/libDaisy/src/hid/midi.h ****          */
  48:../../DaisyExamples/libDaisy/src/hid/midi.h ****         uint8_t* rx_buffer;
  49:../../DaisyExamples/libDaisy/src/hid/midi.h **** 
  50:../../DaisyExamples/libDaisy/src/hid/midi.h ****         /** Size in bytes of rx_buffer.
  51:../../DaisyExamples/libDaisy/src/hid/midi.h ****          *
  52:../../DaisyExamples/libDaisy/src/hid/midi.h ****          *  @details This size determines the maximum Rx bytes readable by the UART in the backgrou
  53:../../DaisyExamples/libDaisy/src/hid/midi.h ****          *           By default it's set to the size of the default shared rx_buffer (256 bytes).
  54:../../DaisyExamples/libDaisy/src/hid/midi.h ****          *           While much smaller sizes can be used, data can get missed if the buffer is too
  55:../../DaisyExamples/libDaisy/src/hid/midi.h ****          */
  56:../../DaisyExamples/libDaisy/src/hid/midi.h ****         size_t rx_buffer_size;
  57:../../DaisyExamples/libDaisy/src/hid/midi.h **** 
  58:../../DaisyExamples/libDaisy/src/hid/midi.h ****         Config();
  59:../../DaisyExamples/libDaisy/src/hid/midi.h ****     };
  60:../../DaisyExamples/libDaisy/src/hid/midi.h **** 
  61:../../DaisyExamples/libDaisy/src/hid/midi.h ****     /** @brief Initialization of UART using config struct */
  62:../../DaisyExamples/libDaisy/src/hid/midi.h ****     inline void Init(Config config)
  63:../../DaisyExamples/libDaisy/src/hid/midi.h ****     {
  64:../../DaisyExamples/libDaisy/src/hid/midi.h ****         UartHandler::Config uart_config;
  65:../../DaisyExamples/libDaisy/src/hid/midi.h **** 
  66:../../DaisyExamples/libDaisy/src/hid/midi.h ****         //defaults
  67:../../DaisyExamples/libDaisy/src/hid/midi.h ****         uart_config.baudrate   = 31250;
  68:../../DaisyExamples/libDaisy/src/hid/midi.h ****         uart_config.stopbits   = UartHandler::Config::StopBits::BITS_1;
  69:../../DaisyExamples/libDaisy/src/hid/midi.h ****         uart_config.parity     = UartHandler::Config::Parity::NONE;
  70:../../DaisyExamples/libDaisy/src/hid/midi.h ****         uart_config.mode       = UartHandler::Config::Mode::TX_RX;
  71:../../DaisyExamples/libDaisy/src/hid/midi.h ****         uart_config.wordlength = UartHandler::Config::WordLength::BITS_8;
  72:../../DaisyExamples/libDaisy/src/hid/midi.h **** 
  73:../../DaisyExamples/libDaisy/src/hid/midi.h ****         //user settings
  74:../../DaisyExamples/libDaisy/src/hid/midi.h ****         uart_config.periph        = config.periph;
  75:../../DaisyExamples/libDaisy/src/hid/midi.h ****         uart_config.pin_config.rx = config.rx;
  76:../../DaisyExamples/libDaisy/src/hid/midi.h ****         uart_config.pin_config.tx = config.tx;
  77:../../DaisyExamples/libDaisy/src/hid/midi.h **** 
  78:../../DaisyExamples/libDaisy/src/hid/midi.h ****         rx_buffer      = config.rx_buffer;
ARM GAS  /var/folders/hp/45mn71hd0ps5f5pnytxy5bt00000gn/T//ccaKukFC.s 			page 5


  79:../../DaisyExamples/libDaisy/src/hid/midi.h ****         rx_buffer_size = config.rx_buffer_size;
  80:../../DaisyExamples/libDaisy/src/hid/midi.h **** 
  81:../../DaisyExamples/libDaisy/src/hid/midi.h ****         /** zero the buffer to ensure emptiness regardless of source memory */
  82:../../DaisyExamples/libDaisy/src/hid/midi.h ****         std::fill(rx_buffer, rx_buffer + rx_buffer_size, 0);
  83:../../DaisyExamples/libDaisy/src/hid/midi.h **** 
  84:../../DaisyExamples/libDaisy/src/hid/midi.h ****         uart_.Init(uart_config);
  85:../../DaisyExamples/libDaisy/src/hid/midi.h ****     }
  86:../../DaisyExamples/libDaisy/src/hid/midi.h **** 
  87:../../DaisyExamples/libDaisy/src/hid/midi.h ****     /** @brief Start the UART peripheral in listening mode.
  88:../../DaisyExamples/libDaisy/src/hid/midi.h ****      *  This will fill an internal data structure in the background */
  89:../../DaisyExamples/libDaisy/src/hid/midi.h ****     inline void StartRx(MidiRxParseCallback parse_callback, void* context)
  90:../../DaisyExamples/libDaisy/src/hid/midi.h ****     {
  91:../../DaisyExamples/libDaisy/src/hid/midi.h ****         parse_context_  = context;
  92:../../DaisyExamples/libDaisy/src/hid/midi.h ****         parse_callback_ = parse_callback;
  93:../../DaisyExamples/libDaisy/src/hid/midi.h ****         dsy_dma_clear_cache_for_buffer((uint8_t*)this,
  94:../../DaisyExamples/libDaisy/src/hid/midi.h ****                                        sizeof(MidiUartTransport));
  95:../../DaisyExamples/libDaisy/src/hid/midi.h ****         uart_.DmaListenStart(
  96:../../DaisyExamples/libDaisy/src/hid/midi.h ****             rx_buffer, rx_buffer_size, MidiUartTransport::rxCallback, this);
  97:../../DaisyExamples/libDaisy/src/hid/midi.h ****     }
  98:../../DaisyExamples/libDaisy/src/hid/midi.h **** 
  99:../../DaisyExamples/libDaisy/src/hid/midi.h ****     /** @brief returns whether the UART peripheral is actively listening in the background or not *
 100:../../DaisyExamples/libDaisy/src/hid/midi.h ****     inline bool RxActive() { return uart_.IsListening(); }
 101:../../DaisyExamples/libDaisy/src/hid/midi.h **** 
 102:../../DaisyExamples/libDaisy/src/hid/midi.h ****     /** @brief This is a no-op for UART transport - Rx is via DMA callback with circular buffer */
 103:../../DaisyExamples/libDaisy/src/hid/midi.h ****     inline void FlushRx() {}
 104:../../DaisyExamples/libDaisy/src/hid/midi.h **** 
 105:../../DaisyExamples/libDaisy/src/hid/midi.h ****     /** @brief sends the buffer of bytes out of the UART peripheral */
 106:../../DaisyExamples/libDaisy/src/hid/midi.h ****     inline void Tx(uint8_t* buff, size_t size) { uart_.PollTx(buff, size); }
 107:../../DaisyExamples/libDaisy/src/hid/midi.h **** 
 108:../../DaisyExamples/libDaisy/src/hid/midi.h ****   private:
 109:../../DaisyExamples/libDaisy/src/hid/midi.h ****     UartHandler         uart_;
 110:../../DaisyExamples/libDaisy/src/hid/midi.h ****     uint8_t*            rx_buffer;
 111:../../DaisyExamples/libDaisy/src/hid/midi.h ****     size_t              rx_buffer_size;
 112:../../DaisyExamples/libDaisy/src/hid/midi.h ****     void*               parse_context_;
 113:../../DaisyExamples/libDaisy/src/hid/midi.h ****     MidiRxParseCallback parse_callback_;
 114:../../DaisyExamples/libDaisy/src/hid/midi.h **** 
 115:../../DaisyExamples/libDaisy/src/hid/midi.h ****     /** Static callback for Uart MIDI that occurs when
 116:../../DaisyExamples/libDaisy/src/hid/midi.h ****          *  new data is available from the peripheral.
 117:../../DaisyExamples/libDaisy/src/hid/midi.h ****          *  The new data is transferred from the peripheral to the
 118:../../DaisyExamples/libDaisy/src/hid/midi.h ****          *  MIDI instance's byte FIFO that feeds the MIDI parser.
 119:../../DaisyExamples/libDaisy/src/hid/midi.h ****          *
 120:../../DaisyExamples/libDaisy/src/hid/midi.h ****          *  TODO: Handle UartHandler errors better/at all.
 121:../../DaisyExamples/libDaisy/src/hid/midi.h ****          *  (If there is a UART error, there's not really any recovery
 122:../../DaisyExamples/libDaisy/src/hid/midi.h ****          *  option at the moment)
 123:../../DaisyExamples/libDaisy/src/hid/midi.h ****          */
 124:../../DaisyExamples/libDaisy/src/hid/midi.h ****     static void rxCallback(uint8_t*            data,
 125:../../DaisyExamples/libDaisy/src/hid/midi.h ****                            size_t              size,
 126:../../DaisyExamples/libDaisy/src/hid/midi.h ****                            void*               context,
 127:../../DaisyExamples/libDaisy/src/hid/midi.h ****                            UartHandler::Result res)
 128:../../DaisyExamples/libDaisy/src/hid/midi.h ****     {
 129:../../DaisyExamples/libDaisy/src/hid/midi.h ****         /** Read context as transport type */
 130:../../DaisyExamples/libDaisy/src/hid/midi.h ****         MidiUartTransport* transport
 131:../../DaisyExamples/libDaisy/src/hid/midi.h ****             = reinterpret_cast<MidiUartTransport*>(context);
 132:../../DaisyExamples/libDaisy/src/hid/midi.h ****         if(res == UartHandler::Result::OK)
 133:../../DaisyExamples/libDaisy/src/hid/midi.h ****         {
 134:../../DaisyExamples/libDaisy/src/hid/midi.h ****             if(transport->parse_callback_)
 135:../../DaisyExamples/libDaisy/src/hid/midi.h ****             {
ARM GAS  /var/folders/hp/45mn71hd0ps5f5pnytxy5bt00000gn/T//ccaKukFC.s 			page 6


 136:../../DaisyExamples/libDaisy/src/hid/midi.h ****                 transport->parse_callback_(
 137:../../DaisyExamples/libDaisy/src/hid/midi.h ****                     data, size, transport->parse_context_);
 138:../../DaisyExamples/libDaisy/src/hid/midi.h ****             }
 139:../../DaisyExamples/libDaisy/src/hid/midi.h ****         }
 140:../../DaisyExamples/libDaisy/src/hid/midi.h ****     }
 141:../../DaisyExamples/libDaisy/src/hid/midi.h **** };
 142:../../DaisyExamples/libDaisy/src/hid/midi.h **** 
 143:../../DaisyExamples/libDaisy/src/hid/midi.h **** /**
 144:../../DaisyExamples/libDaisy/src/hid/midi.h ****     @brief Simple MIDI Handler \n
 145:../../DaisyExamples/libDaisy/src/hid/midi.h ****     Parses bytes from an input into valid MidiEvents. \n
 146:../../DaisyExamples/libDaisy/src/hid/midi.h ****     The MidiEvents fill a FIFO queue that the user can pop messages from.
 147:../../DaisyExamples/libDaisy/src/hid/midi.h ****     @author shensley
 148:../../DaisyExamples/libDaisy/src/hid/midi.h ****     @date March 2020
 149:../../DaisyExamples/libDaisy/src/hid/midi.h ****     @ingroup midi
 150:../../DaisyExamples/libDaisy/src/hid/midi.h **** */
 151:../../DaisyExamples/libDaisy/src/hid/midi.h **** template <typename Transport>
 152:../../DaisyExamples/libDaisy/src/hid/midi.h **** class MidiHandler
 153:../../DaisyExamples/libDaisy/src/hid/midi.h **** {
 154:../../DaisyExamples/libDaisy/src/hid/midi.h ****   public:
 155:../../DaisyExamples/libDaisy/src/hid/midi.h ****     MidiHandler() {}
 156:../../DaisyExamples/libDaisy/src/hid/midi.h ****     ~MidiHandler() {}
  68              		.loc 4 156 5 view .LVU5
  69              	.LBB478:
  70              	.LBI478:
  71              		.file 5 "../../DaisyExamples/libDaisy/src/util/FIFO.h"
   1:../../DaisyExamples/libDaisy/src/util/FIFO.h **** #pragma once
   2:../../DaisyExamples/libDaisy/src/util/FIFO.h **** 
   3:../../DaisyExamples/libDaisy/src/util/FIFO.h **** #include <stdint.h>
   4:../../DaisyExamples/libDaisy/src/util/FIFO.h **** #include <stddef.h>
   5:../../DaisyExamples/libDaisy/src/util/FIFO.h **** #include <initializer_list>
   6:../../DaisyExamples/libDaisy/src/util/FIFO.h **** 
   7:../../DaisyExamples/libDaisy/src/util/FIFO.h **** namespace daisy
   8:../../DaisyExamples/libDaisy/src/util/FIFO.h **** {
   9:../../DaisyExamples/libDaisy/src/util/FIFO.h **** /** Capacity-independent base class for FIFO. Use FIFO instead. */
  10:../../DaisyExamples/libDaisy/src/util/FIFO.h **** template <typename T>
  11:../../DaisyExamples/libDaisy/src/util/FIFO.h **** class FIFOBase
  12:../../DaisyExamples/libDaisy/src/util/FIFO.h **** {
  13:../../DaisyExamples/libDaisy/src/util/FIFO.h ****   protected:
  14:../../DaisyExamples/libDaisy/src/util/FIFO.h ****     FIFOBase(T* buffer, size_t bufferSize)
  15:../../DaisyExamples/libDaisy/src/util/FIFO.h ****     : buffer_(buffer), bufferSize_(bufferSize), bufferIn_(0), bufferOut_(0)
  16:../../DaisyExamples/libDaisy/src/util/FIFO.h ****     {
  17:../../DaisyExamples/libDaisy/src/util/FIFO.h ****     }
  18:../../DaisyExamples/libDaisy/src/util/FIFO.h **** 
  19:../../DaisyExamples/libDaisy/src/util/FIFO.h ****     FIFOBase(T* buffer, size_t bufferSize, std::initializer_list<T> valuesToAdd)
  20:../../DaisyExamples/libDaisy/src/util/FIFO.h ****     : buffer_(buffer), bufferSize_(bufferSize), bufferIn_(0), bufferOut_(0)
  21:../../DaisyExamples/libDaisy/src/util/FIFO.h ****     {
  22:../../DaisyExamples/libDaisy/src/util/FIFO.h ****         PushBack(valuesToAdd);
  23:../../DaisyExamples/libDaisy/src/util/FIFO.h ****     }
  24:../../DaisyExamples/libDaisy/src/util/FIFO.h **** 
  25:../../DaisyExamples/libDaisy/src/util/FIFO.h ****   public:
  26:../../DaisyExamples/libDaisy/src/util/FIFO.h ****     /** Copies all elements from another FIFO */
  27:../../DaisyExamples/libDaisy/src/util/FIFO.h ****     FIFOBase<T>& operator=(const FIFOBase<T>& other)
  28:../../DaisyExamples/libDaisy/src/util/FIFO.h ****     {
  29:../../DaisyExamples/libDaisy/src/util/FIFO.h ****         bufferIn_ = bufferOut_ = 0;
  30:../../DaisyExamples/libDaisy/src/util/FIFO.h ****         if(!other.IsEmpty())
  31:../../DaisyExamples/libDaisy/src/util/FIFO.h ****         {
  32:../../DaisyExamples/libDaisy/src/util/FIFO.h ****             int readPtr = other.bufferOut_;
ARM GAS  /var/folders/hp/45mn71hd0ps5f5pnytxy5bt00000gn/T//ccaKukFC.s 			page 7


  33:../../DaisyExamples/libDaisy/src/util/FIFO.h ****             while((readPtr != other.bufferIn_) && (bufferIn_ < bufferSize_))
  34:../../DaisyExamples/libDaisy/src/util/FIFO.h ****             {
  35:../../DaisyExamples/libDaisy/src/util/FIFO.h ****                 buffer_[bufferIn_++] = other.buffer_[readPtr++];
  36:../../DaisyExamples/libDaisy/src/util/FIFO.h ****                 if(readPtr >= other.bufferSize_)
  37:../../DaisyExamples/libDaisy/src/util/FIFO.h ****                     readPtr -= other.bufferSize_;
  38:../../DaisyExamples/libDaisy/src/util/FIFO.h ****             }
  39:../../DaisyExamples/libDaisy/src/util/FIFO.h ****         }
  40:../../DaisyExamples/libDaisy/src/util/FIFO.h ****         return *this;
  41:../../DaisyExamples/libDaisy/src/util/FIFO.h ****     }
  42:../../DaisyExamples/libDaisy/src/util/FIFO.h ****     ~FIFOBase() {}
  43:../../DaisyExamples/libDaisy/src/util/FIFO.h **** 
  44:../../DaisyExamples/libDaisy/src/util/FIFO.h ****     /** Removes all elements from the FIFO */
  45:../../DaisyExamples/libDaisy/src/util/FIFO.h ****     void Clear() { bufferIn_ = bufferOut_ = 0; }
  46:../../DaisyExamples/libDaisy/src/util/FIFO.h **** 
  47:../../DaisyExamples/libDaisy/src/util/FIFO.h ****     /** Adds an element to the back of the buffer, returning true on
  48:../../DaisyExamples/libDaisy/src/util/FIFO.h ****         success */
  49:../../DaisyExamples/libDaisy/src/util/FIFO.h ****     bool PushBack(const T& elementToAdd)
  50:../../DaisyExamples/libDaisy/src/util/FIFO.h ****     {
  51:../../DaisyExamples/libDaisy/src/util/FIFO.h ****         if(!IsFull())
  52:../../DaisyExamples/libDaisy/src/util/FIFO.h ****         {
  53:../../DaisyExamples/libDaisy/src/util/FIFO.h ****             buffer_[bufferIn_++] = elementToAdd;
  54:../../DaisyExamples/libDaisy/src/util/FIFO.h ****             if(bufferIn_ >= bufferSize_)
  55:../../DaisyExamples/libDaisy/src/util/FIFO.h ****                 bufferIn_ -= bufferSize_;
  56:../../DaisyExamples/libDaisy/src/util/FIFO.h ****             return true;
  57:../../DaisyExamples/libDaisy/src/util/FIFO.h ****         }
  58:../../DaisyExamples/libDaisy/src/util/FIFO.h ****         return false;
  59:../../DaisyExamples/libDaisy/src/util/FIFO.h ****     }
  60:../../DaisyExamples/libDaisy/src/util/FIFO.h **** 
  61:../../DaisyExamples/libDaisy/src/util/FIFO.h ****     /** Adds multiple elements and returns the number of elements that were added */
  62:../../DaisyExamples/libDaisy/src/util/FIFO.h ****     int PushBack(std::initializer_list<T> valuesToAdd)
  63:../../DaisyExamples/libDaisy/src/util/FIFO.h ****     {
  64:../../DaisyExamples/libDaisy/src/util/FIFO.h ****         int numAdded = 0;
  65:../../DaisyExamples/libDaisy/src/util/FIFO.h ****         for(const auto& v : valuesToAdd)
  66:../../DaisyExamples/libDaisy/src/util/FIFO.h ****         {
  67:../../DaisyExamples/libDaisy/src/util/FIFO.h ****             if(IsFull())
  68:../../DaisyExamples/libDaisy/src/util/FIFO.h ****                 return numAdded;
  69:../../DaisyExamples/libDaisy/src/util/FIFO.h **** 
  70:../../DaisyExamples/libDaisy/src/util/FIFO.h ****             PushBack(v);
  71:../../DaisyExamples/libDaisy/src/util/FIFO.h ****             numAdded++;
  72:../../DaisyExamples/libDaisy/src/util/FIFO.h ****         }
  73:../../DaisyExamples/libDaisy/src/util/FIFO.h ****         return numAdded;
  74:../../DaisyExamples/libDaisy/src/util/FIFO.h ****     }
  75:../../DaisyExamples/libDaisy/src/util/FIFO.h **** 
  76:../../DaisyExamples/libDaisy/src/util/FIFO.h ****     /** returns a reference to the last element */
  77:../../DaisyExamples/libDaisy/src/util/FIFO.h ****     T& Back()
  78:../../DaisyExamples/libDaisy/src/util/FIFO.h ****     {
  79:../../DaisyExamples/libDaisy/src/util/FIFO.h ****         if(IsEmpty())
  80:../../DaisyExamples/libDaisy/src/util/FIFO.h ****             // invalid, but better not pass a temporary T() object as a reference...
  81:../../DaisyExamples/libDaisy/src/util/FIFO.h ****             return buffer_[0];
  82:../../DaisyExamples/libDaisy/src/util/FIFO.h ****         int idx = bufferIn_ - 1;
  83:../../DaisyExamples/libDaisy/src/util/FIFO.h ****         if(idx < 0)
  84:../../DaisyExamples/libDaisy/src/util/FIFO.h ****             idx += bufferSize_;
  85:../../DaisyExamples/libDaisy/src/util/FIFO.h ****         return buffer_[idx];
  86:../../DaisyExamples/libDaisy/src/util/FIFO.h ****     }
  87:../../DaisyExamples/libDaisy/src/util/FIFO.h **** 
  88:../../DaisyExamples/libDaisy/src/util/FIFO.h ****     /** returns a reference to the last element */
  89:../../DaisyExamples/libDaisy/src/util/FIFO.h ****     const T& Back() const
ARM GAS  /var/folders/hp/45mn71hd0ps5f5pnytxy5bt00000gn/T//ccaKukFC.s 			page 8


  90:../../DaisyExamples/libDaisy/src/util/FIFO.h ****     {
  91:../../DaisyExamples/libDaisy/src/util/FIFO.h ****         if(IsEmpty())
  92:../../DaisyExamples/libDaisy/src/util/FIFO.h ****             // invalid, but better not pass a temporary T() object as a reference...
  93:../../DaisyExamples/libDaisy/src/util/FIFO.h ****             return buffer_[0];
  94:../../DaisyExamples/libDaisy/src/util/FIFO.h ****         int idx = bufferIn_ - 1;
  95:../../DaisyExamples/libDaisy/src/util/FIFO.h ****         if(idx < 0)
  96:../../DaisyExamples/libDaisy/src/util/FIFO.h ****             idx += bufferSize_;
  97:../../DaisyExamples/libDaisy/src/util/FIFO.h ****         return buffer_[idx];
  98:../../DaisyExamples/libDaisy/src/util/FIFO.h ****     }
  99:../../DaisyExamples/libDaisy/src/util/FIFO.h **** 
 100:../../DaisyExamples/libDaisy/src/util/FIFO.h ****     /** removes and returns an element from the front of the buffer */
 101:../../DaisyExamples/libDaisy/src/util/FIFO.h ****     T PopFront()
 102:../../DaisyExamples/libDaisy/src/util/FIFO.h ****     {
 103:../../DaisyExamples/libDaisy/src/util/FIFO.h ****         if(IsEmpty())
 104:../../DaisyExamples/libDaisy/src/util/FIFO.h ****             return T();
 105:../../DaisyExamples/libDaisy/src/util/FIFO.h ****         else
 106:../../DaisyExamples/libDaisy/src/util/FIFO.h ****         {
 107:../../DaisyExamples/libDaisy/src/util/FIFO.h ****             const auto result = buffer_[bufferOut_];
 108:../../DaisyExamples/libDaisy/src/util/FIFO.h ****             bufferOut_++;
 109:../../DaisyExamples/libDaisy/src/util/FIFO.h ****             if(bufferOut_ >= bufferSize_)
 110:../../DaisyExamples/libDaisy/src/util/FIFO.h ****                 bufferOut_ -= bufferSize_;
 111:../../DaisyExamples/libDaisy/src/util/FIFO.h ****             return result;
 112:../../DaisyExamples/libDaisy/src/util/FIFO.h ****         }
 113:../../DaisyExamples/libDaisy/src/util/FIFO.h ****     }
 114:../../DaisyExamples/libDaisy/src/util/FIFO.h **** 
 115:../../DaisyExamples/libDaisy/src/util/FIFO.h ****     /** returns a copy of the first element */
 116:../../DaisyExamples/libDaisy/src/util/FIFO.h ****     T& Front()
 117:../../DaisyExamples/libDaisy/src/util/FIFO.h ****     {
 118:../../DaisyExamples/libDaisy/src/util/FIFO.h ****         if(IsEmpty())
 119:../../DaisyExamples/libDaisy/src/util/FIFO.h ****             // invalid, but better not pass a temporary T() object as a reference...
 120:../../DaisyExamples/libDaisy/src/util/FIFO.h ****             return buffer_[0];
 121:../../DaisyExamples/libDaisy/src/util/FIFO.h ****         return buffer_[bufferOut_];
 122:../../DaisyExamples/libDaisy/src/util/FIFO.h ****     }
 123:../../DaisyExamples/libDaisy/src/util/FIFO.h **** 
 124:../../DaisyExamples/libDaisy/src/util/FIFO.h ****     /** returns a reference to the first element */
 125:../../DaisyExamples/libDaisy/src/util/FIFO.h ****     const T& Front() const
 126:../../DaisyExamples/libDaisy/src/util/FIFO.h ****     {
 127:../../DaisyExamples/libDaisy/src/util/FIFO.h ****         if(IsEmpty())
 128:../../DaisyExamples/libDaisy/src/util/FIFO.h ****             // invalid, but better not pass a temporary T() object as a reference...
 129:../../DaisyExamples/libDaisy/src/util/FIFO.h ****             return buffer_[0];
 130:../../DaisyExamples/libDaisy/src/util/FIFO.h ****         return buffer_[bufferOut_];
 131:../../DaisyExamples/libDaisy/src/util/FIFO.h ****     }
 132:../../DaisyExamples/libDaisy/src/util/FIFO.h **** 
 133:../../DaisyExamples/libDaisy/src/util/FIFO.h ****     /** Returns true if the buffer contains an element equal to the provided value */
 134:../../DaisyExamples/libDaisy/src/util/FIFO.h ****     bool Contains(const T& element)
 135:../../DaisyExamples/libDaisy/src/util/FIFO.h ****     {
 136:../../DaisyExamples/libDaisy/src/util/FIFO.h ****         auto idx = bufferOut_;
 137:../../DaisyExamples/libDaisy/src/util/FIFO.h ****         while(idx != bufferIn_)
 138:../../DaisyExamples/libDaisy/src/util/FIFO.h ****         {
 139:../../DaisyExamples/libDaisy/src/util/FIFO.h ****             if(buffer_[idx] == element)
 140:../../DaisyExamples/libDaisy/src/util/FIFO.h ****                 return true;
 141:../../DaisyExamples/libDaisy/src/util/FIFO.h ****             idx++;
 142:../../DaisyExamples/libDaisy/src/util/FIFO.h ****             if(idx >= bufferSize_)
 143:../../DaisyExamples/libDaisy/src/util/FIFO.h ****                 idx -= bufferSize_;
 144:../../DaisyExamples/libDaisy/src/util/FIFO.h ****         }
 145:../../DaisyExamples/libDaisy/src/util/FIFO.h ****         return false;
 146:../../DaisyExamples/libDaisy/src/util/FIFO.h ****     }
ARM GAS  /var/folders/hp/45mn71hd0ps5f5pnytxy5bt00000gn/T//ccaKukFC.s 			page 9


 147:../../DaisyExamples/libDaisy/src/util/FIFO.h **** 
 148:../../DaisyExamples/libDaisy/src/util/FIFO.h ****     /** Returns the number of elements in the buffer that are equal to the provided value */
 149:../../DaisyExamples/libDaisy/src/util/FIFO.h ****     size_t CountEqualTo(const T& element)
 150:../../DaisyExamples/libDaisy/src/util/FIFO.h ****     {
 151:../../DaisyExamples/libDaisy/src/util/FIFO.h ****         size_t result = 0;
 152:../../DaisyExamples/libDaisy/src/util/FIFO.h ****         size_t idx    = bufferOut_;
 153:../../DaisyExamples/libDaisy/src/util/FIFO.h ****         while(idx != bufferIn_)
 154:../../DaisyExamples/libDaisy/src/util/FIFO.h ****         {
 155:../../DaisyExamples/libDaisy/src/util/FIFO.h ****             if(buffer_[idx] == element)
 156:../../DaisyExamples/libDaisy/src/util/FIFO.h ****                 result++;
 157:../../DaisyExamples/libDaisy/src/util/FIFO.h ****             idx++;
 158:../../DaisyExamples/libDaisy/src/util/FIFO.h ****             if(idx >= bufferSize_)
 159:../../DaisyExamples/libDaisy/src/util/FIFO.h ****                 idx -= bufferSize_;
 160:../../DaisyExamples/libDaisy/src/util/FIFO.h ****         }
 161:../../DaisyExamples/libDaisy/src/util/FIFO.h ****         return result;
 162:../../DaisyExamples/libDaisy/src/util/FIFO.h ****     }
 163:../../DaisyExamples/libDaisy/src/util/FIFO.h **** 
 164:../../DaisyExamples/libDaisy/src/util/FIFO.h ****     /** returns true, if the buffer is empty */
 165:../../DaisyExamples/libDaisy/src/util/FIFO.h ****     bool IsEmpty() const { return bufferIn_ == bufferOut_; }
 166:../../DaisyExamples/libDaisy/src/util/FIFO.h **** 
 167:../../DaisyExamples/libDaisy/src/util/FIFO.h ****     /** returns true, if the buffer is Full */
 168:../../DaisyExamples/libDaisy/src/util/FIFO.h ****     bool IsFull() const { return GetNumElements() == bufferSize_ - 1; }
 169:../../DaisyExamples/libDaisy/src/util/FIFO.h **** 
 170:../../DaisyExamples/libDaisy/src/util/FIFO.h ****     /** returns the number of elements in the buffer */
 171:../../DaisyExamples/libDaisy/src/util/FIFO.h ****     size_t GetNumElements() const
 172:../../DaisyExamples/libDaisy/src/util/FIFO.h ****     {
 173:../../DaisyExamples/libDaisy/src/util/FIFO.h ****         int32_t numElements = bufferIn_ - bufferOut_;
 174:../../DaisyExamples/libDaisy/src/util/FIFO.h ****         if(numElements < 0)
 175:../../DaisyExamples/libDaisy/src/util/FIFO.h ****             numElements += bufferSize_;
 176:../../DaisyExamples/libDaisy/src/util/FIFO.h ****         return size_t(numElements);
 177:../../DaisyExamples/libDaisy/src/util/FIFO.h ****     }
 178:../../DaisyExamples/libDaisy/src/util/FIFO.h **** 
 179:../../DaisyExamples/libDaisy/src/util/FIFO.h ****     /** inserts an element "idx" positions behind the first element and returns true if successful 
 180:../../DaisyExamples/libDaisy/src/util/FIFO.h ****     bool Insert(size_t idx, const T& element)
 181:../../DaisyExamples/libDaisy/src/util/FIFO.h ****     {
 182:../../DaisyExamples/libDaisy/src/util/FIFO.h ****         if(idx > GetNumElements())
 183:../../DaisyExamples/libDaisy/src/util/FIFO.h ****             return false;
 184:../../DaisyExamples/libDaisy/src/util/FIFO.h ****         if(IsFull())
 185:../../DaisyExamples/libDaisy/src/util/FIFO.h ****             return false;
 186:../../DaisyExamples/libDaisy/src/util/FIFO.h ****         if(idx == GetNumElements())
 187:../../DaisyExamples/libDaisy/src/util/FIFO.h ****         {
 188:../../DaisyExamples/libDaisy/src/util/FIFO.h ****             PushBack(element);
 189:../../DaisyExamples/libDaisy/src/util/FIFO.h ****             return true;
 190:../../DaisyExamples/libDaisy/src/util/FIFO.h ****         }
 191:../../DaisyExamples/libDaisy/src/util/FIFO.h ****         // copy last element
 192:../../DaisyExamples/libDaisy/src/util/FIFO.h ****         PushBack(Back());
 193:../../DaisyExamples/libDaisy/src/util/FIFO.h ****         // move remaining elements: n => n+1
 194:../../DaisyExamples/libDaisy/src/util/FIFO.h ****         for(int i = GetNumElements() - 2; i > int(idx); i--)
 195:../../DaisyExamples/libDaisy/src/util/FIFO.h ****             (*this)[i] = (*this)[i - 1];
 196:../../DaisyExamples/libDaisy/src/util/FIFO.h ****         // insert element
 197:../../DaisyExamples/libDaisy/src/util/FIFO.h ****         (*this)[idx] = element;
 198:../../DaisyExamples/libDaisy/src/util/FIFO.h ****         return true;
 199:../../DaisyExamples/libDaisy/src/util/FIFO.h ****     }
 200:../../DaisyExamples/libDaisy/src/util/FIFO.h **** 
 201:../../DaisyExamples/libDaisy/src/util/FIFO.h ****     /** removes the element "idx" positions behind the first element 
 202:../../DaisyExamples/libDaisy/src/util/FIFO.h ****      *  and returns true if successful */
 203:../../DaisyExamples/libDaisy/src/util/FIFO.h ****     bool Remove(size_t idx)
ARM GAS  /var/folders/hp/45mn71hd0ps5f5pnytxy5bt00000gn/T//ccaKukFC.s 			page 10


 204:../../DaisyExamples/libDaisy/src/util/FIFO.h ****     {
 205:../../DaisyExamples/libDaisy/src/util/FIFO.h ****         if(idx >= GetNumElements())
 206:../../DaisyExamples/libDaisy/src/util/FIFO.h ****             return false;
 207:../../DaisyExamples/libDaisy/src/util/FIFO.h **** 
 208:../../DaisyExamples/libDaisy/src/util/FIFO.h ****         size_t index = bufferOut_ + idx;
 209:../../DaisyExamples/libDaisy/src/util/FIFO.h ****         if(index >= bufferSize_)
 210:../../DaisyExamples/libDaisy/src/util/FIFO.h ****             index -= bufferSize_;
 211:../../DaisyExamples/libDaisy/src/util/FIFO.h ****         size_t nextIndex = index + 1;
 212:../../DaisyExamples/libDaisy/src/util/FIFO.h ****         if(nextIndex >= bufferSize_)
 213:../../DaisyExamples/libDaisy/src/util/FIFO.h ****             nextIndex -= bufferSize_;
 214:../../DaisyExamples/libDaisy/src/util/FIFO.h **** 
 215:../../DaisyExamples/libDaisy/src/util/FIFO.h ****         while(nextIndex != bufferIn_)
 216:../../DaisyExamples/libDaisy/src/util/FIFO.h ****         {
 217:../../DaisyExamples/libDaisy/src/util/FIFO.h ****             buffer_[index] = buffer_[nextIndex];
 218:../../DaisyExamples/libDaisy/src/util/FIFO.h ****             index++;
 219:../../DaisyExamples/libDaisy/src/util/FIFO.h ****             nextIndex++;
 220:../../DaisyExamples/libDaisy/src/util/FIFO.h ****             if(index >= bufferSize_)
 221:../../DaisyExamples/libDaisy/src/util/FIFO.h ****                 index -= bufferSize_;
 222:../../DaisyExamples/libDaisy/src/util/FIFO.h ****             if(nextIndex >= bufferSize_)
 223:../../DaisyExamples/libDaisy/src/util/FIFO.h ****                 nextIndex -= bufferSize_;
 224:../../DaisyExamples/libDaisy/src/util/FIFO.h ****         }
 225:../../DaisyExamples/libDaisy/src/util/FIFO.h **** 
 226:../../DaisyExamples/libDaisy/src/util/FIFO.h ****         int32_t nextBufferIn = int32_t(bufferIn_) - 1;
 227:../../DaisyExamples/libDaisy/src/util/FIFO.h ****         if(nextBufferIn < 0)
 228:../../DaisyExamples/libDaisy/src/util/FIFO.h ****             nextBufferIn += bufferSize_;
 229:../../DaisyExamples/libDaisy/src/util/FIFO.h ****         bufferIn_ = size_t(nextBufferIn);
 230:../../DaisyExamples/libDaisy/src/util/FIFO.h **** 
 231:../../DaisyExamples/libDaisy/src/util/FIFO.h ****         return true;
 232:../../DaisyExamples/libDaisy/src/util/FIFO.h ****     }
 233:../../DaisyExamples/libDaisy/src/util/FIFO.h **** 
 234:../../DaisyExamples/libDaisy/src/util/FIFO.h ****     /** removes all elements from the buffer for which
 235:../../DaisyExamples/libDaisy/src/util/FIFO.h ****         (buffer(index) == element) returns true and returns the number of
 236:../../DaisyExamples/libDaisy/src/util/FIFO.h ****         elements that were removed. */
 237:../../DaisyExamples/libDaisy/src/util/FIFO.h ****     size_t RemoveAllEqualTo(const T& element)
 238:../../DaisyExamples/libDaisy/src/util/FIFO.h ****     {
 239:../../DaisyExamples/libDaisy/src/util/FIFO.h ****         size_t numRemoved = 0;
 240:../../DaisyExamples/libDaisy/src/util/FIFO.h ****         int    idx        = GetNumElements() - 1;
 241:../../DaisyExamples/libDaisy/src/util/FIFO.h ****         while(idx >= 0)
 242:../../DaisyExamples/libDaisy/src/util/FIFO.h ****         {
 243:../../DaisyExamples/libDaisy/src/util/FIFO.h ****             if((*this)[idx] == element)
 244:../../DaisyExamples/libDaisy/src/util/FIFO.h ****             {
 245:../../DaisyExamples/libDaisy/src/util/FIFO.h ****                 numRemoved++;
 246:../../DaisyExamples/libDaisy/src/util/FIFO.h ****                 Remove(idx);
 247:../../DaisyExamples/libDaisy/src/util/FIFO.h ****                 // was that the last element?
 248:../../DaisyExamples/libDaisy/src/util/FIFO.h ****                 if(idx == int(GetNumElements()) - 1)
 249:../../DaisyExamples/libDaisy/src/util/FIFO.h ****                     idx--;
 250:../../DaisyExamples/libDaisy/src/util/FIFO.h ****             }
 251:../../DaisyExamples/libDaisy/src/util/FIFO.h ****             else
 252:../../DaisyExamples/libDaisy/src/util/FIFO.h ****                 idx--;
 253:../../DaisyExamples/libDaisy/src/util/FIFO.h ****         }
 254:../../DaisyExamples/libDaisy/src/util/FIFO.h ****         return numRemoved;
 255:../../DaisyExamples/libDaisy/src/util/FIFO.h ****     }
 256:../../DaisyExamples/libDaisy/src/util/FIFO.h **** 
 257:../../DaisyExamples/libDaisy/src/util/FIFO.h ****     /** returns the element "idx" positions behind the first element */
 258:../../DaisyExamples/libDaisy/src/util/FIFO.h ****     T& operator[](size_t idx)
 259:../../DaisyExamples/libDaisy/src/util/FIFO.h ****     {
 260:../../DaisyExamples/libDaisy/src/util/FIFO.h ****         if(idx >= GetNumElements())
ARM GAS  /var/folders/hp/45mn71hd0ps5f5pnytxy5bt00000gn/T//ccaKukFC.s 			page 11


 261:../../DaisyExamples/libDaisy/src/util/FIFO.h ****             // invalid, but better not pass a temporary T() object as a reference...
 262:../../DaisyExamples/libDaisy/src/util/FIFO.h ****             return buffer_[0];
 263:../../DaisyExamples/libDaisy/src/util/FIFO.h **** 
 264:../../DaisyExamples/libDaisy/src/util/FIFO.h ****         size_t index = bufferOut_ + idx;
 265:../../DaisyExamples/libDaisy/src/util/FIFO.h ****         if(index >= bufferSize_)
 266:../../DaisyExamples/libDaisy/src/util/FIFO.h ****             index -= bufferSize_;
 267:../../DaisyExamples/libDaisy/src/util/FIFO.h ****         return buffer_[index];
 268:../../DaisyExamples/libDaisy/src/util/FIFO.h ****     }
 269:../../DaisyExamples/libDaisy/src/util/FIFO.h **** 
 270:../../DaisyExamples/libDaisy/src/util/FIFO.h ****     /** returns the element "idx" positions behind the first element */
 271:../../DaisyExamples/libDaisy/src/util/FIFO.h ****     const T& operator[](size_t idx) const
 272:../../DaisyExamples/libDaisy/src/util/FIFO.h ****     {
 273:../../DaisyExamples/libDaisy/src/util/FIFO.h ****         if(idx >= GetNumElements())
 274:../../DaisyExamples/libDaisy/src/util/FIFO.h ****             // invalid, but better not pass a temporary T() object as a reference...
 275:../../DaisyExamples/libDaisy/src/util/FIFO.h ****             return buffer_[0];
 276:../../DaisyExamples/libDaisy/src/util/FIFO.h **** 
 277:../../DaisyExamples/libDaisy/src/util/FIFO.h ****         size_t index = bufferOut_ + idx;
 278:../../DaisyExamples/libDaisy/src/util/FIFO.h ****         if(index >= bufferSize_)
 279:../../DaisyExamples/libDaisy/src/util/FIFO.h ****             index -= bufferSize_;
 280:../../DaisyExamples/libDaisy/src/util/FIFO.h ****         return buffer_[index];
 281:../../DaisyExamples/libDaisy/src/util/FIFO.h ****     }
 282:../../DaisyExamples/libDaisy/src/util/FIFO.h **** 
 283:../../DaisyExamples/libDaisy/src/util/FIFO.h ****     /** returns the total capacity */
 284:../../DaisyExamples/libDaisy/src/util/FIFO.h ****     size_t GetCapacity() const { return bufferSize_ - 1; }
 285:../../DaisyExamples/libDaisy/src/util/FIFO.h **** 
 286:../../DaisyExamples/libDaisy/src/util/FIFO.h ****   private:
 287:../../DaisyExamples/libDaisy/src/util/FIFO.h ****     FIFOBase(const FIFOBase<T>&) {} // non copyable
 288:../../DaisyExamples/libDaisy/src/util/FIFO.h **** 
 289:../../DaisyExamples/libDaisy/src/util/FIFO.h ****   private:
 290:../../DaisyExamples/libDaisy/src/util/FIFO.h ****     T*           buffer_;
 291:../../DaisyExamples/libDaisy/src/util/FIFO.h ****     const size_t bufferSize_;
 292:../../DaisyExamples/libDaisy/src/util/FIFO.h ****     size_t       bufferIn_;
 293:../../DaisyExamples/libDaisy/src/util/FIFO.h ****     size_t       bufferOut_;
 294:../../DaisyExamples/libDaisy/src/util/FIFO.h **** };
 295:../../DaisyExamples/libDaisy/src/util/FIFO.h **** 
 296:../../DaisyExamples/libDaisy/src/util/FIFO.h **** /** A simple FIFO ring buffer with a fixed size. */
 297:../../DaisyExamples/libDaisy/src/util/FIFO.h **** template <typename T, size_t capacity>
 298:../../DaisyExamples/libDaisy/src/util/FIFO.h **** class FIFO : public FIFOBase<T>
  72              		.loc 5 298 7 view .LVU6
  73              	.LBB479:
  74              	.LBI479:
  42:../../DaisyExamples/libDaisy/src/util/FIFO.h **** 
  75              		.loc 5 42 5 view .LVU7
  42:../../DaisyExamples/libDaisy/src/util/FIFO.h **** 
  76              		.loc 5 42 5 is_stmt 0 view .LVU8
  77              	.LBE479:
  78              	.LBE478:
  79              	.LBB480:
  80              	.LBI480:
  81              		.file 6 "../../DaisyExamples/libDaisy/src/hid/midi_parser.h"
   1:../../DaisyExamples/libDaisy/src/hid/midi_parser.h **** #pragma once
   2:../../DaisyExamples/libDaisy/src/hid/midi_parser.h **** #ifndef DSY_MIDI_PARSER_H
   3:../../DaisyExamples/libDaisy/src/hid/midi_parser.h **** #define DSY_MIDI_PARSER_H
   4:../../DaisyExamples/libDaisy/src/hid/midi_parser.h **** 
   5:../../DaisyExamples/libDaisy/src/hid/midi_parser.h **** #include <stdint.h>
   6:../../DaisyExamples/libDaisy/src/hid/midi_parser.h **** #include <stdlib.h>
   7:../../DaisyExamples/libDaisy/src/hid/midi_parser.h **** #include "hid/MidiEvent.h"
ARM GAS  /var/folders/hp/45mn71hd0ps5f5pnytxy5bt00000gn/T//ccaKukFC.s 			page 12


   8:../../DaisyExamples/libDaisy/src/hid/midi_parser.h **** 
   9:../../DaisyExamples/libDaisy/src/hid/midi_parser.h **** namespace daisy
  10:../../DaisyExamples/libDaisy/src/hid/midi_parser.h **** {
  11:../../DaisyExamples/libDaisy/src/hid/midi_parser.h **** /** @brief   Utility class for parsing raw byte streams into MIDI messages
  12:../../DaisyExamples/libDaisy/src/hid/midi_parser.h ****  *  @details Implemented as a state machine designed to parse one byte at a time
  13:../../DaisyExamples/libDaisy/src/hid/midi_parser.h ****  *  @ingroup midi
  14:../../DaisyExamples/libDaisy/src/hid/midi_parser.h ****  */
  15:../../DaisyExamples/libDaisy/src/hid/midi_parser.h **** class MidiParser
  16:../../DaisyExamples/libDaisy/src/hid/midi_parser.h **** {
  17:../../DaisyExamples/libDaisy/src/hid/midi_parser.h ****   public:
  18:../../DaisyExamples/libDaisy/src/hid/midi_parser.h ****     MidiParser(){};
  19:../../DaisyExamples/libDaisy/src/hid/midi_parser.h ****     ~MidiParser() {}
  82              		.loc 6 19 5 is_stmt 1 view .LVU9
  83              		.loc 6 19 5 is_stmt 0 view .LVU10
  84              	.LBE480:
  85              	.LBB481:
  86              	.LBI481:
  32:../../DaisyExamples/libDaisy/src/hid/midi.h **** 
  87              		.loc 4 32 5 is_stmt 1 view .LVU11
  32:../../DaisyExamples/libDaisy/src/hid/midi.h **** 
  88              		.loc 4 32 5 is_stmt 0 view .LVU12
  89              	.LBE481:
  90              	.LBE477:
  91              	.LBB482:
  92              	.LBI482:
  93              		.file 7 "../../DaisyExamples/libDaisy/src/hid/rgb_led.h"
   1:../../DaisyExamples/libDaisy/src/hid/rgb_led.h **** #pragma once
   2:../../DaisyExamples/libDaisy/src/hid/rgb_led.h **** #ifndef DSY_RGB_LED_H
   3:../../DaisyExamples/libDaisy/src/hid/rgb_led.h **** #define DSY_RGB_LED_H
   4:../../DaisyExamples/libDaisy/src/hid/rgb_led.h **** #include "hid/led.h"
   5:../../DaisyExamples/libDaisy/src/hid/rgb_led.h **** #include "util/color.h"
   6:../../DaisyExamples/libDaisy/src/hid/rgb_led.h **** 
   7:../../DaisyExamples/libDaisy/src/hid/rgb_led.h **** namespace daisy
   8:../../DaisyExamples/libDaisy/src/hid/rgb_led.h **** {
   9:../../DaisyExamples/libDaisy/src/hid/rgb_led.h **** /** @addtogroup feedback
  10:../../DaisyExamples/libDaisy/src/hid/rgb_led.h ****     @{
  11:../../DaisyExamples/libDaisy/src/hid/rgb_led.h **** */
  12:../../DaisyExamples/libDaisy/src/hid/rgb_led.h **** 
  13:../../DaisyExamples/libDaisy/src/hid/rgb_led.h **** /** 3x LEDs configured as an RGB for ease of use. */
  14:../../DaisyExamples/libDaisy/src/hid/rgb_led.h **** class RgbLed
  15:../../DaisyExamples/libDaisy/src/hid/rgb_led.h **** {
  16:../../DaisyExamples/libDaisy/src/hid/rgb_led.h ****   public:
  17:../../DaisyExamples/libDaisy/src/hid/rgb_led.h ****     RgbLed() {}
  18:../../DaisyExamples/libDaisy/src/hid/rgb_led.h ****     ~RgbLed() {}
  94              		.loc 7 18 5 is_stmt 1 view .LVU13
  95              	.LBB483:
  96              	.LBI483:
  97              		.file 8 "../../DaisyExamples/libDaisy/src/hid/led.h"
   1:../../DaisyExamples/libDaisy/src/hid/led.h **** 
   2:../../DaisyExamples/libDaisy/src/hid/led.h **** #pragma once
   3:../../DaisyExamples/libDaisy/src/hid/led.h **** #ifndef DSY_LED_H
   4:../../DaisyExamples/libDaisy/src/hid/led.h **** #define DSY_LED_H
   5:../../DaisyExamples/libDaisy/src/hid/led.h **** #include "daisy_core.h"
   6:../../DaisyExamples/libDaisy/src/hid/led.h **** #include "per/gpio.h"
   7:../../DaisyExamples/libDaisy/src/hid/led.h **** 
   8:../../DaisyExamples/libDaisy/src/hid/led.h **** /* TODO - Get this set up to work with the dev_leddriver stuff as well
   9:../../DaisyExamples/libDaisy/src/hid/led.h **** - Setup Hardware PWM for pins that have it
ARM GAS  /var/folders/hp/45mn71hd0ps5f5pnytxy5bt00000gn/T//ccaKukFC.s 			page 13


  10:../../DaisyExamples/libDaisy/src/hid/led.h **** */
  11:../../DaisyExamples/libDaisy/src/hid/led.h **** 
  12:../../DaisyExamples/libDaisy/src/hid/led.h **** namespace daisy
  13:../../DaisyExamples/libDaisy/src/hid/led.h **** {
  14:../../DaisyExamples/libDaisy/src/hid/led.h **** /**
  15:../../DaisyExamples/libDaisy/src/hid/led.h ****     @brief LED Class providing simple Software PWM ability, etc \n 
  16:../../DaisyExamples/libDaisy/src/hid/led.h ****     Eventually this will work with hardware PWM, and external LED Driver devices as well.
  17:../../DaisyExamples/libDaisy/src/hid/led.h ****     @author shensley
  18:../../DaisyExamples/libDaisy/src/hid/led.h ****     @date March 2020
  19:../../DaisyExamples/libDaisy/src/hid/led.h ****     @ingroup feedback
  20:../../DaisyExamples/libDaisy/src/hid/led.h **** */
  21:../../DaisyExamples/libDaisy/src/hid/led.h **** class Led
  22:../../DaisyExamples/libDaisy/src/hid/led.h **** {
  23:../../DaisyExamples/libDaisy/src/hid/led.h ****   public:
  24:../../DaisyExamples/libDaisy/src/hid/led.h ****     Led() {}
  25:../../DaisyExamples/libDaisy/src/hid/led.h ****     ~Led() {}
  98              		.loc 8 25 5 view .LVU14
  99              		.loc 8 25 5 is_stmt 0 view .LVU15
 100              	.LBE483:
 101              	.LBB484:
 102              	.LBI484:
 103              		.loc 8 25 5 is_stmt 1 view .LVU16
 104              		.loc 8 25 5 is_stmt 0 view .LVU17
 105              	.LBE484:
 106              	.LBB485:
 107              	.LBI485:
 108              		.loc 8 25 5 is_stmt 1 view .LVU18
 109              		.loc 8 25 5 is_stmt 0 view .LVU19
 110              	.LBE485:
 111              	.LBE482:
 112              	.LBB486:
 113              	.LBI486:
 114              		.loc 7 18 5 is_stmt 1 view .LVU20
 115              	.LBB487:
 116              	.LBI487:
 117              		.loc 8 25 5 view .LVU21
 118              		.loc 8 25 5 is_stmt 0 view .LVU22
 119              	.LBE487:
 120              	.LBB488:
 121              	.LBI488:
 122              		.loc 8 25 5 is_stmt 1 view .LVU23
 123              		.loc 8 25 5 is_stmt 0 view .LVU24
 124              	.LBE488:
 125              	.LBB489:
 126              	.LBI489:
 127              		.loc 8 25 5 is_stmt 1 view .LVU25
 128              		.loc 8 25 5 is_stmt 0 view .LVU26
 129              	.LBE489:
 130              	.LBE486:
 131              	.LBB490:
 132              	.LBI490:
 133              		.file 9 "../../DaisyExamples/libDaisy/src/hid/switch.h"
   1:../../DaisyExamples/libDaisy/src/hid/switch.h **** #pragma once
   2:../../DaisyExamples/libDaisy/src/hid/switch.h **** #ifndef DSY_SWITCH_H
   3:../../DaisyExamples/libDaisy/src/hid/switch.h **** #define DSY_SWITCH_H
   4:../../DaisyExamples/libDaisy/src/hid/switch.h **** #include "daisy_core.h"
   5:../../DaisyExamples/libDaisy/src/hid/switch.h **** #include "per/gpio.h"
ARM GAS  /var/folders/hp/45mn71hd0ps5f5pnytxy5bt00000gn/T//ccaKukFC.s 			page 14


   6:../../DaisyExamples/libDaisy/src/hid/switch.h **** #include "sys/system.h"
   7:../../DaisyExamples/libDaisy/src/hid/switch.h **** 
   8:../../DaisyExamples/libDaisy/src/hid/switch.h **** namespace daisy
   9:../../DaisyExamples/libDaisy/src/hid/switch.h **** {
  10:../../DaisyExamples/libDaisy/src/hid/switch.h **** /** 
  11:../../DaisyExamples/libDaisy/src/hid/switch.h ****     Generic Class for handling momentary/latching switches \n 
  12:../../DaisyExamples/libDaisy/src/hid/switch.h ****     Inspired/influenced by Mutable Instruments (pichenettes) Switch classes
  13:../../DaisyExamples/libDaisy/src/hid/switch.h ****     @author Stephen Hensley
  14:../../DaisyExamples/libDaisy/src/hid/switch.h ****     @date December 2019
  15:../../DaisyExamples/libDaisy/src/hid/switch.h ****     @ingroup controls
  16:../../DaisyExamples/libDaisy/src/hid/switch.h **** */
  17:../../DaisyExamples/libDaisy/src/hid/switch.h **** class Switch
  18:../../DaisyExamples/libDaisy/src/hid/switch.h **** {
  19:../../DaisyExamples/libDaisy/src/hid/switch.h ****   public:
  20:../../DaisyExamples/libDaisy/src/hid/switch.h ****     /** Specifies the expected behavior of the switch */
  21:../../DaisyExamples/libDaisy/src/hid/switch.h ****     enum Type
  22:../../DaisyExamples/libDaisy/src/hid/switch.h ****     {
  23:../../DaisyExamples/libDaisy/src/hid/switch.h ****         TYPE_TOGGLE,    /**< & */
  24:../../DaisyExamples/libDaisy/src/hid/switch.h ****         TYPE_MOMENTARY, /**< & */
  25:../../DaisyExamples/libDaisy/src/hid/switch.h ****     };
  26:../../DaisyExamples/libDaisy/src/hid/switch.h ****     /** Specifies whether the pressed is HIGH or LOW. */
  27:../../DaisyExamples/libDaisy/src/hid/switch.h ****     enum Polarity
  28:../../DaisyExamples/libDaisy/src/hid/switch.h ****     {
  29:../../DaisyExamples/libDaisy/src/hid/switch.h ****         POLARITY_NORMAL,   /**< & */
  30:../../DaisyExamples/libDaisy/src/hid/switch.h ****         POLARITY_INVERTED, /**< & */
  31:../../DaisyExamples/libDaisy/src/hid/switch.h ****     };
  32:../../DaisyExamples/libDaisy/src/hid/switch.h **** 
  33:../../DaisyExamples/libDaisy/src/hid/switch.h ****     /** Specifies whether to use built-in Pull Up/Down resistors to hold button at a given state wh
  34:../../DaisyExamples/libDaisy/src/hid/switch.h ****     enum Pull
  35:../../DaisyExamples/libDaisy/src/hid/switch.h ****     {
  36:../../DaisyExamples/libDaisy/src/hid/switch.h ****         PULL_UP,   /**< & */
  37:../../DaisyExamples/libDaisy/src/hid/switch.h ****         PULL_DOWN, /**< & */
  38:../../DaisyExamples/libDaisy/src/hid/switch.h ****         PULL_NONE, /**< & */
  39:../../DaisyExamples/libDaisy/src/hid/switch.h ****     };
  40:../../DaisyExamples/libDaisy/src/hid/switch.h **** 
  41:../../DaisyExamples/libDaisy/src/hid/switch.h ****     Switch() {}
  42:../../DaisyExamples/libDaisy/src/hid/switch.h ****     ~Switch() {}
 134              		.loc 9 42 5 is_stmt 1 view .LVU27
 135              		.loc 9 42 5 is_stmt 0 view .LVU28
 136              	.LBE490:
 137              	.LBB491:
 138              	.LBI491:
 139              		.loc 9 42 5 is_stmt 1 view .LVU29
 140              		.loc 9 42 5 is_stmt 0 view .LVU30
 141              	.LBE491:
 142              	.LBB492:
 143              	.LBI492:
 144              		.loc 2 23 5 is_stmt 1 view .LVU31
 145              		.loc 2 23 5 is_stmt 0 view .LVU32
 146              	.LBE492:
 147              	.LBB493:
 148              	.LBI493:
 149              		.loc 2 23 5 is_stmt 1 view .LVU33
 150              		.loc 2 23 5 is_stmt 0 view .LVU34
 151              	.LBE493:
 152              	.LBB494:
 153              	.LBI494:
ARM GAS  /var/folders/hp/45mn71hd0ps5f5pnytxy5bt00000gn/T//ccaKukFC.s 			page 15


 154              		.file 10 "../../DaisyExamples/libDaisy/src/hid/encoder.h"
   1:../../DaisyExamples/libDaisy/src/hid/encoder.h **** #pragma once
   2:../../DaisyExamples/libDaisy/src/hid/encoder.h **** #ifndef DSY_ENCODER_H
   3:../../DaisyExamples/libDaisy/src/hid/encoder.h **** #define DSY_ENCODER_H
   4:../../DaisyExamples/libDaisy/src/hid/encoder.h **** #include "daisy_core.h"
   5:../../DaisyExamples/libDaisy/src/hid/encoder.h **** #include "per/gpio.h"
   6:../../DaisyExamples/libDaisy/src/hid/encoder.h **** #include "hid/switch.h"
   7:../../DaisyExamples/libDaisy/src/hid/encoder.h **** 
   8:../../DaisyExamples/libDaisy/src/hid/encoder.h **** namespace daisy
   9:../../DaisyExamples/libDaisy/src/hid/encoder.h **** {
  10:../../DaisyExamples/libDaisy/src/hid/encoder.h **** /** 
  11:../../DaisyExamples/libDaisy/src/hid/encoder.h ****     @brief Generic Class for handling Quadrature Encoders \n 
  12:../../DaisyExamples/libDaisy/src/hid/encoder.h ****     Inspired/influenced by Mutable Instruments (pichenettes) Encoder classes
  13:../../DaisyExamples/libDaisy/src/hid/encoder.h ****     @author Stephen Hensley
  14:../../DaisyExamples/libDaisy/src/hid/encoder.h ****     @date December 2019
  15:../../DaisyExamples/libDaisy/src/hid/encoder.h ****     @ingroup controls
  16:../../DaisyExamples/libDaisy/src/hid/encoder.h **** */
  17:../../DaisyExamples/libDaisy/src/hid/encoder.h **** class Encoder
  18:../../DaisyExamples/libDaisy/src/hid/encoder.h **** {
  19:../../DaisyExamples/libDaisy/src/hid/encoder.h ****   public:
  20:../../DaisyExamples/libDaisy/src/hid/encoder.h ****     Encoder() {}
  21:../../DaisyExamples/libDaisy/src/hid/encoder.h ****     ~Encoder() {}
 155              		.loc 10 21 5 is_stmt 1 view .LVU35
 156              	.LBB495:
 157              	.LBI495:
 158              		.loc 9 42 5 view .LVU36
 159              		.loc 9 42 5 is_stmt 0 view .LVU37
 160              	.LBE495:
 161              	.LBE494:
 162              	.LBB496:
 163              	.LBI496:
 164              		.file 11 "../../DaisyExamples/libDaisy/src/daisy_seed.h"
   1:../../DaisyExamples/libDaisy/src/daisy_seed.h **** #pragma once
   2:../../DaisyExamples/libDaisy/src/daisy_seed.h **** #ifndef DSY_SEED_H
   3:../../DaisyExamples/libDaisy/src/daisy_seed.h **** #define DSY_SEED_H
   4:../../DaisyExamples/libDaisy/src/daisy_seed.h **** 
   5:../../DaisyExamples/libDaisy/src/daisy_seed.h **** #include "daisy.h"
   6:../../DaisyExamples/libDaisy/src/daisy_seed.h **** 
   7:../../DaisyExamples/libDaisy/src/daisy_seed.h **** //Uncomment this out if you're still using the rev2 hardware
   8:../../DaisyExamples/libDaisy/src/daisy_seed.h **** //#define SEED_REV2
   9:../../DaisyExamples/libDaisy/src/daisy_seed.h **** 
  10:../../DaisyExamples/libDaisy/src/daisy_seed.h **** namespace daisy
  11:../../DaisyExamples/libDaisy/src/daisy_seed.h **** {
  12:../../DaisyExamples/libDaisy/src/daisy_seed.h **** /**
  13:../../DaisyExamples/libDaisy/src/daisy_seed.h ****    @brief This is the higher-level interface for the Daisy board. \n 
  14:../../DaisyExamples/libDaisy/src/daisy_seed.h ****     All basic peripheral configuration/initialization is setup here. \n
  15:../../DaisyExamples/libDaisy/src/daisy_seed.h **** 
  16:../../DaisyExamples/libDaisy/src/daisy_seed.h ****    @ingroup boards
  17:../../DaisyExamples/libDaisy/src/daisy_seed.h **** */
  18:../../DaisyExamples/libDaisy/src/daisy_seed.h **** class DaisySeed
  19:../../DaisyExamples/libDaisy/src/daisy_seed.h **** {
  20:../../DaisyExamples/libDaisy/src/daisy_seed.h ****   public:
  21:../../DaisyExamples/libDaisy/src/daisy_seed.h ****     DaisySeed() {}
  22:../../DaisyExamples/libDaisy/src/daisy_seed.h ****     ~DaisySeed() {}
 165              		.loc 11 22 5 is_stmt 1 view .LVU38
 166              	.LBB497:
 167              	.LBI497:
ARM GAS  /var/folders/hp/45mn71hd0ps5f5pnytxy5bt00000gn/T//ccaKukFC.s 			page 16


 168              		.file 12 "../../DaisyExamples/libDaisy/src/sys/system.h"
   1:../../DaisyExamples/libDaisy/src/sys/system.h **** #ifndef DSY_SYSTEM_H
   2:../../DaisyExamples/libDaisy/src/sys/system.h **** #define DSY_SYSTEM_H
   3:../../DaisyExamples/libDaisy/src/sys/system.h **** 
   4:../../DaisyExamples/libDaisy/src/sys/system.h **** #ifndef UNIT_TEST // for unit tests, a dummy implementation is provided below
   5:../../DaisyExamples/libDaisy/src/sys/system.h **** 
   6:../../DaisyExamples/libDaisy/src/sys/system.h **** #include <cstdint>
   7:../../DaisyExamples/libDaisy/src/sys/system.h **** #include "per/tim.h"
   8:../../DaisyExamples/libDaisy/src/sys/system.h **** 
   9:../../DaisyExamples/libDaisy/src/sys/system.h **** namespace daisy
  10:../../DaisyExamples/libDaisy/src/sys/system.h **** {
  11:../../DaisyExamples/libDaisy/src/sys/system.h **** /** A handle for interacting with the Core System.
  12:../../DaisyExamples/libDaisy/src/sys/system.h ****  ** This includes the Clock tree, MPU, global DMA initialization,
  13:../../DaisyExamples/libDaisy/src/sys/system.h ****  ** cache handling, and any other necessary global initiailzation
  14:../../DaisyExamples/libDaisy/src/sys/system.h ****  **
  15:../../DaisyExamples/libDaisy/src/sys/system.h ****  ** @author shensley
  16:../../DaisyExamples/libDaisy/src/sys/system.h ****  ** @ingroup system
  17:../../DaisyExamples/libDaisy/src/sys/system.h ****  */
  18:../../DaisyExamples/libDaisy/src/sys/system.h **** class System
  19:../../DaisyExamples/libDaisy/src/sys/system.h **** {
  20:../../DaisyExamples/libDaisy/src/sys/system.h ****   public:
  21:../../DaisyExamples/libDaisy/src/sys/system.h ****     /** Contains settings for initializing the System */
  22:../../DaisyExamples/libDaisy/src/sys/system.h ****     struct Config
  23:../../DaisyExamples/libDaisy/src/sys/system.h ****     {
  24:../../DaisyExamples/libDaisy/src/sys/system.h ****         /** Specifies the system clock frequency that feeds APB/AHB clocks, etc. */
  25:../../DaisyExamples/libDaisy/src/sys/system.h ****         enum class SysClkFreq
  26:../../DaisyExamples/libDaisy/src/sys/system.h ****         {
  27:../../DaisyExamples/libDaisy/src/sys/system.h ****             FREQ_400MHZ,
  28:../../DaisyExamples/libDaisy/src/sys/system.h ****             FREQ_480MHZ,
  29:../../DaisyExamples/libDaisy/src/sys/system.h ****         };
  30:../../DaisyExamples/libDaisy/src/sys/system.h **** 
  31:../../DaisyExamples/libDaisy/src/sys/system.h ****         /** Method to call on the struct to set to defaults
  32:../../DaisyExamples/libDaisy/src/sys/system.h ****          ** CPU Freq set to 400MHz
  33:../../DaisyExamples/libDaisy/src/sys/system.h ****          ** Cache Enabled
  34:../../DaisyExamples/libDaisy/src/sys/system.h ****          ** */
  35:../../DaisyExamples/libDaisy/src/sys/system.h ****         void Defaults()
  36:../../DaisyExamples/libDaisy/src/sys/system.h ****         {
  37:../../DaisyExamples/libDaisy/src/sys/system.h ****             cpu_freq    = SysClkFreq::FREQ_400MHZ;
  38:../../DaisyExamples/libDaisy/src/sys/system.h ****             use_dcache  = true;
  39:../../DaisyExamples/libDaisy/src/sys/system.h ****             use_icache  = true;
  40:../../DaisyExamples/libDaisy/src/sys/system.h ****             skip_clocks = false;
  41:../../DaisyExamples/libDaisy/src/sys/system.h ****         }
  42:../../DaisyExamples/libDaisy/src/sys/system.h **** 
  43:../../DaisyExamples/libDaisy/src/sys/system.h ****         /** Method to call on the struct to set to boost mode:
  44:../../DaisyExamples/libDaisy/src/sys/system.h ****          ** CPU Freq set to 480MHz
  45:../../DaisyExamples/libDaisy/src/sys/system.h ****          ** Cache Enabled
  46:../../DaisyExamples/libDaisy/src/sys/system.h ****          ** */
  47:../../DaisyExamples/libDaisy/src/sys/system.h ****         void Boost()
  48:../../DaisyExamples/libDaisy/src/sys/system.h ****         {
  49:../../DaisyExamples/libDaisy/src/sys/system.h ****             cpu_freq    = SysClkFreq::FREQ_480MHZ;
  50:../../DaisyExamples/libDaisy/src/sys/system.h ****             use_dcache  = true;
  51:../../DaisyExamples/libDaisy/src/sys/system.h ****             use_icache  = true;
  52:../../DaisyExamples/libDaisy/src/sys/system.h ****             skip_clocks = false;
  53:../../DaisyExamples/libDaisy/src/sys/system.h ****         }
  54:../../DaisyExamples/libDaisy/src/sys/system.h **** 
  55:../../DaisyExamples/libDaisy/src/sys/system.h ****         SysClkFreq cpu_freq;
  56:../../DaisyExamples/libDaisy/src/sys/system.h ****         bool       use_dcache;
ARM GAS  /var/folders/hp/45mn71hd0ps5f5pnytxy5bt00000gn/T//ccaKukFC.s 			page 17


  57:../../DaisyExamples/libDaisy/src/sys/system.h ****         bool       use_icache;
  58:../../DaisyExamples/libDaisy/src/sys/system.h ****         bool       skip_clocks;
  59:../../DaisyExamples/libDaisy/src/sys/system.h ****     };
  60:../../DaisyExamples/libDaisy/src/sys/system.h **** 
  61:../../DaisyExamples/libDaisy/src/sys/system.h ****     /** Describes the different regions of memory available to the Daisy */
  62:../../DaisyExamples/libDaisy/src/sys/system.h ****     enum MemoryRegion
  63:../../DaisyExamples/libDaisy/src/sys/system.h ****     {
  64:../../DaisyExamples/libDaisy/src/sys/system.h ****         INTERNAL_FLASH = 0,
  65:../../DaisyExamples/libDaisy/src/sys/system.h ****         ITCMRAM,
  66:../../DaisyExamples/libDaisy/src/sys/system.h ****         DTCMRAM,
  67:../../DaisyExamples/libDaisy/src/sys/system.h ****         SRAM_D1,
  68:../../DaisyExamples/libDaisy/src/sys/system.h ****         SRAM_D2,
  69:../../DaisyExamples/libDaisy/src/sys/system.h ****         SRAM_D3,
  70:../../DaisyExamples/libDaisy/src/sys/system.h ****         SDRAM,
  71:../../DaisyExamples/libDaisy/src/sys/system.h ****         QSPI,
  72:../../DaisyExamples/libDaisy/src/sys/system.h ****         INVALID_ADDRESS,
  73:../../DaisyExamples/libDaisy/src/sys/system.h ****     };
  74:../../DaisyExamples/libDaisy/src/sys/system.h **** 
  75:../../DaisyExamples/libDaisy/src/sys/system.h ****     /** Bootloader struct for controlling bootloading parameters */
  76:../../DaisyExamples/libDaisy/src/sys/system.h ****     struct BootInfo
  77:../../DaisyExamples/libDaisy/src/sys/system.h ****     {
  78:../../DaisyExamples/libDaisy/src/sys/system.h ****         enum class Type : uint32_t
  79:../../DaisyExamples/libDaisy/src/sys/system.h ****         {
  80:../../DaisyExamples/libDaisy/src/sys/system.h ****             INVALID      = 0x00000000,
  81:../../DaisyExamples/libDaisy/src/sys/system.h ****             JUMP         = 0xDEADBEEF,
  82:../../DaisyExamples/libDaisy/src/sys/system.h ****             SKIP_TIMEOUT = 0x5AFEB007,
  83:../../DaisyExamples/libDaisy/src/sys/system.h ****             INF_TIMEOUT  = 0xB0074EFA,
  84:../../DaisyExamples/libDaisy/src/sys/system.h ****         } status;
  85:../../DaisyExamples/libDaisy/src/sys/system.h ****         uint32_t data;
  86:../../DaisyExamples/libDaisy/src/sys/system.h ****         enum class Version : uint32_t
  87:../../DaisyExamples/libDaisy/src/sys/system.h ****         {
  88:../../DaisyExamples/libDaisy/src/sys/system.h ****             LT_v6_0 = 0, // Less than v6.0
  89:../../DaisyExamples/libDaisy/src/sys/system.h ****             NONE,        // No bootloader present
  90:../../DaisyExamples/libDaisy/src/sys/system.h ****             v6_0,        // v6.0
  91:../../DaisyExamples/libDaisy/src/sys/system.h ****             v6_1,        // v6.1 or greater
  92:../../DaisyExamples/libDaisy/src/sys/system.h ****             LAST
  93:../../DaisyExamples/libDaisy/src/sys/system.h ****         } version;
  94:../../DaisyExamples/libDaisy/src/sys/system.h ****     };
  95:../../DaisyExamples/libDaisy/src/sys/system.h **** 
  96:../../DaisyExamples/libDaisy/src/sys/system.h ****     System() {}
  97:../../DaisyExamples/libDaisy/src/sys/system.h ****     ~System() {}
 169              		.loc 12 97 5 view .LVU39
 170              		.loc 12 97 5 is_stmt 0 view .LVU40
 171              	.LBE497:
 172              	.LBB498:
 173              	.LBI498:
 174              		.file 13 "../../DaisyExamples/libDaisy/src/hid/usb.h"
   1:../../DaisyExamples/libDaisy/src/hid/usb.h **** #pragma once
   2:../../DaisyExamples/libDaisy/src/hid/usb.h **** #ifndef DSY_HID_USB_H
   3:../../DaisyExamples/libDaisy/src/hid/usb.h **** #define DSY_HID_USB_H
   4:../../DaisyExamples/libDaisy/src/hid/usb.h **** #include <stdint.h>
   5:../../DaisyExamples/libDaisy/src/hid/usb.h **** #include <stdlib.h>
   6:../../DaisyExamples/libDaisy/src/hid/usb.h **** 
   7:../../DaisyExamples/libDaisy/src/hid/usb.h **** namespace daisy
   8:../../DaisyExamples/libDaisy/src/hid/usb.h **** /** @addtogroup human_interface
   9:../../DaisyExamples/libDaisy/src/hid/usb.h ****     @{
  10:../../DaisyExamples/libDaisy/src/hid/usb.h **** */
ARM GAS  /var/folders/hp/45mn71hd0ps5f5pnytxy5bt00000gn/T//ccaKukFC.s 			page 18


  11:../../DaisyExamples/libDaisy/src/hid/usb.h **** 
  12:../../DaisyExamples/libDaisy/src/hid/usb.h **** {
  13:../../DaisyExamples/libDaisy/src/hid/usb.h **** /** 
  14:../../DaisyExamples/libDaisy/src/hid/usb.h ****     @brief Interface for initializing and using the USB Peripherals on the daisy
  15:../../DaisyExamples/libDaisy/src/hid/usb.h ****     @author Stephen Hensley
  16:../../DaisyExamples/libDaisy/src/hid/usb.h ****     @date December 2019
  17:../../DaisyExamples/libDaisy/src/hid/usb.h **** */
  18:../../DaisyExamples/libDaisy/src/hid/usb.h **** class UsbHandle
  19:../../DaisyExamples/libDaisy/src/hid/usb.h **** {
  20:../../DaisyExamples/libDaisy/src/hid/usb.h ****   public:
  21:../../DaisyExamples/libDaisy/src/hid/usb.h ****     /** Return values for USBHandle Functions */
  22:../../DaisyExamples/libDaisy/src/hid/usb.h ****     enum class Result
  23:../../DaisyExamples/libDaisy/src/hid/usb.h ****     {
  24:../../DaisyExamples/libDaisy/src/hid/usb.h ****         OK,
  25:../../DaisyExamples/libDaisy/src/hid/usb.h ****         ERR,
  26:../../DaisyExamples/libDaisy/src/hid/usb.h ****     };
  27:../../DaisyExamples/libDaisy/src/hid/usb.h **** 
  28:../../DaisyExamples/libDaisy/src/hid/usb.h ****     /** Specified which of the two USB Peripherals to initialize. */
  29:../../DaisyExamples/libDaisy/src/hid/usb.h ****     enum UsbPeriph
  30:../../DaisyExamples/libDaisy/src/hid/usb.h ****     {
  31:../../DaisyExamples/libDaisy/src/hid/usb.h ****         FS_INTERNAL, /**< Internal pin */
  32:../../DaisyExamples/libDaisy/src/hid/usb.h ****         FS_EXTERNAL, /**< FS External D+ pin is Pin 38 (GPIO32). FS External D- pin is Pin 37 (GPIO
  33:../../DaisyExamples/libDaisy/src/hid/usb.h ****         FS_BOTH,     /**< Both */
  34:../../DaisyExamples/libDaisy/src/hid/usb.h ****     };
  35:../../DaisyExamples/libDaisy/src/hid/usb.h **** 
  36:../../DaisyExamples/libDaisy/src/hid/usb.h **** 
  37:../../DaisyExamples/libDaisy/src/hid/usb.h ****     /** Function called upon reception of a buffer */
  38:../../DaisyExamples/libDaisy/src/hid/usb.h ****     typedef void (*ReceiveCallback)(uint8_t* buff, uint32_t* len);
  39:../../DaisyExamples/libDaisy/src/hid/usb.h **** 
  40:../../DaisyExamples/libDaisy/src/hid/usb.h ****     UsbHandle() {}
  41:../../DaisyExamples/libDaisy/src/hid/usb.h **** 
  42:../../DaisyExamples/libDaisy/src/hid/usb.h ****     ~UsbHandle() {}
 175              		.loc 13 42 5 is_stmt 1 view .LVU41
 176              		.loc 13 42 5 is_stmt 0 view .LVU42
 177              	.LBE498:
 178              	.LBB499:
 179              	.LBI499:
 180              		.file 14 "../../DaisyExamples/libDaisy/src/per/adc.h"
   1:../../DaisyExamples/libDaisy/src/per/adc.h **** #pragma once
   2:../../DaisyExamples/libDaisy/src/per/adc.h **** #ifndef DSY_ADC_H
   3:../../DaisyExamples/libDaisy/src/per/adc.h **** #define DSY_ADC_H /**< Macro */
   4:../../DaisyExamples/libDaisy/src/per/adc.h **** #include <stdint.h>
   5:../../DaisyExamples/libDaisy/src/per/adc.h **** #include <stdlib.h>
   6:../../DaisyExamples/libDaisy/src/per/adc.h **** #include "daisy_core.h"
   7:../../DaisyExamples/libDaisy/src/per/adc.h **** #include "per/gpio.h"
   8:../../DaisyExamples/libDaisy/src/per/adc.h **** 
   9:../../DaisyExamples/libDaisy/src/per/adc.h **** #define DSY_ADC_MAX_CHANNELS 16 /**< Maximum number of ADC channels */
  10:../../DaisyExamples/libDaisy/src/per/adc.h **** 
  11:../../DaisyExamples/libDaisy/src/per/adc.h **** namespace daisy
  12:../../DaisyExamples/libDaisy/src/per/adc.h **** {
  13:../../DaisyExamples/libDaisy/src/per/adc.h **** /** @addtogroup per_analog
  14:../../DaisyExamples/libDaisy/src/per/adc.h ****     @{
  15:../../DaisyExamples/libDaisy/src/per/adc.h **** */
  16:../../DaisyExamples/libDaisy/src/per/adc.h **** 
  17:../../DaisyExamples/libDaisy/src/per/adc.h **** /* While there may not be many configuration options here,
  18:../../DaisyExamples/libDaisy/src/per/adc.h **** using a struct like this allows us to add more configuration
  19:../../DaisyExamples/libDaisy/src/per/adc.h **** later without breaking existing functionality.
ARM GAS  /var/folders/hp/45mn71hd0ps5f5pnytxy5bt00000gn/T//ccaKukFC.s 			page 19


  20:../../DaisyExamples/libDaisy/src/per/adc.h **** */
  21:../../DaisyExamples/libDaisy/src/per/adc.h **** 
  22:../../DaisyExamples/libDaisy/src/per/adc.h **** /** @brief   Configuration Structure for an ADC Channel 
  23:../../DaisyExamples/libDaisy/src/per/adc.h ****  *  @details This can be used to configure a a single input, 
  24:../../DaisyExamples/libDaisy/src/per/adc.h ****  *           or a multiplexed input, allowing up to 8 inputs on 
  25:../../DaisyExamples/libDaisy/src/per/adc.h ****  *           one channel.
  26:../../DaisyExamples/libDaisy/src/per/adc.h ****  *  @note    Sharing data lines to multiple muxes _is_ possible, but
  27:../../DaisyExamples/libDaisy/src/per/adc.h ****  *           each channel sharing data lines must be set to the maximum
  28:../../DaisyExamples/libDaisy/src/per/adc.h ****  *           number of channels, even if some multiplexers have fewer
  29:../../DaisyExamples/libDaisy/src/per/adc.h ****  *           inputs connected.
  30:../../DaisyExamples/libDaisy/src/per/adc.h **** */
  31:../../DaisyExamples/libDaisy/src/per/adc.h **** struct AdcChannelConfig
  32:../../DaisyExamples/libDaisy/src/per/adc.h **** {
  33:../../DaisyExamples/libDaisy/src/per/adc.h ****     /** Which pin to use for multiplexing */
  34:../../DaisyExamples/libDaisy/src/per/adc.h ****     enum MuxPin
  35:../../DaisyExamples/libDaisy/src/per/adc.h ****     {
  36:../../DaisyExamples/libDaisy/src/per/adc.h ****         MUX_SEL_0,    /**< & */
  37:../../DaisyExamples/libDaisy/src/per/adc.h ****         MUX_SEL_1,    /**< & */
  38:../../DaisyExamples/libDaisy/src/per/adc.h ****         MUX_SEL_2,    /**< & */
  39:../../DaisyExamples/libDaisy/src/per/adc.h ****         MUX_SEL_LAST, /**< & */
  40:../../DaisyExamples/libDaisy/src/per/adc.h ****     };
  41:../../DaisyExamples/libDaisy/src/per/adc.h **** 
  42:../../DaisyExamples/libDaisy/src/per/adc.h ****     /** \brief per channel conversion speed added to fixed time based on bitdepth, etc. */
  43:../../DaisyExamples/libDaisy/src/per/adc.h ****     enum ConversionSpeed
  44:../../DaisyExamples/libDaisy/src/per/adc.h ****     {
  45:../../DaisyExamples/libDaisy/src/per/adc.h ****         SPEED_1CYCLES_5,
  46:../../DaisyExamples/libDaisy/src/per/adc.h ****         SPEED_2CYCLES_5,
  47:../../DaisyExamples/libDaisy/src/per/adc.h ****         SPEED_8CYCLES_5,
  48:../../DaisyExamples/libDaisy/src/per/adc.h ****         SPEED_16CYCLES_5,
  49:../../DaisyExamples/libDaisy/src/per/adc.h ****         SPEED_32CYCLES_5,
  50:../../DaisyExamples/libDaisy/src/per/adc.h ****         SPEED_64CYCLES_5,
  51:../../DaisyExamples/libDaisy/src/per/adc.h ****         SPEED_387CYCLES_5,
  52:../../DaisyExamples/libDaisy/src/per/adc.h ****         SPEED_810CYCLES_5,
  53:../../DaisyExamples/libDaisy/src/per/adc.h ****     };
  54:../../DaisyExamples/libDaisy/src/per/adc.h **** 
  55:../../DaisyExamples/libDaisy/src/per/adc.h ****     /** Initializes a single ADC pin as an ADC. 
  56:../../DaisyExamples/libDaisy/src/per/adc.h ****     \param pin Pin to init.
  57:../../DaisyExamples/libDaisy/src/per/adc.h ****     \param speed conversion speed for this pin defaults to 8.5 cycles
  58:../../DaisyExamples/libDaisy/src/per/adc.h ****      */
  59:../../DaisyExamples/libDaisy/src/per/adc.h ****     void InitSingle(dsy_gpio_pin pin, ConversionSpeed speed = SPEED_8CYCLES_5);
  60:../../DaisyExamples/libDaisy/src/per/adc.h **** 
  61:../../DaisyExamples/libDaisy/src/per/adc.h ****     /** 
  62:../../DaisyExamples/libDaisy/src/per/adc.h ****     Initializes a single ADC pin as a Multiplexed ADC.
  63:../../DaisyExamples/libDaisy/src/per/adc.h ****     Requires a CD405X Multiplexer connected to the pin.
  64:../../DaisyExamples/libDaisy/src/per/adc.h ****     You only need to supply the mux pins that are required,
  65:../../DaisyExamples/libDaisy/src/per/adc.h ****     e.g. a 4052 mux would only require mux_0 and mux_1.
  66:../../DaisyExamples/libDaisy/src/per/adc.h ****     Internal Callbacks handle the pin addressing.
  67:../../DaisyExamples/libDaisy/src/per/adc.h ****     \param adc_pin &
  68:../../DaisyExamples/libDaisy/src/per/adc.h ****     \param mux_channels must be 1-8
  69:../../DaisyExamples/libDaisy/src/per/adc.h ****     \param mux_0 First mux pin
  70:../../DaisyExamples/libDaisy/src/per/adc.h ****     \param mux_1 Second mux pin
  71:../../DaisyExamples/libDaisy/src/per/adc.h ****     \param mux_2 Third mux pin
  72:../../DaisyExamples/libDaisy/src/per/adc.h ****     \param speed conversion speed for this pin defaults to 8.5 cycles
  73:../../DaisyExamples/libDaisy/src/per/adc.h ****     */
  74:../../DaisyExamples/libDaisy/src/per/adc.h ****     void InitMux(dsy_gpio_pin    adc_pin,
  75:../../DaisyExamples/libDaisy/src/per/adc.h ****                  size_t          mux_channels,
  76:../../DaisyExamples/libDaisy/src/per/adc.h ****                  dsy_gpio_pin    mux_0,
ARM GAS  /var/folders/hp/45mn71hd0ps5f5pnytxy5bt00000gn/T//ccaKukFC.s 			page 20


  77:../../DaisyExamples/libDaisy/src/per/adc.h ****                  dsy_gpio_pin    mux_1 = {DSY_GPIOX, 0},
  78:../../DaisyExamples/libDaisy/src/per/adc.h ****                  dsy_gpio_pin    mux_2 = {DSY_GPIOX, 0},
  79:../../DaisyExamples/libDaisy/src/per/adc.h ****                  ConversionSpeed speed = SPEED_8CYCLES_5);
  80:../../DaisyExamples/libDaisy/src/per/adc.h **** 
  81:../../DaisyExamples/libDaisy/src/per/adc.h ****     dsy_gpio        pin_;                   /**< & */
  82:../../DaisyExamples/libDaisy/src/per/adc.h ****     dsy_gpio        mux_pin_[MUX_SEL_LAST]; /**< & */
  83:../../DaisyExamples/libDaisy/src/per/adc.h ****     uint8_t         mux_channels_;          /**< & */
  84:../../DaisyExamples/libDaisy/src/per/adc.h ****     ConversionSpeed speed_;
  85:../../DaisyExamples/libDaisy/src/per/adc.h **** };
  86:../../DaisyExamples/libDaisy/src/per/adc.h **** 
  87:../../DaisyExamples/libDaisy/src/per/adc.h **** /**
  88:../../DaisyExamples/libDaisy/src/per/adc.h ****    @brief Handler for analog to digital conversion
  89:../../DaisyExamples/libDaisy/src/per/adc.h **** */
  90:../../DaisyExamples/libDaisy/src/per/adc.h **** class AdcHandle
  91:../../DaisyExamples/libDaisy/src/per/adc.h **** {
  92:../../DaisyExamples/libDaisy/src/per/adc.h ****   public:
  93:../../DaisyExamples/libDaisy/src/per/adc.h ****     /** Supported oversampling amounts */
  94:../../DaisyExamples/libDaisy/src/per/adc.h ****     enum OverSampling
  95:../../DaisyExamples/libDaisy/src/per/adc.h ****     {
  96:../../DaisyExamples/libDaisy/src/per/adc.h ****         OVS_NONE, /**< & */
  97:../../DaisyExamples/libDaisy/src/per/adc.h ****         OVS_4,    /**< & */
  98:../../DaisyExamples/libDaisy/src/per/adc.h ****         OVS_8,    /**< & */
  99:../../DaisyExamples/libDaisy/src/per/adc.h ****         OVS_16,   /**< & */
 100:../../DaisyExamples/libDaisy/src/per/adc.h ****         OVS_32,   /**< & */
 101:../../DaisyExamples/libDaisy/src/per/adc.h ****         OVS_64,   /**< & */
 102:../../DaisyExamples/libDaisy/src/per/adc.h ****         OVS_128,  /**< & */
 103:../../DaisyExamples/libDaisy/src/per/adc.h ****         OVS_256,  /**< & */
 104:../../DaisyExamples/libDaisy/src/per/adc.h ****         OVS_512,  /**< & */
 105:../../DaisyExamples/libDaisy/src/per/adc.h ****         OVS_1024, /**< & */
 106:../../DaisyExamples/libDaisy/src/per/adc.h ****         OVS_LAST, /**< & */
 107:../../DaisyExamples/libDaisy/src/per/adc.h ****     };
 108:../../DaisyExamples/libDaisy/src/per/adc.h **** 
 109:../../DaisyExamples/libDaisy/src/per/adc.h ****     AdcHandle() {}
 110:../../DaisyExamples/libDaisy/src/per/adc.h ****     ~AdcHandle() {}
 181              		.loc 14 110 5 is_stmt 1 view .LVU43
 182              		.loc 14 110 5 is_stmt 0 view .LVU44
 183              	.LBE499:
 184              	.LBB500:
 185              	.LBI500:
 186              		.file 15 "../../DaisyExamples/libDaisy/src/hid/audio.h"
   1:../../DaisyExamples/libDaisy/src/hid/audio.h **** #ifndef DSY_AUDIO_H
   2:../../DaisyExamples/libDaisy/src/hid/audio.h **** #define DSY_AUDIO_H /**< & */
   3:../../DaisyExamples/libDaisy/src/hid/audio.h **** 
   4:../../DaisyExamples/libDaisy/src/hid/audio.h **** #include "per/sai.h"
   5:../../DaisyExamples/libDaisy/src/hid/audio.h **** 
   6:../../DaisyExamples/libDaisy/src/hid/audio.h **** namespace daisy
   7:../../DaisyExamples/libDaisy/src/hid/audio.h **** {
   8:../../DaisyExamples/libDaisy/src/hid/audio.h **** /** @brief Audio Engine Handle
   9:../../DaisyExamples/libDaisy/src/hid/audio.h ****  *  @ingroup audio 
  10:../../DaisyExamples/libDaisy/src/hid/audio.h ****  *  @details This class allows for higher level access to an audio engine.
  11:../../DaisyExamples/libDaisy/src/hid/audio.h ****  *           If you're using a SOM like the DaisySeed or DaisyPatchSM (or any 
  12:../../DaisyExamples/libDaisy/src/hid/audio.h ****  *            board that includes one of those objects) then the intialization
  13:../../DaisyExamples/libDaisy/src/hid/audio.h ****  *            is already taken  care of.
  14:../../DaisyExamples/libDaisy/src/hid/audio.h ****  *           If you're setting up your own custom hardware, or need to make changes
  15:../../DaisyExamples/libDaisy/src/hid/audio.h ****  *           you will have to take the following steps:
  16:../../DaisyExamples/libDaisy/src/hid/audio.h ****  *             1. Create and Initialize an SaiHandle or two depending on your requirements
  17:../../DaisyExamples/libDaisy/src/hid/audio.h ****  *             2. Initialize the Audio Handle with the desired settings and the Initialized SaiHand
ARM GAS  /var/folders/hp/45mn71hd0ps5f5pnytxy5bt00000gn/T//ccaKukFC.s 			page 21


  18:../../DaisyExamples/libDaisy/src/hid/audio.h ****  *             3. If the connected codec requires special configuration or initialization, do so
  19:../../DaisyExamples/libDaisy/src/hid/audio.h ****  *             4. Write a callback method using either the AudioCallback or the InterleavingAudioCa
  20:../../DaisyExamples/libDaisy/src/hid/audio.h ****  *             5. Start the Audio using one of the StartAudio function
  21:../../DaisyExamples/libDaisy/src/hid/audio.h ****  */
  22:../../DaisyExamples/libDaisy/src/hid/audio.h **** class AudioHandle
  23:../../DaisyExamples/libDaisy/src/hid/audio.h **** {
  24:../../DaisyExamples/libDaisy/src/hid/audio.h ****   public:
  25:../../DaisyExamples/libDaisy/src/hid/audio.h ****     /** Manually configurable details about the Audio Engine */
  26:../../DaisyExamples/libDaisy/src/hid/audio.h ****     /** TODO: Figure out how to get samplerate in here. */
  27:../../DaisyExamples/libDaisy/src/hid/audio.h ****     struct Config
  28:../../DaisyExamples/libDaisy/src/hid/audio.h ****     {
  29:../../DaisyExamples/libDaisy/src/hid/audio.h ****         /** number of samples to process per callback */
  30:../../DaisyExamples/libDaisy/src/hid/audio.h ****         size_t blocksize;
  31:../../DaisyExamples/libDaisy/src/hid/audio.h **** 
  32:../../DaisyExamples/libDaisy/src/hid/audio.h ****         /**< Sample rate of audio */
  33:../../DaisyExamples/libDaisy/src/hid/audio.h ****         SaiHandle::Config::SampleRate samplerate;
  34:../../DaisyExamples/libDaisy/src/hid/audio.h **** 
  35:../../DaisyExamples/libDaisy/src/hid/audio.h ****         /** factor for adjustment before and after callback for hardware that may have extra headro
  36:../../DaisyExamples/libDaisy/src/hid/audio.h ****         float postgain;
  37:../../DaisyExamples/libDaisy/src/hid/audio.h **** 
  38:../../DaisyExamples/libDaisy/src/hid/audio.h ****         /** factor for additional one-sided compensation to audio path for hardware that may
  39:../../DaisyExamples/libDaisy/src/hid/audio.h ****          *  have unequal input/output ranges
  40:../../DaisyExamples/libDaisy/src/hid/audio.h ****          */
  41:../../DaisyExamples/libDaisy/src/hid/audio.h ****         float output_compensation;
  42:../../DaisyExamples/libDaisy/src/hid/audio.h **** 
  43:../../DaisyExamples/libDaisy/src/hid/audio.h ****         /** Sets default values for config struct */
  44:../../DaisyExamples/libDaisy/src/hid/audio.h ****         Config()
  45:../../DaisyExamples/libDaisy/src/hid/audio.h ****         : blocksize(48),
  46:../../DaisyExamples/libDaisy/src/hid/audio.h ****           samplerate(SaiHandle::Config::SampleRate::SAI_48KHZ),
  47:../../DaisyExamples/libDaisy/src/hid/audio.h ****           postgain(1.f),
  48:../../DaisyExamples/libDaisy/src/hid/audio.h ****           output_compensation(1.f)
  49:../../DaisyExamples/libDaisy/src/hid/audio.h ****         {
  50:../../DaisyExamples/libDaisy/src/hid/audio.h ****         }
  51:../../DaisyExamples/libDaisy/src/hid/audio.h ****     };
  52:../../DaisyExamples/libDaisy/src/hid/audio.h **** 
  53:../../DaisyExamples/libDaisy/src/hid/audio.h ****     enum class Result
  54:../../DaisyExamples/libDaisy/src/hid/audio.h ****     {
  55:../../DaisyExamples/libDaisy/src/hid/audio.h ****         OK,
  56:../../DaisyExamples/libDaisy/src/hid/audio.h ****         ERR,
  57:../../DaisyExamples/libDaisy/src/hid/audio.h ****     };
  58:../../DaisyExamples/libDaisy/src/hid/audio.h **** 
  59:../../DaisyExamples/libDaisy/src/hid/audio.h ****     /** Non-Interleaving input buffer
  60:../../DaisyExamples/libDaisy/src/hid/audio.h ****      * Buffer arranged by float[chn][sample] 
  61:../../DaisyExamples/libDaisy/src/hid/audio.h ****      * const so that the user can't modify the input
  62:../../DaisyExamples/libDaisy/src/hid/audio.h ****      */
  63:../../DaisyExamples/libDaisy/src/hid/audio.h ****     typedef const float* const* InputBuffer;
  64:../../DaisyExamples/libDaisy/src/hid/audio.h **** 
  65:../../DaisyExamples/libDaisy/src/hid/audio.h ****     /** Non-Interleaving output buffer
  66:../../DaisyExamples/libDaisy/src/hid/audio.h ****      * Arranged by float[chn][sample] 
  67:../../DaisyExamples/libDaisy/src/hid/audio.h ****      */
  68:../../DaisyExamples/libDaisy/src/hid/audio.h ****     typedef float** OutputBuffer;
  69:../../DaisyExamples/libDaisy/src/hid/audio.h **** 
  70:../../DaisyExamples/libDaisy/src/hid/audio.h ****     /** Type for a Non-Interleaving audio callback 
  71:../../DaisyExamples/libDaisy/src/hid/audio.h ****      * Non-Interleaving audio callbacks in daisy will be of this type
  72:../../DaisyExamples/libDaisy/src/hid/audio.h ****      */
  73:../../DaisyExamples/libDaisy/src/hid/audio.h ****     typedef void (*AudioCallback)(InputBuffer  in,
  74:../../DaisyExamples/libDaisy/src/hid/audio.h ****                                   OutputBuffer out,
ARM GAS  /var/folders/hp/45mn71hd0ps5f5pnytxy5bt00000gn/T//ccaKukFC.s 			page 22


  75:../../DaisyExamples/libDaisy/src/hid/audio.h ****                                   size_t       size);
  76:../../DaisyExamples/libDaisy/src/hid/audio.h **** 
  77:../../DaisyExamples/libDaisy/src/hid/audio.h ****     /** Interleaving Input buffer
  78:../../DaisyExamples/libDaisy/src/hid/audio.h ****      ** audio is prepared as { L0, R0, L1, R1, . . . LN, RN }]
  79:../../DaisyExamples/libDaisy/src/hid/audio.h ****      ** this is const, as the user shouldn't modify it
  80:../../DaisyExamples/libDaisy/src/hid/audio.h ****     */
  81:../../DaisyExamples/libDaisy/src/hid/audio.h ****     typedef const float* InterleavingInputBuffer;
  82:../../DaisyExamples/libDaisy/src/hid/audio.h **** 
  83:../../DaisyExamples/libDaisy/src/hid/audio.h ****     /** Interleaving Output buffer 
  84:../../DaisyExamples/libDaisy/src/hid/audio.h ****      ** audio is prepared as { L0, R0, L1, R1, . . . LN, RN }
  85:../../DaisyExamples/libDaisy/src/hid/audio.h ****     */
  86:../../DaisyExamples/libDaisy/src/hid/audio.h ****     typedef float* InterleavingOutputBuffer;
  87:../../DaisyExamples/libDaisy/src/hid/audio.h **** 
  88:../../DaisyExamples/libDaisy/src/hid/audio.h ****     /** Interleaving Audio Callback 
  89:../../DaisyExamples/libDaisy/src/hid/audio.h ****      * Interleaving audio callbacks in daisy must be of this type
  90:../../DaisyExamples/libDaisy/src/hid/audio.h ****      */
  91:../../DaisyExamples/libDaisy/src/hid/audio.h ****     typedef void (*InterleavingAudioCallback)(InterleavingInputBuffer  in,
  92:../../DaisyExamples/libDaisy/src/hid/audio.h ****                                               InterleavingOutputBuffer out,
  93:../../DaisyExamples/libDaisy/src/hid/audio.h ****                                               size_t                   size);
  94:../../DaisyExamples/libDaisy/src/hid/audio.h **** 
  95:../../DaisyExamples/libDaisy/src/hid/audio.h ****     AudioHandle() : pimpl_(nullptr) {}
  96:../../DaisyExamples/libDaisy/src/hid/audio.h ****     ~AudioHandle() {}
 187              		.loc 15 96 5 is_stmt 1 view .LVU45
 188              		.loc 15 96 5 is_stmt 0 view .LVU46
 189              	.LBE500:
 190              	.LBE496:
 191              		.loc 3 36 18 view .LVU47
 192 0000 7047     		bx	lr
 193              		.cfi_endproc
 194              	.LFE2565:
 196              		.weak	_ZN5daisy8DaisyPodD1Ev
 197              		.thumb_set _ZN5daisy8DaisyPodD1Ev,_ZN5daisy8DaisyPodD2Ev
 198 0002 00BF     		.section	.text._ZN7daisysp5AdEnvD2Ev,"axG",%progbits,_ZN7daisysp5AdEnvD5Ev,comdat
 199              		.align	1
 200              		.p2align 2,,3
 201              		.weak	_ZN7daisysp5AdEnvD2Ev
 202              		.syntax unified
 203              		.thumb
 204              		.thumb_func
 206              	_ZN7daisysp5AdEnvD2Ev:
 207              	.LVL2:
 208              	.LFB2572:
 209              		.file 16 "../../DaisyExamples/DaisySP/Source/Control/adenv.h"
   1:../../DaisyExamples/DaisySP/Source/Control/adenv.h **** /*
   2:../../DaisyExamples/DaisySP/Source/Control/adenv.h **** Copyright (c) 2020 Electrosmith, Corp
   3:../../DaisyExamples/DaisySP/Source/Control/adenv.h **** 
   4:../../DaisyExamples/DaisySP/Source/Control/adenv.h **** Use of this source code is governed by an MIT-style
   5:../../DaisyExamples/DaisySP/Source/Control/adenv.h **** license that can be found in the LICENSE file or at
   6:../../DaisyExamples/DaisySP/Source/Control/adenv.h **** https://opensource.org/licenses/MIT.
   7:../../DaisyExamples/DaisySP/Source/Control/adenv.h **** */
   8:../../DaisyExamples/DaisySP/Source/Control/adenv.h **** 
   9:../../DaisyExamples/DaisySP/Source/Control/adenv.h **** #pragma once
  10:../../DaisyExamples/DaisySP/Source/Control/adenv.h **** #ifndef ADENV_H
  11:../../DaisyExamples/DaisySP/Source/Control/adenv.h **** #define ADENV_H
  12:../../DaisyExamples/DaisySP/Source/Control/adenv.h **** #include <stdint.h>
  13:../../DaisyExamples/DaisySP/Source/Control/adenv.h **** #ifdef __cplusplus
  14:../../DaisyExamples/DaisySP/Source/Control/adenv.h **** 
ARM GAS  /var/folders/hp/45mn71hd0ps5f5pnytxy5bt00000gn/T//ccaKukFC.s 			page 23


  15:../../DaisyExamples/DaisySP/Source/Control/adenv.h **** namespace daisysp
  16:../../DaisyExamples/DaisySP/Source/Control/adenv.h **** {
  17:../../DaisyExamples/DaisySP/Source/Control/adenv.h **** /** Distinct stages that the phase of the envelope can be located in.
  18:../../DaisyExamples/DaisySP/Source/Control/adenv.h ****     @see AdEnv
  19:../../DaisyExamples/DaisySP/Source/Control/adenv.h **** */
  20:../../DaisyExamples/DaisySP/Source/Control/adenv.h **** enum AdEnvSegment
  21:../../DaisyExamples/DaisySP/Source/Control/adenv.h **** {
  22:../../DaisyExamples/DaisySP/Source/Control/adenv.h ****     /** located at phase location 0, and not currently running */
  23:../../DaisyExamples/DaisySP/Source/Control/adenv.h ****     ADENV_SEG_IDLE,
  24:../../DaisyExamples/DaisySP/Source/Control/adenv.h ****     /** First segment of envelope where phase moves from MIN value to MAX value */
  25:../../DaisyExamples/DaisySP/Source/Control/adenv.h ****     ADENV_SEG_ATTACK,
  26:../../DaisyExamples/DaisySP/Source/Control/adenv.h ****     /** Second segment of envelope where phase moves from MAX to MIN value */
  27:../../DaisyExamples/DaisySP/Source/Control/adenv.h ****     ADENV_SEG_DECAY,
  28:../../DaisyExamples/DaisySP/Source/Control/adenv.h ****     /** The final segment of the envelope (currently decay) */
  29:../../DaisyExamples/DaisySP/Source/Control/adenv.h ****     ADENV_SEG_LAST,
  30:../../DaisyExamples/DaisySP/Source/Control/adenv.h **** };
  31:../../DaisyExamples/DaisySP/Source/Control/adenv.h **** 
  32:../../DaisyExamples/DaisySP/Source/Control/adenv.h **** /** Trigger-able envelope with adjustable min/max, and independent per-segment time control.
  33:../../DaisyExamples/DaisySP/Source/Control/adenv.h **** 
  34:../../DaisyExamples/DaisySP/Source/Control/adenv.h ****     \author shensley
  35:../../DaisyExamples/DaisySP/Source/Control/adenv.h ****     \todo - Add Cycling
  36:../../DaisyExamples/DaisySP/Source/Control/adenv.h ****     \todo - Implement Curve (its only linear for now).
  37:../../DaisyExamples/DaisySP/Source/Control/adenv.h ****     \todo - Maybe make this an ADsr_ that has AD/AR/Asr_ modes.
  38:../../DaisyExamples/DaisySP/Source/Control/adenv.h ****  */
  39:../../DaisyExamples/DaisySP/Source/Control/adenv.h **** class AdEnv
  40:../../DaisyExamples/DaisySP/Source/Control/adenv.h **** {
  41:../../DaisyExamples/DaisySP/Source/Control/adenv.h ****   public:
  42:../../DaisyExamples/DaisySP/Source/Control/adenv.h ****     AdEnv() {}
  43:../../DaisyExamples/DaisySP/Source/Control/adenv.h ****     ~AdEnv() {}
 210              		.loc 16 43 5 is_stmt 1 view -0
 211              		.cfi_startproc
 212              		@ args = 0, pretend = 0, frame = 0
 213              		@ frame_needed = 0, uses_anonymous_args = 0
 214              		@ link register save eliminated.
 215              		.loc 16 43 15 is_stmt 0 view .LVU49
 216 0000 7047     		bx	lr
 217              		.cfi_endproc
 218              	.LFE2572:
 220              		.weak	_ZN7daisysp5AdEnvD1Ev
 221              		.thumb_set _ZN7daisysp5AdEnvD1Ev,_ZN7daisysp5AdEnvD2Ev
 222 0002 00BF     		.section	.text._ZN7daisysp10OscillatorD2Ev,"axG",%progbits,_ZN7daisysp10OscillatorD5Ev,comdat
 223              		.align	1
 224              		.p2align 2,,3
 225              		.weak	_ZN7daisysp10OscillatorD2Ev
 226              		.syntax unified
 227              		.thumb
 228              		.thumb_func
 230              	_ZN7daisysp10OscillatorD2Ev:
 231              	.LVL3:
 232              	.LFB4248:
 233              		.file 17 "../../DaisyExamples/DaisySP/Source/Synthesis/oscillator.h"
   1:../../DaisyExamples/DaisySP/Source/Synthesis/oscillator.h **** /*
   2:../../DaisyExamples/DaisySP/Source/Synthesis/oscillator.h **** Copyright (c) 2020 Electrosmith, Corp
   3:../../DaisyExamples/DaisySP/Source/Synthesis/oscillator.h **** 
   4:../../DaisyExamples/DaisySP/Source/Synthesis/oscillator.h **** Use of this source code is governed by an MIT-style
   5:../../DaisyExamples/DaisySP/Source/Synthesis/oscillator.h **** license that can be found in the LICENSE file or at
   6:../../DaisyExamples/DaisySP/Source/Synthesis/oscillator.h **** https://opensource.org/licenses/MIT.
ARM GAS  /var/folders/hp/45mn71hd0ps5f5pnytxy5bt00000gn/T//ccaKukFC.s 			page 24


   7:../../DaisyExamples/DaisySP/Source/Synthesis/oscillator.h **** */
   8:../../DaisyExamples/DaisySP/Source/Synthesis/oscillator.h **** 
   9:../../DaisyExamples/DaisySP/Source/Synthesis/oscillator.h **** #pragma once
  10:../../DaisyExamples/DaisySP/Source/Synthesis/oscillator.h **** #ifndef DSY_OSCILLATOR_H
  11:../../DaisyExamples/DaisySP/Source/Synthesis/oscillator.h **** #define DSY_OSCILLATOR_H
  12:../../DaisyExamples/DaisySP/Source/Synthesis/oscillator.h **** #include <stdint.h>
  13:../../DaisyExamples/DaisySP/Source/Synthesis/oscillator.h **** #include "Utility/dsp.h"
  14:../../DaisyExamples/DaisySP/Source/Synthesis/oscillator.h **** #ifdef __cplusplus
  15:../../DaisyExamples/DaisySP/Source/Synthesis/oscillator.h **** 
  16:../../DaisyExamples/DaisySP/Source/Synthesis/oscillator.h **** namespace daisysp
  17:../../DaisyExamples/DaisySP/Source/Synthesis/oscillator.h **** {
  18:../../DaisyExamples/DaisySP/Source/Synthesis/oscillator.h **** /** Synthesis of several waveforms, including polyBLEP bandlimited waveforms.
  19:../../DaisyExamples/DaisySP/Source/Synthesis/oscillator.h **** */
  20:../../DaisyExamples/DaisySP/Source/Synthesis/oscillator.h **** class Oscillator
  21:../../DaisyExamples/DaisySP/Source/Synthesis/oscillator.h **** {
  22:../../DaisyExamples/DaisySP/Source/Synthesis/oscillator.h ****   public:
  23:../../DaisyExamples/DaisySP/Source/Synthesis/oscillator.h ****     Oscillator() {}
  24:../../DaisyExamples/DaisySP/Source/Synthesis/oscillator.h ****     ~Oscillator() {}
 234              		.loc 17 24 5 is_stmt 1 view -0
 235              		.cfi_startproc
 236              		@ args = 0, pretend = 0, frame = 0
 237              		@ frame_needed = 0, uses_anonymous_args = 0
 238              		@ link register save eliminated.
 239              		.loc 17 24 20 is_stmt 0 view .LVU51
 240 0000 7047     		bx	lr
 241              		.cfi_endproc
 242              	.LFE4248:
 244              		.weak	_ZN7daisysp10OscillatorD1Ev
 245              		.thumb_set _ZN7daisysp10OscillatorD1Ev,_ZN7daisysp10OscillatorD2Ev
 246 0002 00BF     		.section	.text._ZN5daisy11MidiHandlerINS_16MidiUsbTransportEED2Ev,"axG",%progbits,_ZN5daisy11MidiH
 247              		.align	1
 248              		.p2align 2,,3
 249              		.weak	_ZN5daisy11MidiHandlerINS_16MidiUsbTransportEED2Ev
 250              		.syntax unified
 251              		.thumb
 252              		.thumb_func
 254              	_ZN5daisy11MidiHandlerINS_16MidiUsbTransportEED2Ev:
 255              	.LVL4:
 256              	.LFB5461:
 257              		.loc 4 156 5 is_stmt 1 view -0
 258              		.cfi_startproc
 259              		@ args = 0, pretend = 0, frame = 0
 260              		@ frame_needed = 0, uses_anonymous_args = 0
 261              		@ link register save eliminated.
 262              	.LBB501:
 263              	.LBI501:
 264              		.loc 5 298 7 view .LVU53
 265              	.LBB502:
 266              	.LBI502:
  42:../../DaisyExamples/libDaisy/src/util/FIFO.h **** 
 267              		.loc 5 42 5 view .LVU54
  42:../../DaisyExamples/libDaisy/src/util/FIFO.h **** 
 268              		.loc 5 42 5 is_stmt 0 view .LVU55
 269              	.LBE502:
 270              	.LBE501:
 271              	.LBB503:
 272              	.LBI503:
ARM GAS  /var/folders/hp/45mn71hd0ps5f5pnytxy5bt00000gn/T//ccaKukFC.s 			page 25


 273              		.loc 6 19 5 is_stmt 1 view .LVU56
 274              		.loc 6 19 5 is_stmt 0 view .LVU57
 275              	.LBE503:
 276              	.LBB504:
 277              	.LBI504:
 278              		.file 18 "../../DaisyExamples/libDaisy/src/hid/usb_midi.h"
   1:../../DaisyExamples/libDaisy/src/hid/usb_midi.h **** #pragma once
   2:../../DaisyExamples/libDaisy/src/hid/usb_midi.h **** #ifndef __DSY_MIDIUSBTRANSPORT_H__
   3:../../DaisyExamples/libDaisy/src/hid/usb_midi.h **** #define __DSY_MIDIUSBTRANSPORT_H__
   4:../../DaisyExamples/libDaisy/src/hid/usb_midi.h **** 
   5:../../DaisyExamples/libDaisy/src/hid/usb_midi.h **** #include "hid/usb.h"
   6:../../DaisyExamples/libDaisy/src/hid/usb_midi.h **** #include "sys/system.h"
   7:../../DaisyExamples/libDaisy/src/hid/usb_midi.h **** #include "util/ringbuffer.h"
   8:../../DaisyExamples/libDaisy/src/hid/usb_midi.h **** 
   9:../../DaisyExamples/libDaisy/src/hid/usb_midi.h **** namespace daisy
  10:../../DaisyExamples/libDaisy/src/hid/usb_midi.h **** {
  11:../../DaisyExamples/libDaisy/src/hid/usb_midi.h **** /** @brief USB Transport for MIDI
  12:../../DaisyExamples/libDaisy/src/hid/usb_midi.h ****  *  @ingroup midi
  13:../../DaisyExamples/libDaisy/src/hid/usb_midi.h ****  */
  14:../../DaisyExamples/libDaisy/src/hid/usb_midi.h **** class MidiUsbTransport
  15:../../DaisyExamples/libDaisy/src/hid/usb_midi.h **** {
  16:../../DaisyExamples/libDaisy/src/hid/usb_midi.h ****   public:
  17:../../DaisyExamples/libDaisy/src/hid/usb_midi.h ****     typedef void (*MidiRxParseCallback)(uint8_t* data,
  18:../../DaisyExamples/libDaisy/src/hid/usb_midi.h ****                                         size_t   size,
  19:../../DaisyExamples/libDaisy/src/hid/usb_midi.h ****                                         void*    context);
  20:../../DaisyExamples/libDaisy/src/hid/usb_midi.h **** 
  21:../../DaisyExamples/libDaisy/src/hid/usb_midi.h ****     struct Config
  22:../../DaisyExamples/libDaisy/src/hid/usb_midi.h ****     {
  23:../../DaisyExamples/libDaisy/src/hid/usb_midi.h ****         enum Periph
  24:../../DaisyExamples/libDaisy/src/hid/usb_midi.h ****         {
  25:../../DaisyExamples/libDaisy/src/hid/usb_midi.h ****             INTERNAL = 0,
  26:../../DaisyExamples/libDaisy/src/hid/usb_midi.h ****             EXTERNAL
  27:../../DaisyExamples/libDaisy/src/hid/usb_midi.h ****         };
  28:../../DaisyExamples/libDaisy/src/hid/usb_midi.h **** 
  29:../../DaisyExamples/libDaisy/src/hid/usb_midi.h ****         Periph periph;
  30:../../DaisyExamples/libDaisy/src/hid/usb_midi.h **** 
  31:../../DaisyExamples/libDaisy/src/hid/usb_midi.h ****         /**
  32:../../DaisyExamples/libDaisy/src/hid/usb_midi.h ****          * When sending MIDI messages immediately back-to-back in user code,
  33:../../DaisyExamples/libDaisy/src/hid/usb_midi.h ****          * sometimes the USB CDC driver is still "busy".
  34:../../DaisyExamples/libDaisy/src/hid/usb_midi.h ****          *
  35:../../DaisyExamples/libDaisy/src/hid/usb_midi.h ****          * This option configures the number of times to retry a Tx after
  36:../../DaisyExamples/libDaisy/src/hid/usb_midi.h ****          * delaying for 100 microseconds (default = 3 retries).
  37:../../DaisyExamples/libDaisy/src/hid/usb_midi.h ****          *
  38:../../DaisyExamples/libDaisy/src/hid/usb_midi.h ****          * If you set this to zero, Tx will not retry so the attempt will block
  39:../../DaisyExamples/libDaisy/src/hid/usb_midi.h ****          * for slightly less time, but transmit can fail if the Tx state is busy.
  40:../../DaisyExamples/libDaisy/src/hid/usb_midi.h ****          */
  41:../../DaisyExamples/libDaisy/src/hid/usb_midi.h ****         uint8_t tx_retry_count;
  42:../../DaisyExamples/libDaisy/src/hid/usb_midi.h **** 
  43:../../DaisyExamples/libDaisy/src/hid/usb_midi.h ****         Config() : periph(INTERNAL), tx_retry_count(3) {}
  44:../../DaisyExamples/libDaisy/src/hid/usb_midi.h ****     };
  45:../../DaisyExamples/libDaisy/src/hid/usb_midi.h **** 
  46:../../DaisyExamples/libDaisy/src/hid/usb_midi.h ****     void Init(Config config);
  47:../../DaisyExamples/libDaisy/src/hid/usb_midi.h **** 
  48:../../DaisyExamples/libDaisy/src/hid/usb_midi.h ****     void StartRx(MidiRxParseCallback callback, void* context);
  49:../../DaisyExamples/libDaisy/src/hid/usb_midi.h ****     bool RxActive();
  50:../../DaisyExamples/libDaisy/src/hid/usb_midi.h ****     void FlushRx();
  51:../../DaisyExamples/libDaisy/src/hid/usb_midi.h ****     void Tx(uint8_t* buffer, size_t size);
ARM GAS  /var/folders/hp/45mn71hd0ps5f5pnytxy5bt00000gn/T//ccaKukFC.s 			page 26


  52:../../DaisyExamples/libDaisy/src/hid/usb_midi.h **** 
  53:../../DaisyExamples/libDaisy/src/hid/usb_midi.h ****     class Impl;
  54:../../DaisyExamples/libDaisy/src/hid/usb_midi.h **** 
  55:../../DaisyExamples/libDaisy/src/hid/usb_midi.h ****     MidiUsbTransport() : pimpl_(nullptr) {}
  56:../../DaisyExamples/libDaisy/src/hid/usb_midi.h ****     ~MidiUsbTransport() {}
 279              		.loc 18 56 5 is_stmt 1 view .LVU58
 280              		.loc 18 56 5 is_stmt 0 view .LVU59
 281              	.LBE504:
 282              		.loc 4 156 21 view .LVU60
 283 0000 7047     		bx	lr
 284              		.cfi_endproc
 285              	.LFE5461:
 287              		.weak	_ZN5daisy11MidiHandlerINS_16MidiUsbTransportEED1Ev
 288              		.thumb_set _ZN5daisy11MidiHandlerINS_16MidiUsbTransportEED1Ev,_ZN5daisy11MidiHandlerINS_16MidiUsbT
 289 0002 00BF     		.section	.text._ZL13AudioCallbackPKfPfj,"ax",%progbits
 290              		.align	1
 291              		.p2align 2,,3
 292              		.syntax unified
 293              		.thumb
 294              		.thumb_func
 296              	_ZL13AudioCallbackPKfPfj:
 297              	.LVL5:
 298              	.LFB4854:
 299              		.file 19 "SynthV5.cpp"
   1:SynthV5.cpp   **** #include "daisy_pod.h"
   2:SynthV5.cpp   **** #include "daisysp.h"
   3:SynthV5.cpp   **** 
   4:SynthV5.cpp   **** using namespace daisy;
   5:SynthV5.cpp   **** using namespace daisysp;
   6:SynthV5.cpp   **** 
   7:SynthV5.cpp   **** static DaisyPod hw;
   8:SynthV5.cpp   **** static Oscillator osc;
   9:SynthV5.cpp   **** static AdEnv ad;
  10:SynthV5.cpp   **** static Parameter p_release;
  11:SynthV5.cpp   **** static MidiUsbHandler midi;
  12:SynthV5.cpp   **** static Parameter tuning;
  13:SynthV5.cpp   **** 
  14:SynthV5.cpp   **** static float volChange;
  15:SynthV5.cpp   **** static float inc;
  16:SynthV5.cpp   **** float adRelease;
  17:SynthV5.cpp   **** float midiFreq;
  18:SynthV5.cpp   **** float totalFreq;
  19:SynthV5.cpp   **** bool adCycle;
  20:SynthV5.cpp   **** bool isVolumeOn;
  21:SynthV5.cpp   **** 
  22:SynthV5.cpp   **** static void AudioCallback(AudioHandle::InterleavingInputBuffer  in,
  23:SynthV5.cpp   ****                           AudioHandle::InterleavingOutputBuffer out,
  24:SynthV5.cpp   ****                           size_t                                size)
  25:SynthV5.cpp   **** {
 300              		.loc 19 25 1 is_stmt 1 view -0
 301              		.cfi_startproc
 302              		@ args = 0, pretend = 0, frame = 0
 303              		@ frame_needed = 0, uses_anonymous_args = 0
  26:SynthV5.cpp   ****     hw.ProcessAnalogControls();
 304              		.loc 19 26 5 view .LVU62
  25:SynthV5.cpp   ****     hw.ProcessAnalogControls();
 305              		.loc 19 25 1 is_stmt 0 view .LVU63
ARM GAS  /var/folders/hp/45mn71hd0ps5f5pnytxy5bt00000gn/T//ccaKukFC.s 			page 27


 306 0000 2DE9F84F 		push	{r3, r4, r5, r6, r7, r8, r9, r10, fp, lr}
 307              		.cfi_def_cfa_offset 40
 308              		.cfi_offset 3, -40
 309              		.cfi_offset 4, -36
 310              		.cfi_offset 5, -32
 311              		.cfi_offset 6, -28
 312              		.cfi_offset 7, -24
 313              		.cfi_offset 8, -20
 314              		.cfi_offset 9, -16
 315              		.cfi_offset 10, -12
 316              		.cfi_offset 11, -8
 317              		.cfi_offset 14, -4
 318              		.loc 19 26 29 view .LVU64
 319 0004 6A4C     		ldr	r4, .L53+8
  25:SynthV5.cpp   ****     hw.ProcessAnalogControls();
 320              		.loc 19 25 1 view .LVU65
 321 0006 8B46     		mov	fp, r1
 322 0008 1546     		mov	r5, r2
 323              		.loc 19 26 29 view .LVU66
 324 000a 2046     		mov	r0, r4
 325              	.LVL6:
  25:SynthV5.cpp   ****     hw.ProcessAnalogControls();
 326              		.loc 19 25 1 view .LVU67
 327 000c 2DED028B 		vpush.64	{d8}
 328              		.cfi_def_cfa_offset 48
 329              		.cfi_offset 80, -48
 330              		.cfi_offset 81, -44
 331              		.loc 19 26 29 view .LVU68
 332 0010 FFF7FEFF 		bl	_ZN5daisy8DaisyPod21ProcessAnalogControlsEv
 333              	.LVL7:
  27:SynthV5.cpp   ****     hw.ProcessDigitalControls();
 334              		.loc 19 27 5 is_stmt 1 view .LVU69
 335              		.loc 19 27 30 is_stmt 0 view .LVU70
 336 0014 2046     		mov	r0, r4
 337 0016 FFF7FEFF 		bl	_ZN5daisy8DaisyPod22ProcessDigitalControlsEv
 338              	.LVL8:
  28:SynthV5.cpp   **** 
  29:SynthV5.cpp   ****     if(hw.button1.RisingEdge() || (adCycle && !ad.IsRunning()))
 339              		.loc 19 29 5 is_stmt 1 view .LVU71
 340              	.LBB505:
 341              	.LBI505:
  43:../../DaisyExamples/libDaisy/src/hid/switch.h **** 
  44:../../DaisyExamples/libDaisy/src/hid/switch.h ****     /** 
  45:../../DaisyExamples/libDaisy/src/hid/switch.h ****     Initializes the switch object with a given port/pin combo.
  46:../../DaisyExamples/libDaisy/src/hid/switch.h ****     \param pin port/pin object to tell the switch which hardware pin to use.
  47:../../DaisyExamples/libDaisy/src/hid/switch.h ****     \param update_rate Does nothing. Backwards compatibility until next breaking update.
  48:../../DaisyExamples/libDaisy/src/hid/switch.h ****     \param t switch type -- Default: TYPE_MOMENTARY
  49:../../DaisyExamples/libDaisy/src/hid/switch.h ****     \param pol switch polarity -- Default: POLARITY_INVERTED
  50:../../DaisyExamples/libDaisy/src/hid/switch.h ****     \param pu switch pull up/down -- Default: PULL_UP
  51:../../DaisyExamples/libDaisy/src/hid/switch.h ****     */
  52:../../DaisyExamples/libDaisy/src/hid/switch.h ****     void
  53:../../DaisyExamples/libDaisy/src/hid/switch.h ****     Init(dsy_gpio_pin pin, float update_rate, Type t, Polarity pol, Pull pu);
  54:../../DaisyExamples/libDaisy/src/hid/switch.h **** 
  55:../../DaisyExamples/libDaisy/src/hid/switch.h ****     /**
  56:../../DaisyExamples/libDaisy/src/hid/switch.h ****        Simplified Init.
  57:../../DaisyExamples/libDaisy/src/hid/switch.h ****        \param pin port/pin object to tell the switch which hardware pin to use.
  58:../../DaisyExamples/libDaisy/src/hid/switch.h ****        \param update_rate Left for backwards compatibility until next breaking change.
ARM GAS  /var/folders/hp/45mn71hd0ps5f5pnytxy5bt00000gn/T//ccaKukFC.s 			page 28


  59:../../DaisyExamples/libDaisy/src/hid/switch.h ****     */
  60:../../DaisyExamples/libDaisy/src/hid/switch.h ****     void Init(dsy_gpio_pin pin, float update_rate = 0.f);
  61:../../DaisyExamples/libDaisy/src/hid/switch.h **** 
  62:../../DaisyExamples/libDaisy/src/hid/switch.h ****     /** 
  63:../../DaisyExamples/libDaisy/src/hid/switch.h ****     Called at update_rate to debounce and handle timing for the switch.
  64:../../DaisyExamples/libDaisy/src/hid/switch.h ****     In order for events not to be missed, its important that the Edge/Pressed checks
  65:../../DaisyExamples/libDaisy/src/hid/switch.h ****     be made at the same rate as the debounce function is being called.
  66:../../DaisyExamples/libDaisy/src/hid/switch.h ****     */
  67:../../DaisyExamples/libDaisy/src/hid/switch.h ****     void Debounce();
  68:../../DaisyExamples/libDaisy/src/hid/switch.h **** 
  69:../../DaisyExamples/libDaisy/src/hid/switch.h ****     /** \return true if a button was just pressed. */
  70:../../DaisyExamples/libDaisy/src/hid/switch.h ****     inline bool RisingEdge() const { return updated_ ? state_ == 0x7f : false; }
 342              		.loc 9 70 17 view .LVU72
 343              	.LBB506:
 344              		.loc 9 70 38 view .LVU73
 345              		.loc 9 70 54 is_stmt 0 view .LVU74
 346 001a 94F8B430 		ldrb	r3, [r4, #180]	@ zero_extendqisi2
 347 001e 002B     		cmp	r3, #0
 348 0020 74D0     		beq	.L8
 349              	.LVL9:
 350              		.loc 9 70 54 view .LVU75
 351              	.LBE506:
 352              	.LBE505:
 353              		.loc 19 29 32 view .LVU76
 354 0022 94F8BA30 		ldrb	r3, [r4, #186]	@ zero_extendqisi2
 355 0026 7F2B     		cmp	r3, #127
 356 0028 70D1     		bne	.L8
 357 002a 624E     		ldr	r6, .L53+12
 358              	.L9:
  30:SynthV5.cpp   ****         ad.Trigger();
 359              		.loc 19 30 9 is_stmt 1 discriminator 5 view .LVU77
 360              	.LVL10:
 361              	.LBB507:
 362              	.LBI507:
  44:../../DaisyExamples/DaisySP/Source/Control/adenv.h ****     /** Initializes the ad envelope.
  45:../../DaisyExamples/DaisySP/Source/Control/adenv.h **** 
  46:../../DaisyExamples/DaisySP/Source/Control/adenv.h ****         Defaults:
  47:../../DaisyExamples/DaisySP/Source/Control/adenv.h ****             - current segment = idle
  48:../../DaisyExamples/DaisySP/Source/Control/adenv.h ****             - curve = linear
  49:../../DaisyExamples/DaisySP/Source/Control/adenv.h ****             - phase = 0
  50:../../DaisyExamples/DaisySP/Source/Control/adenv.h ****             - min = 0
  51:../../DaisyExamples/DaisySP/Source/Control/adenv.h ****             - max = 1
  52:../../DaisyExamples/DaisySP/Source/Control/adenv.h **** 
  53:../../DaisyExamples/DaisySP/Source/Control/adenv.h ****         \param sample_rate      sample rate of the audio engine being run
  54:../../DaisyExamples/DaisySP/Source/Control/adenv.h ****     */
  55:../../DaisyExamples/DaisySP/Source/Control/adenv.h ****     void Init(float sample_rate);
  56:../../DaisyExamples/DaisySP/Source/Control/adenv.h **** 
  57:../../DaisyExamples/DaisySP/Source/Control/adenv.h ****     /** Processes the current sample of the envelope. This should be called once
  58:../../DaisyExamples/DaisySP/Source/Control/adenv.h ****         per sample period.
  59:../../DaisyExamples/DaisySP/Source/Control/adenv.h ****         \return the current envelope value.
  60:../../DaisyExamples/DaisySP/Source/Control/adenv.h ****     */
  61:../../DaisyExamples/DaisySP/Source/Control/adenv.h ****     float Process();
  62:../../DaisyExamples/DaisySP/Source/Control/adenv.h **** 
  63:../../DaisyExamples/DaisySP/Source/Control/adenv.h ****     /** Starts or retriggers the envelope.*/
  64:../../DaisyExamples/DaisySP/Source/Control/adenv.h ****     inline void Trigger() { trigger_ = 1; }
 363              		.loc 16 64 17 discriminator 5 view .LVU78
 364              	.LBB508:
ARM GAS  /var/folders/hp/45mn71hd0ps5f5pnytxy5bt00000gn/T//ccaKukFC.s 			page 29


 365              		.loc 16 64 29 discriminator 5 view .LVU79
 366              		.loc 16 64 38 is_stmt 0 discriminator 5 view .LVU80
 367 002c 0123     		movs	r3, #1
 368 002e 86F83430 		strb	r3, [r6, #52]
 369              	.LVL11:
 370              	.L10:
 371              		.loc 16 64 38 discriminator 5 view .LVU81
 372              	.LBE508:
 373              	.LBE507:
  31:SynthV5.cpp   **** 
  32:SynthV5.cpp   ****     if(hw.button2.RisingEdge())
 374              		.loc 19 32 5 is_stmt 1 view .LVU82
 375              	.LBB509:
 376              	.LBI509:
 377              		.loc 9 70 17 view .LVU83
 378              	.LBB510:
 379              		.loc 9 70 38 view .LVU84
 380              		.loc 9 70 54 is_stmt 0 view .LVU85
 381 0032 94F8C430 		ldrb	r3, [r4, #196]	@ zero_extendqisi2
 382 0036 23B1     		cbz	r3, .L11
 383              	.LVL12:
 384              		.loc 9 70 54 view .LVU86
 385              	.LBE510:
 386              	.LBE509:
 387              		.loc 19 32 5 view .LVU87
 388 0038 94F8CA30 		ldrb	r3, [r4, #202]	@ zero_extendqisi2
 389 003c 7F2B     		cmp	r3, #127
 390 003e 00F09B80 		beq	.L49
 391              	.L11:
  33:SynthV5.cpp   ****         adCycle = !adCycle;
  34:SynthV5.cpp   **** 
  35:SynthV5.cpp   ****     adRelease = p_release.Process();
 392              		.loc 19 35 5 is_stmt 1 view .LVU88
 393              		.loc 19 35 34 is_stmt 0 view .LVU89
 394 0042 5D48     		ldr	r0, .L53+16
 395 0044 FFF7FEFF 		bl	_ZN5daisy9Parameter7ProcessEv
 396              	.LVL13:
 397              		.loc 19 35 15 view .LVU90
 398 0048 5C4A     		ldr	r2, .L53+20
 399              	.LBB511:
 400              	.LBB512:
  22:../../DaisyExamples/libDaisy/src/hid/encoder.h **** 
  23:../../DaisyExamples/libDaisy/src/hid/encoder.h ****     /** Initializes the encoder with the specified hardware pins.
  24:../../DaisyExamples/libDaisy/src/hid/encoder.h ****      * Update rate is to be deprecated in a future release
  25:../../DaisyExamples/libDaisy/src/hid/encoder.h ****      */
  26:../../DaisyExamples/libDaisy/src/hid/encoder.h ****     void Init(dsy_gpio_pin a,
  27:../../DaisyExamples/libDaisy/src/hid/encoder.h ****               dsy_gpio_pin b,
  28:../../DaisyExamples/libDaisy/src/hid/encoder.h ****               dsy_gpio_pin click,
  29:../../DaisyExamples/libDaisy/src/hid/encoder.h ****               float        update_rate = 0.f);
  30:../../DaisyExamples/libDaisy/src/hid/encoder.h ****     /** Called at update_rate to debounce and handle timing for the switch.
  31:../../DaisyExamples/libDaisy/src/hid/encoder.h ****      * In order for events not to be missed, its important that the Edge/Pressed checks be made at 
  32:../../DaisyExamples/libDaisy/src/hid/encoder.h ****      */
  33:../../DaisyExamples/libDaisy/src/hid/encoder.h ****     void Debounce();
  34:../../DaisyExamples/libDaisy/src/hid/encoder.h **** 
  35:../../DaisyExamples/libDaisy/src/hid/encoder.h ****     /** Returns +1 if the encoder was turned clockwise, -1 if it was turned counter-clockwise, or 0
  36:../../DaisyExamples/libDaisy/src/hid/encoder.h ****     inline int32_t Increment() const { return updated_ ? inc_ : 0; }
 401              		.loc 10 36 56 view .LVU91
ARM GAS  /var/folders/hp/45mn71hd0ps5f5pnytxy5bt00000gn/T//ccaKukFC.s 			page 30


 402 004a 94F84430 		ldrb	r3, [r4, #68]	@ zero_extendqisi2
 403              	.LBE512:
 404              	.LBE511:
 405              		.loc 19 35 15 view .LVU92
 406 004e 82ED000A 		vstr.32	s0, [r2]
  36:SynthV5.cpp   ****     
  37:SynthV5.cpp   ****     inc = hw.encoder.Increment();
 407              		.loc 19 37 5 is_stmt 1 view .LVU93
 408              	.LVL14:
 409              	.LBB514:
 410              	.LBI511:
 411              		.loc 10 36 20 view .LVU94
 412              	.LBB513:
 413              		.loc 10 36 40 view .LVU95
 414              		.loc 10 36 56 is_stmt 0 view .LVU96
 415 0052 002B     		cmp	r3, #0
 416 0054 63D1     		bne	.L12
 417              	.LVL15:
 418              	.L16:
 419              		.loc 10 36 56 view .LVU97
 420              	.LBE513:
 421              	.LBE514:
  38:SynthV5.cpp   ****     if(inc > 0)
  39:SynthV5.cpp   ****         volChange += 0.02;
  40:SynthV5.cpp   ****     else if(inc < 0)
  41:SynthV5.cpp   ****         volChange -= 0.02;
  42:SynthV5.cpp   **** 
  43:SynthV5.cpp   ****     if (volChange > 1)
 422              		.loc 19 43 19 view .LVU98
 423 0056 DFF87C81 		ldr	r8, .L53+44
 424 005a 98ED007A 		vldr.32	s14, [r8]
 425              	.L13:
 426              		.loc 19 43 5 is_stmt 1 view .LVU99
 427 005e F7EE007A 		vmov.f32	s15, #1.0e+0
 428 0062 B4EEE77A 		vcmpe.f32	s14, s15
 429 0066 F1EE10FA 		vmrs	APSR_nzcv, FPSCR
 430 006a 76DD     		ble	.L47
 431              	.L52:
  44:SynthV5.cpp   ****         volChange = 1;
 432              		.loc 19 44 9 view .LVU100
 433              		.loc 19 44 19 is_stmt 0 view .LVU101
 434 006c C8ED007A 		vstr.32	s15, [r8]
 435              	.L20:
  45:SynthV5.cpp   ****     else if(volChange < 0)
  46:SynthV5.cpp   ****         volChange = 0;
  47:SynthV5.cpp   **** 
  48:SynthV5.cpp   ****     if(hw.encoder.RisingEdge())
 436              		.loc 19 48 5 is_stmt 1 view .LVU102
 437              	.LVL16:
 438              	.LBB515:
 439              	.LBI515:
  37:../../DaisyExamples/libDaisy/src/hid/encoder.h **** 
  38:../../DaisyExamples/libDaisy/src/hid/encoder.h ****     /** Returns true if the encoder was just pressed. */
  39:../../DaisyExamples/libDaisy/src/hid/encoder.h ****     inline bool RisingEdge() const { return sw_.RisingEdge(); }
 440              		.loc 10 39 17 view .LVU103
 441              	.LBE515:
 442              		.loc 10 39 38 view .LVU104
ARM GAS  /var/folders/hp/45mn71hd0ps5f5pnytxy5bt00000gn/T//ccaKukFC.s 			page 31


 443              	.LBB518:
 444              	.LBB516:
 445              	.LBI516:
 446              		.loc 9 70 17 view .LVU105
 447              	.LBB517:
 448              		.loc 9 70 38 view .LVU106
 449              		.loc 9 70 54 is_stmt 0 view .LVU107
 450 0070 94F84C30 		ldrb	r3, [r4, #76]	@ zero_extendqisi2
 451 0074 1BB1     		cbz	r3, .L22
 452              	.LVL17:
 453              		.loc 9 70 54 view .LVU108
 454              	.LBE517:
 455              	.LBE516:
 456              	.LBE518:
 457              		.loc 19 48 5 view .LVU109
 458 0076 94F85230 		ldrb	r3, [r4, #82]	@ zero_extendqisi2
 459 007a 7F2B     		cmp	r3, #127
 460 007c 76D0     		beq	.L50
 461              	.L22:
 462              	.LVL18:
 463              	.LBB519:
  49:SynthV5.cpp   ****         isVolumeOn = !isVolumeOn;
  50:SynthV5.cpp   ****     
  51:SynthV5.cpp   ****     for(size_t i = 0; i < size; i += 2)
 464              		.loc 19 51 25 is_stmt 1 discriminator 3 view .LVU110
 465 007e 002D     		cmp	r5, #0
 466 0080 40D0     		beq	.L7
 467 0082 013D     		subs	r5, r5, #1
 468              	.LVL19:
 469              		.loc 19 51 25 is_stmt 0 view .LVU111
 470 0084 4FF00009 		mov	r9, #0
 471 0088 4A4E     		ldr	r6, .L53+12
 472 008a 6D08     		lsrs	r5, r5, #1
 473              	.LVL20:
 474              		.loc 19 51 25 view .LVU112
 475 008c 4C4F     		ldr	r7, .L53+24
 476 008e DFF848A1 		ldr	r10, .L53+48
 477 0092 4C4C     		ldr	r4, .L53+28
 478 0094 02E0     		b	.L24
 479              	.LVL21:
 480              	.L51:
 481              	.LBB520:
  52:SynthV5.cpp   ****     {
  53:SynthV5.cpp   ****         float sig;
  54:SynthV5.cpp   ****         float adOut;
  55:SynthV5.cpp   **** 
  56:SynthV5.cpp   ****         ad.SetTime(ADENV_SEG_DECAY, adRelease);
 482              		.loc 19 56 19 view .LVU113
 483 0096 494B     		ldr	r3, .L53+20
 484 0098 93ED000A 		vldr.32	s0, [r3]
 485              	.LVL22:
 486              	.L24:
  53:SynthV5.cpp   ****         float adOut;
 487              		.loc 19 53 9 is_stmt 1 discriminator 2 view .LVU114
  54:SynthV5.cpp   **** 
 488              		.loc 19 54 9 discriminator 2 view .LVU115
 489              		.loc 19 56 9 discriminator 2 view .LVU116
ARM GAS  /var/folders/hp/45mn71hd0ps5f5pnytxy5bt00000gn/T//ccaKukFC.s 			page 32


 490              	.LBB521:
 491              	.LBI521:
  65:../../DaisyExamples/DaisySP/Source/Control/adenv.h ****     /** Sets the length of time (in seconds) for a specific segment. */
  66:../../DaisyExamples/DaisySP/Source/Control/adenv.h ****     inline void SetTime(uint8_t seg, float time) { segment_time_[seg] = time; }
 492              		.loc 16 66 17 discriminator 2 view .LVU117
 493              	.LBB522:
 494              		.loc 16 66 52 discriminator 2 view .LVU118
 495              	.LBE522:
 496              	.LBE521:
  57:SynthV5.cpp   ****         adOut = ad.Process();
 497              		.loc 19 57 27 is_stmt 0 discriminator 2 view .LVU119
 498 009c 4548     		ldr	r0, .L53+12
 499              	.LBE520:
  51:SynthV5.cpp   ****     {
 500              		.loc 19 51 25 discriminator 2 view .LVU120
 501 009e 0BF1080B 		add	fp, fp, #8
 502              	.LBB531:
 503              	.LBB524:
 504              	.LBB523:
 505              		.loc 16 66 71 discriminator 2 view .LVU121
 506 00a2 86ED030A 		vstr.32	s0, [r6, #12]
 507              	.LVL23:
 508              		.loc 16 66 71 discriminator 2 view .LVU122
 509              	.LBE523:
 510              	.LBE524:
 511              		.loc 19 57 9 is_stmt 1 discriminator 2 view .LVU123
 512              		.loc 19 57 27 is_stmt 0 discriminator 2 view .LVU124
 513 00a6 FFF7FEFF 		bl	_ZN7daisysp5AdEnv7ProcessEv
 514              	.LVL24:
  58:SynthV5.cpp   ****         totalFreq = midiFreq + (midiFreq * tuning.Process());
 515              		.loc 19 58 58 discriminator 2 view .LVU125
 516 00aa 4748     		ldr	r0, .L53+32
  57:SynthV5.cpp   ****         adOut = ad.Process();
 517              		.loc 19 57 27 discriminator 2 view .LVU126
 518 00ac B0EE408A 		vmov.f32	s16, s0
 519              	.LVL25:
 520              		.loc 19 58 9 is_stmt 1 discriminator 2 view .LVU127
 521              		.loc 19 58 58 is_stmt 0 discriminator 2 view .LVU128
 522 00b0 FFF7FEFF 		bl	_ZN5daisy9Parameter7ProcessEv
 523              	.LVL26:
 524              		.loc 19 58 42 discriminator 2 view .LVU129
 525 00b4 DAED007A 		vldr.32	s15, [r10]
 526              		.loc 19 58 19 discriminator 2 view .LVU130
 527 00b8 444B     		ldr	r3, .L53+36
 528              		.loc 19 58 30 discriminator 2 view .LVU131
 529 00ba E0EE277A 		vfma.f32	s15, s0, s15
 530              	.LBB525:
 531              	.LBB526:
  25:../../DaisyExamples/DaisySP/Source/Synthesis/oscillator.h ****     /** Choices for output waveforms, POLYBLEP are appropriately labeled. Others are naive forms.
  26:../../DaisyExamples/DaisySP/Source/Synthesis/oscillator.h ****     */
  27:../../DaisyExamples/DaisySP/Source/Synthesis/oscillator.h ****     enum
  28:../../DaisyExamples/DaisySP/Source/Synthesis/oscillator.h ****     {
  29:../../DaisyExamples/DaisySP/Source/Synthesis/oscillator.h ****         WAVE_SIN,
  30:../../DaisyExamples/DaisySP/Source/Synthesis/oscillator.h ****         WAVE_TRI,
  31:../../DaisyExamples/DaisySP/Source/Synthesis/oscillator.h ****         WAVE_SAW,
  32:../../DaisyExamples/DaisySP/Source/Synthesis/oscillator.h ****         WAVE_RAMP,
  33:../../DaisyExamples/DaisySP/Source/Synthesis/oscillator.h ****         WAVE_SQUARE,
ARM GAS  /var/folders/hp/45mn71hd0ps5f5pnytxy5bt00000gn/T//ccaKukFC.s 			page 33


  34:../../DaisyExamples/DaisySP/Source/Synthesis/oscillator.h ****         WAVE_POLYBLEP_TRI,
  35:../../DaisyExamples/DaisySP/Source/Synthesis/oscillator.h ****         WAVE_POLYBLEP_SAW,
  36:../../DaisyExamples/DaisySP/Source/Synthesis/oscillator.h ****         WAVE_POLYBLEP_SQUARE,
  37:../../DaisyExamples/DaisySP/Source/Synthesis/oscillator.h ****         WAVE_LAST,
  38:../../DaisyExamples/DaisySP/Source/Synthesis/oscillator.h ****     };
  39:../../DaisyExamples/DaisySP/Source/Synthesis/oscillator.h **** 
  40:../../DaisyExamples/DaisySP/Source/Synthesis/oscillator.h **** 
  41:../../DaisyExamples/DaisySP/Source/Synthesis/oscillator.h ****     /** Initializes the Oscillator
  42:../../DaisyExamples/DaisySP/Source/Synthesis/oscillator.h **** 
  43:../../DaisyExamples/DaisySP/Source/Synthesis/oscillator.h ****         \param sample_rate - sample rate of the audio engine being run, and the frequency that the 
  44:../../DaisyExamples/DaisySP/Source/Synthesis/oscillator.h **** 
  45:../../DaisyExamples/DaisySP/Source/Synthesis/oscillator.h ****         Defaults:
  46:../../DaisyExamples/DaisySP/Source/Synthesis/oscillator.h ****         - freq_ = 100 Hz
  47:../../DaisyExamples/DaisySP/Source/Synthesis/oscillator.h ****         - amp_ = 0.5
  48:../../DaisyExamples/DaisySP/Source/Synthesis/oscillator.h ****         - waveform_ = sine wave.
  49:../../DaisyExamples/DaisySP/Source/Synthesis/oscillator.h ****     */
  50:../../DaisyExamples/DaisySP/Source/Synthesis/oscillator.h ****     void Init(float sample_rate)
  51:../../DaisyExamples/DaisySP/Source/Synthesis/oscillator.h ****     {
  52:../../DaisyExamples/DaisySP/Source/Synthesis/oscillator.h ****         sr_        = sample_rate;
  53:../../DaisyExamples/DaisySP/Source/Synthesis/oscillator.h ****         sr_recip_  = 1.0f / sample_rate;
  54:../../DaisyExamples/DaisySP/Source/Synthesis/oscillator.h ****         freq_      = 100.0f;
  55:../../DaisyExamples/DaisySP/Source/Synthesis/oscillator.h ****         amp_       = 0.5f;
  56:../../DaisyExamples/DaisySP/Source/Synthesis/oscillator.h ****         pw_        = 0.5f;
  57:../../DaisyExamples/DaisySP/Source/Synthesis/oscillator.h ****         phase_     = 0.0f;
  58:../../DaisyExamples/DaisySP/Source/Synthesis/oscillator.h ****         phase_inc_ = CalcPhaseInc(freq_);
  59:../../DaisyExamples/DaisySP/Source/Synthesis/oscillator.h ****         waveform_  = WAVE_SIN;
  60:../../DaisyExamples/DaisySP/Source/Synthesis/oscillator.h ****         eoc_       = true;
  61:../../DaisyExamples/DaisySP/Source/Synthesis/oscillator.h ****         eor_       = true;
  62:../../DaisyExamples/DaisySP/Source/Synthesis/oscillator.h ****     }
  63:../../DaisyExamples/DaisySP/Source/Synthesis/oscillator.h **** 
  64:../../DaisyExamples/DaisySP/Source/Synthesis/oscillator.h **** 
  65:../../DaisyExamples/DaisySP/Source/Synthesis/oscillator.h ****     /** Changes the frequency of the Oscillator, and recalculates phase increment.
  66:../../DaisyExamples/DaisySP/Source/Synthesis/oscillator.h ****     */
  67:../../DaisyExamples/DaisySP/Source/Synthesis/oscillator.h ****     inline void SetFreq(const float f)
  68:../../DaisyExamples/DaisySP/Source/Synthesis/oscillator.h ****     {
  69:../../DaisyExamples/DaisySP/Source/Synthesis/oscillator.h ****         freq_      = f;
  70:../../DaisyExamples/DaisySP/Source/Synthesis/oscillator.h ****         phase_inc_ = CalcPhaseInc(f);
 532              		.loc 17 70 34 discriminator 2 view .LVU132
 533 00be 4148     		ldr	r0, .L53+28
 534 00c0 B0EE670A 		vmov.f32	s0, s15
 535              	.LBE526:
 536              	.LBE525:
 537              		.loc 19 58 19 discriminator 2 view .LVU133
 538 00c4 C3ED007A 		vstr.32	s15, [r3]
  59:SynthV5.cpp   ****         osc.SetFreq(totalFreq);
 539              		.loc 19 59 9 is_stmt 1 discriminator 2 view .LVU134
 540              	.LVL27:
 541              	.LBB529:
 542              	.LBI525:
  67:../../DaisyExamples/DaisySP/Source/Synthesis/oscillator.h ****     {
 543              		.loc 17 67 17 discriminator 2 view .LVU135
 544              	.LBB527:
  69:../../DaisyExamples/DaisySP/Source/Synthesis/oscillator.h ****         phase_inc_ = CalcPhaseInc(f);
 545              		.loc 17 69 9 discriminator 2 view .LVU136
  69:../../DaisyExamples/DaisySP/Source/Synthesis/oscillator.h ****         phase_inc_ = CalcPhaseInc(f);
 546              		.loc 17 69 20 is_stmt 0 discriminator 2 view .LVU137
 547 00c8 C4ED027A 		vstr.32	s15, [r4, #8]
ARM GAS  /var/folders/hp/45mn71hd0ps5f5pnytxy5bt00000gn/T//ccaKukFC.s 			page 34


 548              		.loc 17 70 9 is_stmt 1 discriminator 2 view .LVU138
 549              		.loc 17 70 34 is_stmt 0 discriminator 2 view .LVU139
 550 00cc FFF7FEFF 		bl	_ZN7daisysp10Oscillator12CalcPhaseIncEf
 551              	.LVL28:
 552              		.loc 17 70 34 discriminator 2 view .LVU140
 553              	.LBE527:
 554              	.LBE529:
  60:SynthV5.cpp   ****         sig = osc.Process();
 555              		.loc 19 60 26 discriminator 2 view .LVU141
 556 00d0 3C48     		ldr	r0, .L53+28
 557              	.LBB530:
 558              	.LBB528:
 559              		.loc 17 70 20 discriminator 2 view .LVU142
 560 00d2 84ED070A 		vstr.32	s0, [r4, #28]
 561              	.LVL29:
 562              		.loc 17 70 20 discriminator 2 view .LVU143
 563              	.LBE528:
 564              	.LBE530:
 565              		.loc 19 60 9 is_stmt 1 discriminator 2 view .LVU144
 566              		.loc 19 60 26 is_stmt 0 discriminator 2 view .LVU145
 567 00d6 FFF7FEFF 		bl	_ZN7daisysp10Oscillator7ProcessEv
 568              	.LVL30:
  61:SynthV5.cpp   ****         sig *= adOut;
 569              		.loc 19 61 9 is_stmt 1 discriminator 2 view .LVU146
  62:SynthV5.cpp   ****         sig *= volChange;
  63:SynthV5.cpp   ****         sig *= isVolumeOn;
 570              		.loc 19 63 13 is_stmt 0 discriminator 2 view .LVU147
 571 00da 3B78     		ldrb	r3, [r7]	@ zero_extendqisi2
  61:SynthV5.cpp   ****         sig *= adOut;
 572              		.loc 19 61 13 discriminator 2 view .LVU148
 573 00dc 28EE000A 		vmul.f32	s0, s16, s0
 574              	.LVL31:
  62:SynthV5.cpp   ****         sig *= volChange;
 575              		.loc 19 62 9 is_stmt 1 discriminator 2 view .LVU149
  62:SynthV5.cpp   ****         sig *= volChange;
 576              		.loc 19 62 13 is_stmt 0 discriminator 2 view .LVU150
 577 00e0 D8ED007A 		vldr.32	s15, [r8]
 578              	.LBE531:
  51:SynthV5.cpp   ****     {
 579              		.loc 19 51 25 discriminator 2 view .LVU151
 580 00e4 A945     		cmp	r9, r5
 581              	.LBB532:
 582              		.loc 19 63 13 discriminator 2 view .LVU152
 583 00e6 07EE103A 		vmov	s14, r3	@ int
 584 00ea 09F10109 		add	r9, r9, #1
 585              	.LVL32:
  62:SynthV5.cpp   ****         sig *= volChange;
 586              		.loc 19 62 13 discriminator 2 view .LVU153
 587 00ee 20EE270A 		vmul.f32	s0, s0, s15
 588              	.LVL33:
 589              		.loc 19 63 9 is_stmt 1 discriminator 2 view .LVU154
 590              		.loc 19 63 13 is_stmt 0 discriminator 2 view .LVU155
 591 00f2 B8EEC78A 		vcvt.f32.s32	s16, s14
 592              	.LVL34:
 593              		.loc 19 63 13 discriminator 2 view .LVU156
 594 00f6 28EE000A 		vmul.f32	s0, s16, s0
 595              	.LVL35:
ARM GAS  /var/folders/hp/45mn71hd0ps5f5pnytxy5bt00000gn/T//ccaKukFC.s 			page 35


  64:SynthV5.cpp   ****         out[i] = sig;
 596              		.loc 19 64 9 is_stmt 1 discriminator 2 view .LVU157
 597              		.loc 19 64 16 is_stmt 0 discriminator 2 view .LVU158
 598 00fa 0BED020A 		vstr.32	s0, [fp, #-8]
  65:SynthV5.cpp   ****         out[i + 1] = sig;
 599              		.loc 19 65 9 is_stmt 1 discriminator 2 view .LVU159
 600              		.loc 19 65 20 is_stmt 0 discriminator 2 view .LVU160
 601 00fe 0BED010A 		vstr.32	s0, [fp, #-4]
 602              	.LBE532:
  51:SynthV5.cpp   ****     {
 603              		.loc 19 51 5 is_stmt 1 discriminator 2 view .LVU161
 604              	.LVL36:
  51:SynthV5.cpp   ****     {
 605              		.loc 19 51 25 discriminator 2 view .LVU162
 606 0102 C8D1     		bne	.L51
 607              	.LVL37:
 608              	.L7:
  51:SynthV5.cpp   ****     {
 609              		.loc 19 51 25 is_stmt 0 discriminator 2 view .LVU163
 610              	.LBE519:
  66:SynthV5.cpp   ****     }
  67:SynthV5.cpp   **** }
 611              		.loc 19 67 1 view .LVU164
 612 0104 BDEC028B 		vldm	sp!, {d8}
 613              		.cfi_remember_state
 614              		.cfi_restore 80
 615              		.cfi_restore 81
 616              		.cfi_def_cfa_offset 40
 617 0108 BDE8F88F 		pop	{r3, r4, r5, r6, r7, r8, r9, r10, fp, pc}
 618              	.LVL38:
 619              	.L8:
 620              		.cfi_restore_state
  29:SynthV5.cpp   ****         ad.Trigger();
 621              		.loc 19 29 32 discriminator 2 view .LVU165
 622 010c 304B     		ldr	r3, .L53+40
 623 010e 1B78     		ldrb	r3, [r3]	@ zero_extendqisi2
 624 0110 002B     		cmp	r3, #0
 625 0112 8ED0     		beq	.L10
 626              	.LVL39:
 627              	.LBB533:
 628              	.LBI533:
  67:../../DaisyExamples/DaisySP/Source/Control/adenv.h ****     /** Sets the amount of curve applied. A positve value will create a log
  68:../../DaisyExamples/DaisySP/Source/Control/adenv.h ****         curve. Input range: -100 to 100.  (or more)
  69:../../DaisyExamples/DaisySP/Source/Control/adenv.h ****     */
  70:../../DaisyExamples/DaisySP/Source/Control/adenv.h ****     inline void SetCurve(float scalar) { curve_scalar_ = scalar; }
  71:../../DaisyExamples/DaisySP/Source/Control/adenv.h ****     /** Sets the minimum value of the envelope output.
  72:../../DaisyExamples/DaisySP/Source/Control/adenv.h ****         Input range: -FLTmax_, to FLTmax_
  73:../../DaisyExamples/DaisySP/Source/Control/adenv.h ****     */
  74:../../DaisyExamples/DaisySP/Source/Control/adenv.h ****     inline void SetMin(float min) { min_ = min; }
  75:../../DaisyExamples/DaisySP/Source/Control/adenv.h ****     /** Sets the maximum value of the envelope output.
  76:../../DaisyExamples/DaisySP/Source/Control/adenv.h ****         Input range: -FLTmax_, to FLTmax_
  77:../../DaisyExamples/DaisySP/Source/Control/adenv.h ****     */
  78:../../DaisyExamples/DaisySP/Source/Control/adenv.h ****     inline void SetMax(float max) { max_ = max; }
  79:../../DaisyExamples/DaisySP/Source/Control/adenv.h ****     /** Returns the current output value without processing the next sample */
  80:../../DaisyExamples/DaisySP/Source/Control/adenv.h ****     inline float GetValue() const { return (output_ * (max_ - min_)) + min_; }
  81:../../DaisyExamples/DaisySP/Source/Control/adenv.h ****     /** Returns the segment of the envelope that the phase is currently located
  82:../../DaisyExamples/DaisySP/Source/Control/adenv.h ****         in.
ARM GAS  /var/folders/hp/45mn71hd0ps5f5pnytxy5bt00000gn/T//ccaKukFC.s 			page 36


  83:../../DaisyExamples/DaisySP/Source/Control/adenv.h ****     */
  84:../../DaisyExamples/DaisySP/Source/Control/adenv.h ****     inline uint8_t GetCurrentSegment() { return current_segment_; }
  85:../../DaisyExamples/DaisySP/Source/Control/adenv.h ****     /** Returns true if the envelope is currently in any stage apart from idle.
  86:../../DaisyExamples/DaisySP/Source/Control/adenv.h ****     */
  87:../../DaisyExamples/DaisySP/Source/Control/adenv.h ****     inline bool IsRunning() const { return current_segment_ != ADENV_SEG_IDLE; }
 629              		.loc 16 87 17 is_stmt 1 view .LVU166
 630              	.LBB534:
 631              		.loc 16 87 37 view .LVU167
 632              		.loc 16 87 44 is_stmt 0 view .LVU168
 633 0114 274E     		ldr	r6, .L53+12
 634              	.LBE534:
 635              	.LBE533:
  29:SynthV5.cpp   ****         ad.Trigger();
 636              		.loc 19 29 44 view .LVU169
 637 0116 3378     		ldrb	r3, [r6]	@ zero_extendqisi2
 638 0118 002B     		cmp	r3, #0
 639 011a 8AD1     		bne	.L10
 640 011c 86E7     		b	.L9
 641              	.LVL40:
 642              	.L12:
  37:SynthV5.cpp   ****     if(inc > 0)
 643              		.loc 19 37 9 view .LVU170
 644 011e D4ED197A 		vldr.32	s15, [r4, #100]	@ int
 645 0122 F8EEE77A 		vcvt.f32.s32	s15, s15
  38:SynthV5.cpp   ****         volChange += 0.02;
 646              		.loc 19 38 5 is_stmt 1 view .LVU171
 647 0126 F5EEC07A 		vcmpe.f32	s15, #0
 648 012a F1EE10FA 		vmrs	APSR_nzcv, FPSCR
 649 012e 29DD     		ble	.L46
  39:SynthV5.cpp   ****     else if(inc < 0)
 650              		.loc 19 39 9 view .LVU172
  39:SynthV5.cpp   ****     else if(inc < 0)
 651              		.loc 19 39 19 is_stmt 0 view .LVU173
 652 0130 DFF8A080 		ldr	r8, .L53+44
 653 0134 98ED007A 		vldr.32	s14, [r8]
 654 0138 9FED1B6B 		vldr.64	d6, .L53
 655 013c B7EEC77A 		vcvt.f64.f32	d7, s14
 656 0140 37EE067B 		vadd.f64	d7, d7, d6
 657 0144 B7EEC77B 		vcvt.f32.f64	s14, d7
  43:SynthV5.cpp   ****         volChange = 1;
 658              		.loc 19 43 5 view .LVU174
 659 0148 F7EE007A 		vmov.f32	s15, #1.0e+0
  39:SynthV5.cpp   ****     else if(inc < 0)
 660              		.loc 19 39 19 view .LVU175
 661 014c 88ED007A 		vstr.32	s14, [r8]
  43:SynthV5.cpp   ****         volChange = 1;
 662              		.loc 19 43 5 is_stmt 1 view .LVU176
 663 0150 B4EEE77A 		vcmpe.f32	s14, s15
 664 0154 F1EE10FA 		vmrs	APSR_nzcv, FPSCR
 665 0158 88DC     		bgt	.L52
 666              	.L47:
  45:SynthV5.cpp   ****         volChange = 0;
 667              		.loc 19 45 10 view .LVU177
 668 015a B5EEC07A 		vcmpe.f32	s14, #0
 669 015e 0023     		movs	r3, #0
 670 0160 F1EE10FA 		vmrs	APSR_nzcv, FPSCR
  46:SynthV5.cpp   **** 
ARM GAS  /var/folders/hp/45mn71hd0ps5f5pnytxy5bt00000gn/T//ccaKukFC.s 			page 37


 671              		.loc 19 46 9 view .LVU178
  46:SynthV5.cpp   **** 
 672              		.loc 19 46 19 is_stmt 0 view .LVU179
 673 0164 48BF     		it	mi
 674 0166 C8F80030 		strmi	r3, [r8]	@ float
 675 016a 81E7     		b	.L20
 676              	.L50:
  49:SynthV5.cpp   ****     
 677              		.loc 19 49 9 is_stmt 1 view .LVU180
  49:SynthV5.cpp   ****     
 678              		.loc 19 49 20 is_stmt 0 view .LVU181
 679 016c 144F     		ldr	r7, .L53+24
  49:SynthV5.cpp   ****     
 680              		.loc 19 49 22 view .LVU182
 681 016e 3B78     		ldrb	r3, [r7]	@ zero_extendqisi2
 682 0170 83F00103 		eor	r3, r3, #1
  49:SynthV5.cpp   ****     
 683              		.loc 19 49 20 view .LVU183
 684 0174 3B70     		strb	r3, [r7]
 685 0176 82E7     		b	.L22
 686              	.L49:
  33:SynthV5.cpp   **** 
 687              		.loc 19 33 9 is_stmt 1 view .LVU184
  33:SynthV5.cpp   **** 
 688              		.loc 19 33 17 is_stmt 0 view .LVU185
 689 0178 154A     		ldr	r2, .L53+40
  33:SynthV5.cpp   **** 
 690              		.loc 19 33 19 view .LVU186
 691 017a 1378     		ldrb	r3, [r2]	@ zero_extendqisi2
 692 017c 83F00103 		eor	r3, r3, #1
  33:SynthV5.cpp   **** 
 693              		.loc 19 33 17 view .LVU187
 694 0180 1370     		strb	r3, [r2]
 695 0182 5EE7     		b	.L11
 696              	.L46:
  40:SynthV5.cpp   ****         volChange -= 0.02;
 697              		.loc 19 40 10 is_stmt 1 view .LVU188
 698 0184 7FF567AF 		bpl	.L16
  41:SynthV5.cpp   **** 
 699              		.loc 19 41 9 view .LVU189
  41:SynthV5.cpp   **** 
 700              		.loc 19 41 19 is_stmt 0 view .LVU190
 701 0188 DFF84880 		ldr	r8, .L53+44
 702 018c 98ED007A 		vldr.32	s14, [r8]
 703 0190 9FED056B 		vldr.64	d6, .L53
 704 0194 B7EEC77A 		vcvt.f64.f32	d7, s14
 705 0198 37EE467B 		vsub.f64	d7, d7, d6
 706 019c B7EEC77B 		vcvt.f32.f64	s14, d7
 707 01a0 88ED007A 		vstr.32	s14, [r8]
 708 01a4 5BE7     		b	.L13
 709              	.L54:
 710 01a6 00BF     		.align	3
 711              	.L53:
 712 01a8 7B14AE47 		.word	1202590843
 713 01ac E17A943F 		.word	1066695393
 714 01b0 00000000 		.word	_ZL2hw
 715 01b4 00000000 		.word	.LANCHOR1
ARM GAS  /var/folders/hp/45mn71hd0ps5f5pnytxy5bt00000gn/T//ccaKukFC.s 			page 38


 716 01b8 00000000 		.word	.LANCHOR2
 717 01bc 00000000 		.word	.LANCHOR3
 718 01c0 00000000 		.word	.LANCHOR5
 719 01c4 00000000 		.word	.LANCHOR9
 720 01c8 00000000 		.word	.LANCHOR6
 721 01cc 00000000 		.word	.LANCHOR8
 722 01d0 00000000 		.word	.LANCHOR0
 723 01d4 00000000 		.word	.LANCHOR4
 724 01d8 00000000 		.word	.LANCHOR7
 725              		.cfi_endproc
 726              	.LFE4854:
 728              		.section	.text._ZN5daisy17MidiUartTransport10rxCallbackEPhjPvNS_11UartHandler6ResultE,"axG",%progb
 729              		.align	1
 730              		.p2align 2,,3
 731              		.weak	_ZN5daisy17MidiUartTransport10rxCallbackEPhjPvNS_11UartHandler6ResultE
 732              		.syntax unified
 733              		.thumb
 734              		.thumb_func
 736              	_ZN5daisy17MidiUartTransport10rxCallbackEPhjPvNS_11UartHandler6ResultE:
 737              	.LVL41:
 738              	.LFB1625:
 124:../../DaisyExamples/libDaisy/src/hid/midi.h ****                            size_t              size,
 739              		.loc 4 124 17 is_stmt 1 view -0
 740              		.cfi_startproc
 741              		@ args = 0, pretend = 0, frame = 0
 742              		@ frame_needed = 0, uses_anonymous_args = 0
 743              		@ link register save eliminated.
 130:../../DaisyExamples/libDaisy/src/hid/midi.h ****             = reinterpret_cast<MidiUartTransport*>(context);
 744              		.loc 4 130 9 view .LVU192
 132:../../DaisyExamples/libDaisy/src/hid/midi.h ****         {
 745              		.loc 4 132 9 view .LVU193
 746 0000 1BB9     		cbnz	r3, .L55
 747              	.LVL42:
 748              	.LBB537:
 749              	.LBI537:
 124:../../DaisyExamples/libDaisy/src/hid/midi.h ****                            size_t              size,
 750              		.loc 4 124 17 view .LVU194
 751              	.LBB538:
 134:../../DaisyExamples/libDaisy/src/hid/midi.h ****             {
 752              		.loc 4 134 13 view .LVU195
 134:../../DaisyExamples/libDaisy/src/hid/midi.h ****             {
 753              		.loc 4 134 27 is_stmt 0 view .LVU196
 754 0002 1369     		ldr	r3, [r2, #16]
 755              	.LVL43:
 134:../../DaisyExamples/libDaisy/src/hid/midi.h ****             {
 756              		.loc 4 134 13 view .LVU197
 757 0004 0BB1     		cbz	r3, .L55
 136:../../DaisyExamples/libDaisy/src/hid/midi.h ****                     data, size, transport->parse_context_);
 758              		.loc 4 136 17 is_stmt 1 view .LVU198
 136:../../DaisyExamples/libDaisy/src/hid/midi.h ****                     data, size, transport->parse_context_);
 759              		.loc 4 136 43 is_stmt 0 view .LVU199
 760 0006 D268     		ldr	r2, [r2, #12]
 761              	.LVL44:
 136:../../DaisyExamples/libDaisy/src/hid/midi.h ****                     data, size, transport->parse_context_);
 762              		.loc 4 136 43 view .LVU200
 763 0008 1847     		bx	r3	@ indirect register sibling call
 764              	.LVL45:
ARM GAS  /var/folders/hp/45mn71hd0ps5f5pnytxy5bt00000gn/T//ccaKukFC.s 			page 39


 765              	.L55:
 136:../../DaisyExamples/libDaisy/src/hid/midi.h ****                     data, size, transport->parse_context_);
 766              		.loc 4 136 43 view .LVU201
 767              	.LBE538:
 768              	.LBE537:
 140:../../DaisyExamples/libDaisy/src/hid/midi.h **** };
 769              		.loc 4 140 5 view .LVU202
 770 000a 7047     		bx	lr
 771              		.cfi_endproc
 772              	.LFE1625:
 774              		.section	.text._ZN5daisy11MidiHandlerINS_17MidiUartTransportEE13ParseCallbackEPhjPv,"axG",%progbit
 775              		.align	1
 776              		.p2align 2,,3
 777              		.weak	_ZN5daisy11MidiHandlerINS_17MidiUartTransportEE13ParseCallbackEPhjPv
 778              		.syntax unified
 779              		.thumb
 780              		.thumb_func
 782              	_ZN5daisy11MidiHandlerINS_17MidiUartTransportEE13ParseCallbackEPhjPv:
 783              	.LVL46:
 784              	.LFB5308:
 157:../../DaisyExamples/libDaisy/src/hid/midi.h **** 
 158:../../DaisyExamples/libDaisy/src/hid/midi.h ****     struct Config
 159:../../DaisyExamples/libDaisy/src/hid/midi.h ****     {
 160:../../DaisyExamples/libDaisy/src/hid/midi.h ****         typename Transport::Config transport_config;
 161:../../DaisyExamples/libDaisy/src/hid/midi.h ****     };
 162:../../DaisyExamples/libDaisy/src/hid/midi.h **** 
 163:../../DaisyExamples/libDaisy/src/hid/midi.h ****     /** Initializes the MidiHandler
 164:../../DaisyExamples/libDaisy/src/hid/midi.h ****      *  \param config Configuration structure used to define specifics to the MIDI Handler.
 165:../../DaisyExamples/libDaisy/src/hid/midi.h ****      */
 166:../../DaisyExamples/libDaisy/src/hid/midi.h ****     void Init(Config config)
 167:../../DaisyExamples/libDaisy/src/hid/midi.h ****     {
 168:../../DaisyExamples/libDaisy/src/hid/midi.h ****         config_ = config;
 169:../../DaisyExamples/libDaisy/src/hid/midi.h ****         transport_.Init(config_.transport_config);
 170:../../DaisyExamples/libDaisy/src/hid/midi.h ****         parser_.Init();
 171:../../DaisyExamples/libDaisy/src/hid/midi.h ****     }
 172:../../DaisyExamples/libDaisy/src/hid/midi.h **** 
 173:../../DaisyExamples/libDaisy/src/hid/midi.h ****     /** Starts listening on the selected input mode(s).
 174:../../DaisyExamples/libDaisy/src/hid/midi.h ****      * MidiEvent Queue will begin to fill, and can be checked with HasEvents() */
 175:../../DaisyExamples/libDaisy/src/hid/midi.h ****     void StartReceive()
 176:../../DaisyExamples/libDaisy/src/hid/midi.h ****     {
 177:../../DaisyExamples/libDaisy/src/hid/midi.h ****         transport_.StartRx(MidiHandler::ParseCallback, this);
 178:../../DaisyExamples/libDaisy/src/hid/midi.h ****     }
 179:../../DaisyExamples/libDaisy/src/hid/midi.h **** 
 180:../../DaisyExamples/libDaisy/src/hid/midi.h ****     /** Start listening */
 181:../../DaisyExamples/libDaisy/src/hid/midi.h ****     void Listen()
 182:../../DaisyExamples/libDaisy/src/hid/midi.h ****     {
 183:../../DaisyExamples/libDaisy/src/hid/midi.h ****         // In case of UART Error, (particularly
 184:../../DaisyExamples/libDaisy/src/hid/midi.h ****         //  overrun error), UART disables itself.
 185:../../DaisyExamples/libDaisy/src/hid/midi.h ****         // Flush the buff, and restart.
 186:../../DaisyExamples/libDaisy/src/hid/midi.h ****         if(!transport_.RxActive())
 187:../../DaisyExamples/libDaisy/src/hid/midi.h ****         {
 188:../../DaisyExamples/libDaisy/src/hid/midi.h ****             parser_.Reset();
 189:../../DaisyExamples/libDaisy/src/hid/midi.h ****             transport_.FlushRx();
 190:../../DaisyExamples/libDaisy/src/hid/midi.h ****             StartReceive();
 191:../../DaisyExamples/libDaisy/src/hid/midi.h ****         }
 192:../../DaisyExamples/libDaisy/src/hid/midi.h ****     }
 193:../../DaisyExamples/libDaisy/src/hid/midi.h **** 
ARM GAS  /var/folders/hp/45mn71hd0ps5f5pnytxy5bt00000gn/T//ccaKukFC.s 			page 40


 194:../../DaisyExamples/libDaisy/src/hid/midi.h ****     /** Checks if there are unhandled messages in the queue
 195:../../DaisyExamples/libDaisy/src/hid/midi.h ****     \return True if there are events to be handled, else false.
 196:../../DaisyExamples/libDaisy/src/hid/midi.h ****      */
 197:../../DaisyExamples/libDaisy/src/hid/midi.h ****     bool HasEvents() const { return event_q_.GetNumElements() > 0; }
 198:../../DaisyExamples/libDaisy/src/hid/midi.h **** 
 199:../../DaisyExamples/libDaisy/src/hid/midi.h **** 
 200:../../DaisyExamples/libDaisy/src/hid/midi.h ****     /** Pops the oldest unhandled MidiEvent from the internal queue
 201:../../DaisyExamples/libDaisy/src/hid/midi.h ****     \return The event to be handled
 202:../../DaisyExamples/libDaisy/src/hid/midi.h ****      */
 203:../../DaisyExamples/libDaisy/src/hid/midi.h ****     MidiEvent PopEvent() { return event_q_.PopFront(); }
 204:../../DaisyExamples/libDaisy/src/hid/midi.h **** 
 205:../../DaisyExamples/libDaisy/src/hid/midi.h ****     /** SendMessage
 206:../../DaisyExamples/libDaisy/src/hid/midi.h ****     Send raw bytes as message
 207:../../DaisyExamples/libDaisy/src/hid/midi.h ****     */
 208:../../DaisyExamples/libDaisy/src/hid/midi.h ****     void SendMessage(uint8_t* bytes, size_t size)
 209:../../DaisyExamples/libDaisy/src/hid/midi.h ****     {
 210:../../DaisyExamples/libDaisy/src/hid/midi.h ****         transport_.Tx(bytes, size);
 211:../../DaisyExamples/libDaisy/src/hid/midi.h ****     }
 212:../../DaisyExamples/libDaisy/src/hid/midi.h **** 
 213:../../DaisyExamples/libDaisy/src/hid/midi.h ****     /** Feed in bytes to parser state machine from an external source.
 214:../../DaisyExamples/libDaisy/src/hid/midi.h ****         Populates internal FIFO queue with MIDI Messages.
 215:../../DaisyExamples/libDaisy/src/hid/midi.h **** 
 216:../../DaisyExamples/libDaisy/src/hid/midi.h ****         \note  Normally application code won't need to use this method directly.
 217:../../DaisyExamples/libDaisy/src/hid/midi.h ****         \param byte MIDI byte to be parsed
 218:../../DaisyExamples/libDaisy/src/hid/midi.h ****     */
 219:../../DaisyExamples/libDaisy/src/hid/midi.h ****     void Parse(uint8_t byte)
 220:../../DaisyExamples/libDaisy/src/hid/midi.h ****     {
 221:../../DaisyExamples/libDaisy/src/hid/midi.h ****         MidiEvent event;
 222:../../DaisyExamples/libDaisy/src/hid/midi.h ****         if(parser_.Parse(byte, &event))
 223:../../DaisyExamples/libDaisy/src/hid/midi.h ****         {
 224:../../DaisyExamples/libDaisy/src/hid/midi.h ****             event_q_.PushBack(event);
 225:../../DaisyExamples/libDaisy/src/hid/midi.h ****         }
 226:../../DaisyExamples/libDaisy/src/hid/midi.h ****     }
 227:../../DaisyExamples/libDaisy/src/hid/midi.h **** 
 228:../../DaisyExamples/libDaisy/src/hid/midi.h ****   private:
 229:../../DaisyExamples/libDaisy/src/hid/midi.h ****     Config               config_;
 230:../../DaisyExamples/libDaisy/src/hid/midi.h ****     Transport            transport_;
 231:../../DaisyExamples/libDaisy/src/hid/midi.h ****     MidiParser           parser_;
 232:../../DaisyExamples/libDaisy/src/hid/midi.h ****     FIFO<MidiEvent, 256> event_q_;
 233:../../DaisyExamples/libDaisy/src/hid/midi.h **** 
 234:../../DaisyExamples/libDaisy/src/hid/midi.h ****     static void ParseCallback(uint8_t* data, size_t size, void* context)
 785              		.loc 4 234 17 is_stmt 1 view -0
 786              		.cfi_startproc
 787              		@ args = 0, pretend = 0, frame = 144
 788              		@ frame_needed = 0, uses_anonymous_args = 0
 789              	.LBB548:
 235:../../DaisyExamples/libDaisy/src/hid/midi.h ****     {
 236:../../DaisyExamples/libDaisy/src/hid/midi.h ****         MidiHandler* handler = reinterpret_cast<MidiHandler*>(context);
 237:../../DaisyExamples/libDaisy/src/hid/midi.h ****         for(size_t i = 0; i < size; i++)
 790              		.loc 4 237 29 view .LVU204
 791 0000 B9B3     		cbz	r1, .L70
 792 0002 0144     		add	r1, r1, r0
 793              	.LVL47:
 794              		.loc 4 237 29 is_stmt 0 view .LVU205
 795              	.LBE548:
 234:../../DaisyExamples/libDaisy/src/hid/midi.h ****     {
 796              		.loc 4 234 17 view .LVU206
ARM GAS  /var/folders/hp/45mn71hd0ps5f5pnytxy5bt00000gn/T//ccaKukFC.s 			page 41


 797 0004 F0B5     		push	{r4, r5, r6, r7, lr}
 798              		.cfi_def_cfa_offset 20
 799              		.cfi_offset 4, -20
 800              		.cfi_offset 5, -16
 801              		.cfi_offset 6, -12
 802              		.cfi_offset 7, -8
 803              		.cfi_offset 14, -4
 804 0006 1546     		mov	r5, r2
 805 0008 A5B0     		sub	sp, sp, #148
 806              		.cfi_def_cfa_offset 168
 807              	.LBB567:
 808              	.LBB549:
 809              	.LBB550:
 222:../../DaisyExamples/libDaisy/src/hid/midi.h ****         {
 810              		.loc 4 222 25 view .LVU207
 811 000a 02F12407 		add	r7, r2, #36
 812 000e 441E     		subs	r4, r0, #1
 813 0010 4E1E     		subs	r6, r1, #1
 814 0012 01E0     		b	.L68
 815              	.LVL48:
 816              	.L63:
 222:../../DaisyExamples/libDaisy/src/hid/midi.h ****         {
 817              		.loc 4 222 25 view .LVU208
 818              	.LBE550:
 819              	.LBE549:
 820              		.loc 4 237 9 is_stmt 1 view .LVU209
 821              		.loc 4 237 29 view .LVU210
 822 0014 A642     		cmp	r6, r4
 823 0016 2AD0     		beq	.L73
 824              	.LVL49:
 825              	.L68:
 826              	.LBB566:
 827              	.LBI549:
 219:../../DaisyExamples/libDaisy/src/hid/midi.h ****     {
 828              		.loc 4 219 10 discriminator 2 view .LVU211
 829              	.LBB565:
 222:../../DaisyExamples/libDaisy/src/hid/midi.h ****         {
 830              		.loc 4 222 25 is_stmt 0 discriminator 2 view .LVU212
 831 0018 14F8011F 		ldrb	r1, [r4, #1]!	@ zero_extendqisi2
 832              	.LVL50:
 222:../../DaisyExamples/libDaisy/src/hid/midi.h ****         {
 833              		.loc 4 222 25 discriminator 2 view .LVU213
 834 001c 6A46     		mov	r2, sp
 835 001e 3846     		mov	r0, r7
 836 0020 FFF7FEFF 		bl	_ZN5daisy10MidiParser5ParseEhPNS_9MidiEventE
 837              	.LVL51:
 222:../../DaisyExamples/libDaisy/src/hid/midi.h ****         {
 838              		.loc 4 222 9 discriminator 2 view .LVU214
 839 0024 0028     		cmp	r0, #0
 840 0026 F5D0     		beq	.L63
 841              	.LVL52:
 842              	.LBB551:
 843              	.LBI551:
  49:../../DaisyExamples/libDaisy/src/util/FIFO.h ****     {
 844              		.loc 5 49 10 is_stmt 1 view .LVU215
 845              	.LBB552:
 846              	.LBB553:
ARM GAS  /var/folders/hp/45mn71hd0ps5f5pnytxy5bt00000gn/T//ccaKukFC.s 			page 42


 847              	.LBI553:
 168:../../DaisyExamples/libDaisy/src/util/FIFO.h **** 
 848              		.loc 5 168 10 view .LVU216
 849              	.LBB554:
 850              	.LBB555:
 851              	.LBI555:
 171:../../DaisyExamples/libDaisy/src/util/FIFO.h ****     {
 852              		.loc 5 171 12 view .LVU217
 853              	.LBB556:
 175:../../DaisyExamples/libDaisy/src/util/FIFO.h ****         return size_t(numElements);
 854              		.loc 5 175 28 is_stmt 0 view .LVU218
 855 0028 D5F8C4C0 		ldr	ip, [r5, #196]
 856              	.LBE556:
 857              	.LBE555:
 858              	.LBE554:
 859              	.LBE553:
  53:../../DaisyExamples/libDaisy/src/util/FIFO.h ****             if(bufferIn_ >= bufferSize_)
 860              		.loc 5 53 13 view .LVU219
 861 002c 9022     		movs	r2, #144
 862 002e 6946     		mov	r1, sp
 863              	.LBB563:
 864              	.LBB561:
 865              	.LBB559:
 866              	.LBB557:
 173:../../DaisyExamples/libDaisy/src/util/FIFO.h ****         if(numElements < 0)
 867              		.loc 5 173 41 view .LVU220
 868 0030 D5E93203 		ldrd	r0, r3, [r5, #200]
 869              	.LVL53:
 174:../../DaisyExamples/libDaisy/src/util/FIFO.h ****             numElements += bufferSize_;
 870              		.loc 5 174 9 view .LVU221
 871 0034 C31A     		subs	r3, r0, r3
 872              	.LVL54:
 174:../../DaisyExamples/libDaisy/src/util/FIFO.h ****             numElements += bufferSize_;
 873              		.loc 5 174 9 view .LVU222
 874              	.LBE557:
 875              	.LBE559:
 876              	.LBE561:
 877              	.LBE563:
  53:../../DaisyExamples/libDaisy/src/util/FIFO.h ****             if(bufferIn_ >= bufferSize_)
 878              		.loc 5 53 13 view .LVU223
 879 0036 00F1010E 		add	lr, r0, #1
 880 003a 00EBC000 		add	r0, r0, r0, lsl #3
 881              	.LBB564:
 882              	.LBB562:
 883              	.LBB560:
 884              	.LBB558:
 175:../../DaisyExamples/libDaisy/src/util/FIFO.h ****         return size_t(numElements);
 885              		.loc 5 175 25 view .LVU224
 886 003e 48BF     		it	mi
 887 0040 6344     		addmi	r3, r3, ip
 888              	.LVL55:
 175:../../DaisyExamples/libDaisy/src/util/FIFO.h ****         return size_t(numElements);
 889              		.loc 5 175 25 view .LVU225
 890              	.LBE558:
 891              	.LBE560:
 168:../../DaisyExamples/libDaisy/src/util/FIFO.h **** 
 892              		.loc 5 168 66 view .LVU226
ARM GAS  /var/folders/hp/45mn71hd0ps5f5pnytxy5bt00000gn/T//ccaKukFC.s 			page 43


 893 0042 0CF1FF3C 		add	ip, ip, #-1
 894              	.LBE562:
 895              	.LBE564:
  51:../../DaisyExamples/libDaisy/src/util/FIFO.h ****         {
 896              		.loc 5 51 9 view .LVU227
 897 0046 9C45     		cmp	ip, r3
 898 0048 E4D0     		beq	.L63
  53:../../DaisyExamples/libDaisy/src/util/FIFO.h ****             if(bufferIn_ >= bufferSize_)
 899              		.loc 5 53 13 view .LVU228
 900 004a D5F8C030 		ldr	r3, [r5, #192]
 901 004e C5F8C8E0 		str	lr, [r5, #200]
 902 0052 03EB0010 		add	r0, r3, r0, lsl #4
 903 0056 FFF7FEFF 		bl	memcpy
 904              	.LVL56:
  54:../../DaisyExamples/libDaisy/src/util/FIFO.h ****                 bufferIn_ -= bufferSize_;
 905              		.loc 5 54 29 view .LVU229
 906 005a D5E93123 		ldrd	r2, r3, [r5, #196]
  54:../../DaisyExamples/libDaisy/src/util/FIFO.h ****                 bufferIn_ -= bufferSize_;
 907              		.loc 5 54 13 view .LVU230
 908 005e 9342     		cmp	r3, r2
  55:../../DaisyExamples/libDaisy/src/util/FIFO.h ****             return true;
 909              		.loc 5 55 27 view .LVU231
 910 0060 A3EB0203 		sub	r3, r3, r2
 911 0064 28BF     		it	cs
 912 0066 C5F8C830 		strcs	r3, [r5, #200]
 913              	.LVL57:
  55:../../DaisyExamples/libDaisy/src/util/FIFO.h ****             return true;
 914              		.loc 5 55 27 view .LVU232
 915              	.LBE552:
 916              	.LBE551:
 917              	.LBE565:
 918              	.LBE566:
 919              		.loc 4 237 9 is_stmt 1 view .LVU233
 920              		.loc 4 237 29 view .LVU234
 921 006a A642     		cmp	r6, r4
 922 006c D4D1     		bne	.L68
 923              	.LVL58:
 924              	.L73:
 925              		.loc 4 237 29 is_stmt 0 view .LVU235
 926              	.LBE567:
 238:../../DaisyExamples/libDaisy/src/hid/midi.h ****         {
 239:../../DaisyExamples/libDaisy/src/hid/midi.h ****             handler->Parse(data[i]);
 240:../../DaisyExamples/libDaisy/src/hid/midi.h ****         }
 241:../../DaisyExamples/libDaisy/src/hid/midi.h ****     }
 927              		.loc 4 241 5 view .LVU236
 928 006e 25B0     		add	sp, sp, #148
 929              		.cfi_def_cfa_offset 20
 930              		@ sp needed
 931 0070 F0BD     		pop	{r4, r5, r6, r7, pc}
 932              	.LVL59:
 933              	.L70:
 934              		.cfi_def_cfa_offset 0
 935              		.cfi_restore 4
 936              		.cfi_restore 5
 937              		.cfi_restore 6
 938              		.cfi_restore 7
 939              		.cfi_restore 14
ARM GAS  /var/folders/hp/45mn71hd0ps5f5pnytxy5bt00000gn/T//ccaKukFC.s 			page 44


 940              		.loc 4 241 5 view .LVU237
 941 0072 7047     		bx	lr
 942              		.cfi_endproc
 943              	.LFE5308:
 945              		.section	.text._ZN5daisy11MidiHandlerINS_16MidiUsbTransportEE13ParseCallbackEPhjPv,"axG",%progbits
 946              		.align	1
 947              		.p2align 2,,3
 948              		.weak	_ZN5daisy11MidiHandlerINS_16MidiUsbTransportEE13ParseCallbackEPhjPv
 949              		.syntax unified
 950              		.thumb
 951              		.thumb_func
 953              	_ZN5daisy11MidiHandlerINS_16MidiUsbTransportEE13ParseCallbackEPhjPv:
 954              	.LVL60:
 955              	.LFB5360:
 234:../../DaisyExamples/libDaisy/src/hid/midi.h ****     {
 956              		.loc 4 234 17 is_stmt 1 view -0
 957              		.cfi_startproc
 958              		@ args = 0, pretend = 0, frame = 144
 959              		@ frame_needed = 0, uses_anonymous_args = 0
 960              	.LBB577:
 237:../../DaisyExamples/libDaisy/src/hid/midi.h ****         {
 961              		.loc 4 237 29 view .LVU239
 962 0000 B9B3     		cbz	r1, .L84
 963 0002 0144     		add	r1, r1, r0
 964              	.LVL61:
 237:../../DaisyExamples/libDaisy/src/hid/midi.h ****         {
 965              		.loc 4 237 29 is_stmt 0 view .LVU240
 966              	.LBE577:
 234:../../DaisyExamples/libDaisy/src/hid/midi.h ****     {
 967              		.loc 4 234 17 view .LVU241
 968 0004 F0B5     		push	{r4, r5, r6, r7, lr}
 969              		.cfi_def_cfa_offset 20
 970              		.cfi_offset 4, -20
 971              		.cfi_offset 5, -16
 972              		.cfi_offset 6, -12
 973              		.cfi_offset 7, -8
 974              		.cfi_offset 14, -4
 975 0006 1546     		mov	r5, r2
 976 0008 A5B0     		sub	sp, sp, #148
 977              		.cfi_def_cfa_offset 168
 978              	.LBB596:
 979              	.LBB578:
 980              	.LBB579:
 222:../../DaisyExamples/libDaisy/src/hid/midi.h ****         {
 981              		.loc 4 222 25 view .LVU242
 982 000a 02F10807 		add	r7, r2, #8
 983 000e 441E     		subs	r4, r0, #1
 984 0010 4E1E     		subs	r6, r1, #1
 985 0012 01E0     		b	.L82
 986              	.LVL62:
 987              	.L77:
 222:../../DaisyExamples/libDaisy/src/hid/midi.h ****         {
 988              		.loc 4 222 25 view .LVU243
 989              	.LBE579:
 990              	.LBE578:
 237:../../DaisyExamples/libDaisy/src/hid/midi.h ****         {
 991              		.loc 4 237 9 is_stmt 1 view .LVU244
ARM GAS  /var/folders/hp/45mn71hd0ps5f5pnytxy5bt00000gn/T//ccaKukFC.s 			page 45


 237:../../DaisyExamples/libDaisy/src/hid/midi.h ****         {
 992              		.loc 4 237 29 view .LVU245
 993 0014 A642     		cmp	r6, r4
 994 0016 2AD0     		beq	.L87
 995              	.LVL63:
 996              	.L82:
 997              	.LBB595:
 998              	.LBI578:
 219:../../DaisyExamples/libDaisy/src/hid/midi.h ****     {
 999              		.loc 4 219 10 discriminator 2 view .LVU246
 1000              	.LBB594:
 222:../../DaisyExamples/libDaisy/src/hid/midi.h ****         {
 1001              		.loc 4 222 25 is_stmt 0 discriminator 2 view .LVU247
 1002 0018 14F8011F 		ldrb	r1, [r4, #1]!	@ zero_extendqisi2
 1003              	.LVL64:
 222:../../DaisyExamples/libDaisy/src/hid/midi.h ****         {
 1004              		.loc 4 222 25 discriminator 2 view .LVU248
 1005 001c 6A46     		mov	r2, sp
 1006 001e 3846     		mov	r0, r7
 1007 0020 FFF7FEFF 		bl	_ZN5daisy10MidiParser5ParseEhPNS_9MidiEventE
 1008              	.LVL65:
 222:../../DaisyExamples/libDaisy/src/hid/midi.h ****         {
 1009              		.loc 4 222 9 discriminator 2 view .LVU249
 1010 0024 0028     		cmp	r0, #0
 1011 0026 F5D0     		beq	.L77
 1012              	.LVL66:
 1013              	.LBB580:
 1014              	.LBI580:
  49:../../DaisyExamples/libDaisy/src/util/FIFO.h ****     {
 1015              		.loc 5 49 10 is_stmt 1 view .LVU250
 1016              	.LBB581:
 1017              	.LBB582:
 1018              	.LBI582:
 168:../../DaisyExamples/libDaisy/src/util/FIFO.h **** 
 1019              		.loc 5 168 10 view .LVU251
 1020              	.LBB583:
 1021              	.LBB584:
 1022              	.LBI584:
 171:../../DaisyExamples/libDaisy/src/util/FIFO.h ****     {
 1023              		.loc 5 171 12 view .LVU252
 1024              	.LBB585:
 175:../../DaisyExamples/libDaisy/src/util/FIFO.h ****         return size_t(numElements);
 1025              		.loc 5 175 28 is_stmt 0 view .LVU253
 1026 0028 D5F8A8C0 		ldr	ip, [r5, #168]
 1027              	.LBE585:
 1028              	.LBE584:
 1029              	.LBE583:
 1030              	.LBE582:
  53:../../DaisyExamples/libDaisy/src/util/FIFO.h ****             if(bufferIn_ >= bufferSize_)
 1031              		.loc 5 53 13 view .LVU254
 1032 002c 9022     		movs	r2, #144
 1033 002e 6946     		mov	r1, sp
 1034              	.LBB592:
 1035              	.LBB590:
 1036              	.LBB588:
 1037              	.LBB586:
 173:../../DaisyExamples/libDaisy/src/util/FIFO.h ****         if(numElements < 0)
ARM GAS  /var/folders/hp/45mn71hd0ps5f5pnytxy5bt00000gn/T//ccaKukFC.s 			page 46


 1038              		.loc 5 173 41 view .LVU255
 1039 0030 D5E92B03 		ldrd	r0, r3, [r5, #172]
 1040              	.LVL67:
 174:../../DaisyExamples/libDaisy/src/util/FIFO.h ****             numElements += bufferSize_;
 1041              		.loc 5 174 9 view .LVU256
 1042 0034 C31A     		subs	r3, r0, r3
 1043              	.LVL68:
 174:../../DaisyExamples/libDaisy/src/util/FIFO.h ****             numElements += bufferSize_;
 1044              		.loc 5 174 9 view .LVU257
 1045              	.LBE586:
 1046              	.LBE588:
 1047              	.LBE590:
 1048              	.LBE592:
  53:../../DaisyExamples/libDaisy/src/util/FIFO.h ****             if(bufferIn_ >= bufferSize_)
 1049              		.loc 5 53 13 view .LVU258
 1050 0036 00F1010E 		add	lr, r0, #1
 1051 003a 00EBC000 		add	r0, r0, r0, lsl #3
 1052              	.LBB593:
 1053              	.LBB591:
 1054              	.LBB589:
 1055              	.LBB587:
 175:../../DaisyExamples/libDaisy/src/util/FIFO.h ****         return size_t(numElements);
 1056              		.loc 5 175 25 view .LVU259
 1057 003e 48BF     		it	mi
 1058 0040 6344     		addmi	r3, r3, ip
 1059              	.LVL69:
 175:../../DaisyExamples/libDaisy/src/util/FIFO.h ****         return size_t(numElements);
 1060              		.loc 5 175 25 view .LVU260
 1061              	.LBE587:
 1062              	.LBE589:
 168:../../DaisyExamples/libDaisy/src/util/FIFO.h **** 
 1063              		.loc 5 168 66 view .LVU261
 1064 0042 0CF1FF3C 		add	ip, ip, #-1
 1065              	.LBE591:
 1066              	.LBE593:
  51:../../DaisyExamples/libDaisy/src/util/FIFO.h ****         {
 1067              		.loc 5 51 9 view .LVU262
 1068 0046 9C45     		cmp	ip, r3
 1069 0048 E4D0     		beq	.L77
  53:../../DaisyExamples/libDaisy/src/util/FIFO.h ****             if(bufferIn_ >= bufferSize_)
 1070              		.loc 5 53 13 view .LVU263
 1071 004a D5F8A430 		ldr	r3, [r5, #164]
 1072 004e C5F8ACE0 		str	lr, [r5, #172]
 1073 0052 03EB0010 		add	r0, r3, r0, lsl #4
 1074 0056 FFF7FEFF 		bl	memcpy
 1075              	.LVL70:
  54:../../DaisyExamples/libDaisy/src/util/FIFO.h ****                 bufferIn_ -= bufferSize_;
 1076              		.loc 5 54 29 view .LVU264
 1077 005a D5E92A23 		ldrd	r2, r3, [r5, #168]
  54:../../DaisyExamples/libDaisy/src/util/FIFO.h ****                 bufferIn_ -= bufferSize_;
 1078              		.loc 5 54 13 view .LVU265
 1079 005e 9342     		cmp	r3, r2
  55:../../DaisyExamples/libDaisy/src/util/FIFO.h ****             return true;
 1080              		.loc 5 55 27 view .LVU266
 1081 0060 A3EB0203 		sub	r3, r3, r2
 1082 0064 28BF     		it	cs
 1083 0066 C5F8AC30 		strcs	r3, [r5, #172]
ARM GAS  /var/folders/hp/45mn71hd0ps5f5pnytxy5bt00000gn/T//ccaKukFC.s 			page 47


 1084              	.LVL71:
  55:../../DaisyExamples/libDaisy/src/util/FIFO.h ****             return true;
 1085              		.loc 5 55 27 view .LVU267
 1086              	.LBE581:
 1087              	.LBE580:
 1088              	.LBE594:
 1089              	.LBE595:
 237:../../DaisyExamples/libDaisy/src/hid/midi.h ****         {
 1090              		.loc 4 237 9 is_stmt 1 view .LVU268
 237:../../DaisyExamples/libDaisy/src/hid/midi.h ****         {
 1091              		.loc 4 237 29 view .LVU269
 1092 006a A642     		cmp	r6, r4
 1093 006c D4D1     		bne	.L82
 1094              	.LVL72:
 1095              	.L87:
 237:../../DaisyExamples/libDaisy/src/hid/midi.h ****         {
 1096              		.loc 4 237 29 is_stmt 0 view .LVU270
 1097              	.LBE596:
 1098              		.loc 4 241 5 view .LVU271
 1099 006e 25B0     		add	sp, sp, #148
 1100              		.cfi_def_cfa_offset 20
 1101              		@ sp needed
 1102 0070 F0BD     		pop	{r4, r5, r6, r7, pc}
 1103              	.LVL73:
 1104              	.L84:
 1105              		.cfi_def_cfa_offset 0
 1106              		.cfi_restore 4
 1107              		.cfi_restore 5
 1108              		.cfi_restore 6
 1109              		.cfi_restore 7
 1110              		.cfi_restore 14
 1111              		.loc 4 241 5 view .LVU272
 1112 0072 7047     		bx	lr
 1113              		.cfi_endproc
 1114              	.LFE5360:
 1116              		.section	.text.startup.main,"ax",%progbits
 1117              		.align	1
 1118              		.p2align 2,,3
 1119              		.global	main
 1120              		.syntax unified
 1121              		.thumb
 1122              		.thumb_func
 1124              	main:
 1125              	.LFB4855:
  68:SynthV5.cpp   **** int main(void)
  69:SynthV5.cpp   **** {
 1126              		.loc 19 69 1 is_stmt 1 view -0
 1127              		.cfi_startproc
 1128              		@ args = 0, pretend = 0, frame = 32
 1129              		@ frame_needed = 0, uses_anonymous_args = 0
  70:SynthV5.cpp   ****     float samplerate;
 1130              		.loc 19 70 5 view .LVU274
  71:SynthV5.cpp   **** 
  72:SynthV5.cpp   ****     hw.Init();
 1131              		.loc 19 72 5 view .LVU275
  69:SynthV5.cpp   ****     float samplerate;
 1132              		.loc 19 69 1 is_stmt 0 view .LVU276
ARM GAS  /var/folders/hp/45mn71hd0ps5f5pnytxy5bt00000gn/T//ccaKukFC.s 			page 48


 1133 0000 2DE9F04F 		push	{r4, r5, r6, r7, r8, r9, r10, fp, lr}
 1134              		.cfi_def_cfa_offset 36
 1135              		.cfi_offset 4, -36
 1136              		.cfi_offset 5, -32
 1137              		.cfi_offset 6, -28
 1138              		.cfi_offset 7, -24
 1139              		.cfi_offset 8, -20
 1140              		.cfi_offset 9, -16
 1141              		.cfi_offset 10, -12
 1142              		.cfi_offset 11, -8
 1143              		.cfi_offset 14, -4
 1144              		.loc 19 72 12 view .LVU277
 1145 0004 DFF84882 		ldr	r8, .L104+80
 1146 0008 0021     		movs	r1, #0
 1147              	.LBB661:
 1148              	.LBB662:
 168:../../DaisyExamples/libDaisy/src/hid/midi.h ****         transport_.Init(config_.transport_config);
 1149              		.loc 4 168 9 view .LVU278
 1150 000a 7D4C     		ldr	r4, .L104
 1151              	.LBE662:
 1152              	.LBE661:
  73:SynthV5.cpp   ****     hw.SetAudioBlockSize(4);
  74:SynthV5.cpp   ****     samplerate = hw.AudioSampleRate();
  75:SynthV5.cpp   **** 
  76:SynthV5.cpp   ****     // Initialise USB-Midi
  77:SynthV5.cpp   ****     MidiUsbHandler::Config midi_cfg;
  78:SynthV5.cpp   ****     midi_cfg.transport_config.periph = MidiUsbTransport::Config::INTERNAL;
  79:SynthV5.cpp   ****     midi.Init(midi_cfg);
  80:SynthV5.cpp   **** 
  81:SynthV5.cpp   ****     volChange = 0.5;
 1153              		.loc 19 81 15 view .LVU279
 1154 000c 4FF07C59 		mov	r9, #1056964608
  72:SynthV5.cpp   ****     hw.SetAudioBlockSize(4);
 1155              		.loc 19 72 12 view .LVU280
 1156 0010 4046     		mov	r0, r8
 1157              	.LBB668:
 1158              	.LBB669:
  52:../../DaisyExamples/DaisySP/Source/Synthesis/oscillator.h ****         sr_recip_  = 1.0f / sample_rate;
 1159              		.loc 17 52 20 view .LVU281
 1160 0012 7C4E     		ldr	r6, .L104+4
  57:../../DaisyExamples/DaisySP/Source/Synthesis/oscillator.h ****         phase_inc_ = CalcPhaseInc(freq_);
 1161              		.loc 17 57 20 view .LVU282
 1162 0014 4FF0000A 		mov	r10, #0
 1163              	.LBE669:
 1164              	.LBE668:
  82:SynthV5.cpp   ****     isVolumeOn = true;
 1165              		.loc 19 82 16 view .LVU283
 1166 0018 4FF0010B 		mov	fp, #1
  83:SynthV5.cpp   ****     inc = 0;
  84:SynthV5.cpp   **** 
  85:SynthV5.cpp   ****     osc.Init(samplerate);
  86:SynthV5.cpp   ****     osc.SetWaveform(osc.WAVE_TRI);
  87:SynthV5.cpp   ****     osc.SetAmp(0.1f);
  88:SynthV5.cpp   **** 
  89:SynthV5.cpp   ****     ad.Init(samplerate);
 1167              		.loc 19 89 12 view .LVU284
 1168 001c 7A4D     		ldr	r5, .L104+8
ARM GAS  /var/folders/hp/45mn71hd0ps5f5pnytxy5bt00000gn/T//ccaKukFC.s 			page 49


  69:SynthV5.cpp   ****     float samplerate;
 1169              		.loc 19 69 1 view .LVU285
 1170 001e 2DED048B 		vpush.64	{d8, d9}
 1171              		.cfi_def_cfa_offset 52
 1172              		.cfi_offset 80, -52
 1173              		.cfi_offset 81, -48
 1174              		.cfi_offset 82, -44
 1175              		.cfi_offset 83, -40
 1176 0022 8BB0     		sub	sp, sp, #44
 1177              		.cfi_def_cfa_offset 96
 1178              	.LBB678:
 1179              	.LBB670:
  53:../../DaisyExamples/DaisySP/Source/Synthesis/oscillator.h ****         freq_      = 100.0f;
 1180              		.loc 17 53 27 view .LVU286
 1181 0024 F7EE008A 		vmov.f32	s17, #1.0e+0
 1182              	.LBE670:
 1183              	.LBE678:
  72:SynthV5.cpp   ****     hw.SetAudioBlockSize(4);
 1184              		.loc 19 72 12 view .LVU287
 1185 0028 FFF7FEFF 		bl	_ZN5daisy8DaisyPod4InitEb
 1186              	.LVL74:
  73:SynthV5.cpp   ****     samplerate = hw.AudioSampleRate();
 1187              		.loc 19 73 5 is_stmt 1 view .LVU288
  73:SynthV5.cpp   ****     samplerate = hw.AudioSampleRate();
 1188              		.loc 19 73 25 is_stmt 0 view .LVU289
 1189 002c 0421     		movs	r1, #4
 1190 002e 4046     		mov	r0, r8
 1191              	.LBB679:
 1192              	.LBB680:
  71:../../DaisyExamples/DaisySP/Source/Synthesis/oscillator.h ****     }
  72:../../DaisyExamples/DaisySP/Source/Synthesis/oscillator.h **** 
  73:../../DaisyExamples/DaisySP/Source/Synthesis/oscillator.h **** 
  74:../../DaisyExamples/DaisySP/Source/Synthesis/oscillator.h ****     /** Sets the amplitude of the waveform.
  75:../../DaisyExamples/DaisySP/Source/Synthesis/oscillator.h ****     */
  76:../../DaisyExamples/DaisySP/Source/Synthesis/oscillator.h ****     inline void SetAmp(const float a) { amp_ = a; }
 1193              		.loc 17 76 46 view .LVU290
 1194 0030 DFED769A 		vldr.32	s19, .L104+12
 1195              	.LBE680:
 1196              	.LBE679:
  73:SynthV5.cpp   ****     samplerate = hw.AudioSampleRate();
 1197              		.loc 19 73 25 view .LVU291
 1198 0034 FFF7FEFF 		bl	_ZN5daisy8DaisyPod17SetAudioBlockSizeEj
 1199              	.LVL75:
  74:SynthV5.cpp   **** 
 1200              		.loc 19 74 5 is_stmt 1 view .LVU292
  74:SynthV5.cpp   **** 
 1201              		.loc 19 74 36 is_stmt 0 view .LVU293
 1202 0038 4046     		mov	r0, r8
 1203 003a FFF7FEFF 		bl	_ZN5daisy8DaisyPod15AudioSampleRateEv
 1204              	.LVL76:
 1205              	.LBB683:
 1206              	.LBB665:
 168:../../DaisyExamples/libDaisy/src/hid/midi.h ****         transport_.Init(config_.transport_config);
 1207              		.loc 4 168 9 view .LVU294
 1208 003e 4FF44073 		mov	r3, #768
 169:../../DaisyExamples/libDaisy/src/hid/midi.h ****         parser_.Init();
 1209              		.loc 4 169 24 view .LVU295
ARM GAS  /var/folders/hp/45mn71hd0ps5f5pnytxy5bt00000gn/T//ccaKukFC.s 			page 50


 1210 0042 2046     		mov	r0, r4
 1211              	.LBE665:
 1212              	.LBE683:
  74:SynthV5.cpp   **** 
 1213              		.loc 19 74 36 view .LVU296
 1214 0044 B0EE408A 		vmov.f32	s16, s0
 1215              	.LVL77:
  77:SynthV5.cpp   ****     midi_cfg.transport_config.periph = MidiUsbTransport::Config::INTERNAL;
 1216              		.loc 19 77 5 is_stmt 1 view .LVU297
 1217              	.LBB684:
 1218              	.LBI684:
 158:../../DaisyExamples/libDaisy/src/hid/midi.h ****     {
 1219              		.loc 4 158 12 view .LVU298
 1220              	.LBB685:
 1221              	.LBI685:
  43:../../DaisyExamples/libDaisy/src/hid/usb_midi.h ****     };
 1222              		.loc 18 43 9 view .LVU299
  43:../../DaisyExamples/libDaisy/src/hid/usb_midi.h ****     };
 1223              		.loc 18 43 9 is_stmt 0 view .LVU300
 1224              	.LBE685:
 1225              	.LBE684:
  78:SynthV5.cpp   ****     midi.Init(midi_cfg);
 1226              		.loc 19 78 5 is_stmt 1 view .LVU301
  79:SynthV5.cpp   **** 
 1227              		.loc 19 79 5 view .LVU302
 1228              	.LBB686:
 1229              	.LBI661:
 166:../../DaisyExamples/libDaisy/src/hid/midi.h ****     {
 1230              		.loc 4 166 10 view .LVU303
 1231              	.LBB666:
 168:../../DaisyExamples/libDaisy/src/hid/midi.h ****         transport_.Init(config_.transport_config);
 1232              		.loc 4 168 9 is_stmt 0 view .LVU304
 1233 0048 2380     		strh	r3, [r4]	@ movhi
 1234              	.LBE666:
 1235              	.LBE686:
  90:SynthV5.cpp   ****     ad.SetTime(ADENV_SEG_ATTACK, 0.01f);
  91:SynthV5.cpp   ****     ad.SetTime(ADENV_SEG_DECAY, 1.0f);
  92:SynthV5.cpp   ****     ad.SetMax(1);
  93:SynthV5.cpp   ****     ad.SetMin(0);
  94:SynthV5.cpp   ****     ad.SetCurve(0.5);
  95:SynthV5.cpp   **** 
  96:SynthV5.cpp   ****     tuning.Init(hw.knob1, -0.1, 0.1, tuning.LINEAR);
 1236              		.loc 19 96 20 view .LVU305
 1237 004a 02AF     		add	r7, sp, #8
 1238              	.LBB687:
 1239              	.LBB667:
 169:../../DaisyExamples/libDaisy/src/hid/midi.h ****         parser_.Init();
 1240              		.loc 4 169 24 view .LVU306
 1241 004c 50F8041B 		ldr	r1, [r0], #4
 1242 0050 FFF7FEFF 		bl	_ZN5daisy16MidiUsbTransport4InitENS0_6ConfigE
 1243              	.LVL78:
 1244              	.LBB663:
 1245              	.LBI663:
  20:../../DaisyExamples/libDaisy/src/hid/midi_parser.h **** 
  21:../../DaisyExamples/libDaisy/src/hid/midi_parser.h ****     inline void Init() { Reset(); }
 1246              		.loc 6 21 17 is_stmt 1 view .LVU307
 1247              	.LBB664:
ARM GAS  /var/folders/hp/45mn71hd0ps5f5pnytxy5bt00000gn/T//ccaKukFC.s 			page 51


 1248              		.loc 6 21 26 view .LVU308
 1249              		.loc 6 21 31 is_stmt 0 view .LVU309
 1250 0054 04F10800 		add	r0, r4, #8
 1251 0058 FFF7FEFF 		bl	_ZN5daisy10MidiParser5ResetEv
 1252              	.LVL79:
 1253              		.loc 6 21 31 view .LVU310
 1254              	.LBE664:
 1255              	.LBE663:
 1256              	.LBE667:
 1257              	.LBE687:
  81:SynthV5.cpp   ****     isVolumeOn = true;
 1258              		.loc 19 81 5 is_stmt 1 view .LVU311
 1259              	.LBB688:
 1260              	.LBB671:
  53:../../DaisyExamples/DaisySP/Source/Synthesis/oscillator.h ****         freq_      = 100.0f;
 1261              		.loc 17 53 27 is_stmt 0 view .LVU312
 1262 005c C8EE887A 		vdiv.f32	s15, s17, s16
 1263              	.LBE671:
 1264              	.LBE688:
  81:SynthV5.cpp   ****     isVolumeOn = true;
 1265              		.loc 19 81 15 view .LVU313
 1266 0060 6B4B     		ldr	r3, .L104+16
 1267              	.LBB689:
 1268              	.LBB672:
  58:../../DaisyExamples/DaisySP/Source/Synthesis/oscillator.h ****         waveform_  = WAVE_SIN;
 1269              		.loc 17 58 34 view .LVU314
 1270 0062 3046     		mov	r0, r6
  54:../../DaisyExamples/DaisySP/Source/Synthesis/oscillator.h ****         amp_       = 0.5f;
 1271              		.loc 17 54 20 view .LVU315
 1272 0064 9FED6B0A 		vldr.32	s0, .L104+20
 1273              	.LBE672:
 1274              	.LBE689:
  81:SynthV5.cpp   ****     isVolumeOn = true;
 1275              		.loc 19 81 15 view .LVU316
 1276 0068 C3F80090 		str	r9, [r3]	@ float
  82:SynthV5.cpp   ****     inc = 0;
 1277              		.loc 19 82 5 is_stmt 1 view .LVU317
  82:SynthV5.cpp   ****     inc = 0;
 1278              		.loc 19 82 16 is_stmt 0 view .LVU318
 1279 006c 6A4B     		ldr	r3, .L104+24
 1280              	.LBB690:
 1281              	.LBB673:
  55:../../DaisyExamples/DaisySP/Source/Synthesis/oscillator.h ****         pw_        = 0.5f;
 1282              		.loc 17 55 20 view .LVU319
 1283 006e C6F80490 		str	r9, [r6, #4]	@ float
  56:../../DaisyExamples/DaisySP/Source/Synthesis/oscillator.h ****         phase_     = 0.0f;
 1284              		.loc 17 56 20 view .LVU320
 1285 0072 C6F80C90 		str	r9, [r6, #12]	@ float
  57:../../DaisyExamples/DaisySP/Source/Synthesis/oscillator.h ****         phase_inc_ = CalcPhaseInc(freq_);
 1286              		.loc 17 57 20 view .LVU321
 1287 0076 C6F818A0 		str	r10, [r6, #24]	@ float
 1288              	.LBE673:
 1289              	.LBE690:
  82:SynthV5.cpp   ****     inc = 0;
 1290              		.loc 19 82 16 view .LVU322
 1291 007a 83F800B0 		strb	fp, [r3]
  83:SynthV5.cpp   **** 
ARM GAS  /var/folders/hp/45mn71hd0ps5f5pnytxy5bt00000gn/T//ccaKukFC.s 			page 52


 1292              		.loc 19 83 5 is_stmt 1 view .LVU323
  85:SynthV5.cpp   ****     osc.SetWaveform(osc.WAVE_TRI);
 1293              		.loc 19 85 5 view .LVU324
 1294              	.LVL80:
 1295              	.LBB691:
 1296              	.LBI668:
  50:../../DaisyExamples/DaisySP/Source/Synthesis/oscillator.h ****     {
 1297              		.loc 17 50 10 view .LVU325
 1298              	.LBB674:
  52:../../DaisyExamples/DaisySP/Source/Synthesis/oscillator.h ****         sr_recip_  = 1.0f / sample_rate;
 1299              		.loc 17 52 9 view .LVU326
  53:../../DaisyExamples/DaisySP/Source/Synthesis/oscillator.h ****         freq_      = 100.0f;
 1300              		.loc 17 53 9 view .LVU327
  54:../../DaisyExamples/DaisySP/Source/Synthesis/oscillator.h ****         amp_       = 0.5f;
 1301              		.loc 17 54 9 view .LVU328
  55:../../DaisyExamples/DaisySP/Source/Synthesis/oscillator.h ****         pw_        = 0.5f;
 1302              		.loc 17 55 9 view .LVU329
  56:../../DaisyExamples/DaisySP/Source/Synthesis/oscillator.h ****         phase_     = 0.0f;
 1303              		.loc 17 56 9 view .LVU330
  57:../../DaisyExamples/DaisySP/Source/Synthesis/oscillator.h ****         phase_inc_ = CalcPhaseInc(freq_);
 1304              		.loc 17 57 9 view .LVU331
  58:../../DaisyExamples/DaisySP/Source/Synthesis/oscillator.h ****         waveform_  = WAVE_SIN;
 1305              		.loc 17 58 9 view .LVU332
  52:../../DaisyExamples/DaisySP/Source/Synthesis/oscillator.h ****         sr_recip_  = 1.0f / sample_rate;
 1306              		.loc 17 52 20 is_stmt 0 view .LVU333
 1307 007e 86ED048A 		vstr.32	s16, [r6, #16]
  54:../../DaisyExamples/DaisySP/Source/Synthesis/oscillator.h ****         amp_       = 0.5f;
 1308              		.loc 17 54 20 view .LVU334
 1309 0082 86ED020A 		vstr.32	s0, [r6, #8]
 1310              	.LBE674:
 1311              	.LBE691:
 1312              	.LBB692:
 1313              	.LBB693:
  66:../../DaisyExamples/DaisySP/Source/Control/adenv.h ****     /** Sets the amount of curve applied. A positve value will create a log
 1314              		.loc 16 66 71 view .LVU335
 1315 0086 9FED659A 		vldr.32	s18, .L104+28
 1316              	.LBE693:
 1317              	.LBE692:
 1318              	.LBB696:
 1319              	.LBB675:
  53:../../DaisyExamples/DaisySP/Source/Synthesis/oscillator.h ****         freq_      = 100.0f;
 1320              		.loc 17 53 20 view .LVU336
 1321 008a C6ED057A 		vstr.32	s15, [r6, #20]
  58:../../DaisyExamples/DaisySP/Source/Synthesis/oscillator.h ****         waveform_  = WAVE_SIN;
 1322              		.loc 17 58 34 view .LVU337
 1323 008e FFF7FEFF 		bl	_ZN7daisysp10Oscillator12CalcPhaseIncEf
 1324              	.LVL81:
  61:../../DaisyExamples/DaisySP/Source/Synthesis/oscillator.h ****     }
 1325              		.loc 17 61 20 view .LVU338
 1326 0092 40F20113 		movw	r3, #257
 1327              	.LBE675:
 1328              	.LBE696:
  89:SynthV5.cpp   ****     ad.SetTime(ADENV_SEG_ATTACK, 0.01f);
 1329              		.loc 19 89 12 view .LVU339
 1330 0096 2846     		mov	r0, r5
 1331              	.LBB697:
 1332              	.LBB676:
ARM GAS  /var/folders/hp/45mn71hd0ps5f5pnytxy5bt00000gn/T//ccaKukFC.s 			page 53


  58:../../DaisyExamples/DaisySP/Source/Synthesis/oscillator.h ****         waveform_  = WAVE_SIN;
 1333              		.loc 17 58 20 view .LVU340
 1334 0098 86ED070A 		vstr.32	s0, [r6, #28]
  59:../../DaisyExamples/DaisySP/Source/Synthesis/oscillator.h ****         eoc_       = true;
 1335              		.loc 17 59 9 is_stmt 1 view .LVU341
  60:../../DaisyExamples/DaisySP/Source/Synthesis/oscillator.h ****         eor_       = true;
 1336              		.loc 17 60 9 view .LVU342
  61:../../DaisyExamples/DaisySP/Source/Synthesis/oscillator.h ****     }
 1337              		.loc 17 61 9 view .LVU343
 1338              	.LBE676:
 1339              	.LBE697:
  89:SynthV5.cpp   ****     ad.SetTime(ADENV_SEG_ATTACK, 0.01f);
 1340              		.loc 19 89 12 is_stmt 0 view .LVU344
 1341 009c B0EE480A 		vmov.f32	s0, s16
 1342              	.LBB698:
 1343              	.LBB677:
  61:../../DaisyExamples/DaisySP/Source/Synthesis/oscillator.h ****     }
 1344              		.loc 17 61 20 view .LVU345
 1345 00a0 3385     		strh	r3, [r6, #40]	@ movhi
 1346              	.LVL82:
  61:../../DaisyExamples/DaisySP/Source/Synthesis/oscillator.h ****     }
 1347              		.loc 17 61 20 view .LVU346
 1348              	.LBE677:
 1349              	.LBE698:
  86:SynthV5.cpp   ****     osc.SetAmp(0.1f);
 1350              		.loc 19 86 5 is_stmt 1 view .LVU347
 1351              	.LBB699:
 1352              	.LBI699:
  77:../../DaisyExamples/DaisySP/Source/Synthesis/oscillator.h ****     /** Sets the waveform to be synthesized by the Process() function.
  78:../../DaisyExamples/DaisySP/Source/Synthesis/oscillator.h ****     */
  79:../../DaisyExamples/DaisySP/Source/Synthesis/oscillator.h ****     inline void SetWaveform(const uint8_t wf)
 1353              		.loc 17 79 17 view .LVU348
 1354              	.LBB700:
  80:../../DaisyExamples/DaisySP/Source/Synthesis/oscillator.h ****     {
  81:../../DaisyExamples/DaisySP/Source/Synthesis/oscillator.h ****         waveform_ = wf < WAVE_LAST ? wf : WAVE_SIN;
 1355              		.loc 17 81 9 view .LVU349
 1356              		.loc 17 81 9 is_stmt 0 view .LVU350
 1357              	.LBE700:
 1358              	.LBE699:
  87:SynthV5.cpp   **** 
 1359              		.loc 19 87 5 is_stmt 1 view .LVU351
 1360              	.LBB702:
 1361              	.LBI679:
  76:../../DaisyExamples/DaisySP/Source/Synthesis/oscillator.h ****     /** Sets the waveform to be synthesized by the Process() function.
 1362              		.loc 17 76 17 view .LVU352
 1363              	.LBB681:
  76:../../DaisyExamples/DaisySP/Source/Synthesis/oscillator.h ****     /** Sets the waveform to be synthesized by the Process() function.
 1364              		.loc 17 76 41 view .LVU353
  76:../../DaisyExamples/DaisySP/Source/Synthesis/oscillator.h ****     /** Sets the waveform to be synthesized by the Process() function.
 1365              		.loc 17 76 41 is_stmt 0 view .LVU354
 1366              	.LBE681:
 1367              	.LBE702:
  89:SynthV5.cpp   ****     ad.SetTime(ADENV_SEG_ATTACK, 0.01f);
 1368              		.loc 19 89 5 is_stmt 1 view .LVU355
 1369              	.LBB703:
 1370              	.LBB701:
 1371              		.loc 17 81 19 is_stmt 0 view .LVU356
ARM GAS  /var/folders/hp/45mn71hd0ps5f5pnytxy5bt00000gn/T//ccaKukFC.s 			page 54


 1372 00a2 86F800B0 		strb	fp, [r6]
 1373              	.LBE701:
 1374              	.LBE703:
 1375              	.LBB704:
 1376              	.LBB682:
  76:../../DaisyExamples/DaisySP/Source/Synthesis/oscillator.h ****     /** Sets the waveform to be synthesized by the Process() function.
 1377              		.loc 17 76 46 view .LVU357
 1378 00a6 C6ED019A 		vstr.32	s19, [r6, #4]
 1379              	.LBE682:
 1380              	.LBE704:
  89:SynthV5.cpp   ****     ad.SetTime(ADENV_SEG_ATTACK, 0.01f);
 1381              		.loc 19 89 12 view .LVU358
 1382 00aa FFF7FEFF 		bl	_ZN7daisysp5AdEnv4InitEf
 1383              	.LVL83:
  90:SynthV5.cpp   ****     ad.SetTime(ADENV_SEG_DECAY, 1.0f);
 1384              		.loc 19 90 5 is_stmt 1 view .LVU359
 1385              	.LBB705:
 1386              	.LBI692:
  66:../../DaisyExamples/DaisySP/Source/Control/adenv.h ****     /** Sets the amount of curve applied. A positve value will create a log
 1387              		.loc 16 66 17 view .LVU360
 1388              	.LBB694:
  66:../../DaisyExamples/DaisySP/Source/Control/adenv.h ****     /** Sets the amount of curve applied. A positve value will create a log
 1389              		.loc 16 66 52 view .LVU361
 1390              	.LBE694:
 1391              	.LBE705:
 1392              		.loc 19 96 20 is_stmt 0 view .LVU362
 1393 00ae 08F1680C 		add	ip, r8, #104
 1394              		.loc 19 96 16 view .LVU363
 1395 00b2 F0EE690A 		vmov.f32	s1, s19
 1396 00b6 9FED5A0A 		vldr.32	s0, .L104+32
 1397              	.LBB706:
 1398              	.LBB707:
  74:../../DaisyExamples/DaisySP/Source/Control/adenv.h ****     /** Sets the maximum value of the envelope output.
 1399              		.loc 16 74 42 view .LVU364
 1400 00ba C5F814A0 		str	r10, [r5, #20]	@ float
 1401              	.LBE707:
 1402              	.LBE706:
 1403              	.LBB709:
 1404              	.LBB710:
  70:../../DaisyExamples/DaisySP/Source/Control/adenv.h ****     /** Sets the minimum value of the envelope output.
 1405              		.loc 16 70 56 view .LVU365
 1406 00be C5F82090 		str	r9, [r5, #32]	@ float
 1407              	.LBE710:
 1408              	.LBE709:
 1409              	.LBB712:
 1410              	.LBB713:
 1411              	.LBB714:
 1412              	.LBB715:
  93:../../DaisyExamples/libDaisy/src/hid/midi.h ****                                        sizeof(MidiUartTransport));
 1413              		.loc 4 93 39 view .LVU366
 1414 00c2 08F5C879 		add	r9, r8, #400
 1415              	.LBE715:
 1416              	.LBE714:
 1417              	.LBE713:
 1418              	.LBE712:
 1419              	.LBB719:
 1420              	.LBB695:
ARM GAS  /var/folders/hp/45mn71hd0ps5f5pnytxy5bt00000gn/T//ccaKukFC.s 			page 55


  66:../../DaisyExamples/DaisySP/Source/Control/adenv.h ****     /** Sets the amount of curve applied. A positve value will create a log
 1421              		.loc 16 66 71 view .LVU367
 1422 00c6 85ED029A 		vstr.32	s18, [r5, #8]
 1423              	.LVL84:
  66:../../DaisyExamples/DaisySP/Source/Control/adenv.h ****     /** Sets the amount of curve applied. A positve value will create a log
 1424              		.loc 16 66 71 view .LVU368
 1425              	.LBE695:
 1426              	.LBE719:
  91:SynthV5.cpp   ****     ad.SetMax(1);
 1427              		.loc 19 91 5 is_stmt 1 view .LVU369
 1428              	.LBB720:
 1429              	.LBI720:
  66:../../DaisyExamples/DaisySP/Source/Control/adenv.h ****     /** Sets the amount of curve applied. A positve value will create a log
 1430              		.loc 16 66 17 view .LVU370
 1431              	.LBB721:
  66:../../DaisyExamples/DaisySP/Source/Control/adenv.h ****     /** Sets the amount of curve applied. A positve value will create a log
 1432              		.loc 16 66 52 view .LVU371
  66:../../DaisyExamples/DaisySP/Source/Control/adenv.h ****     /** Sets the amount of curve applied. A positve value will create a log
 1433              		.loc 16 66 71 is_stmt 0 view .LVU372
 1434 00ca C5ED038A 		vstr.32	s17, [r5, #12]
 1435              	.LVL85:
  66:../../DaisyExamples/DaisySP/Source/Control/adenv.h ****     /** Sets the amount of curve applied. A positve value will create a log
 1436              		.loc 16 66 71 view .LVU373
 1437              	.LBE721:
 1438              	.LBE720:
  92:SynthV5.cpp   ****     ad.SetMin(0);
 1439              		.loc 19 92 5 is_stmt 1 view .LVU374
 1440              	.LBB722:
 1441              	.LBI722:
  78:../../DaisyExamples/DaisySP/Source/Control/adenv.h ****     /** Returns the current output value without processing the next sample */
 1442              		.loc 16 78 17 view .LVU375
 1443              	.LBB723:
  78:../../DaisyExamples/DaisySP/Source/Control/adenv.h ****     /** Returns the current output value without processing the next sample */
 1444              		.loc 16 78 37 view .LVU376
  78:../../DaisyExamples/DaisySP/Source/Control/adenv.h ****     /** Returns the current output value without processing the next sample */
 1445              		.loc 16 78 42 is_stmt 0 view .LVU377
 1446 00ce C5ED068A 		vstr.32	s17, [r5, #24]
 1447              	.LVL86:
  78:../../DaisyExamples/DaisySP/Source/Control/adenv.h ****     /** Returns the current output value without processing the next sample */
 1448              		.loc 16 78 42 view .LVU378
 1449              	.LBE723:
 1450              	.LBE722:
  93:SynthV5.cpp   ****     ad.SetCurve(0.5);
 1451              		.loc 19 93 5 is_stmt 1 view .LVU379
 1452              	.LBB724:
 1453              	.LBI706:
  74:../../DaisyExamples/DaisySP/Source/Control/adenv.h ****     /** Sets the maximum value of the envelope output.
 1454              		.loc 16 74 17 view .LVU380
 1455              	.LBB708:
  74:../../DaisyExamples/DaisySP/Source/Control/adenv.h ****     /** Sets the maximum value of the envelope output.
 1456              		.loc 16 74 37 view .LVU381
  74:../../DaisyExamples/DaisySP/Source/Control/adenv.h ****     /** Sets the maximum value of the envelope output.
 1457              		.loc 16 74 37 is_stmt 0 view .LVU382
 1458              	.LBE708:
 1459              	.LBE724:
  94:SynthV5.cpp   **** 
 1460              		.loc 19 94 5 is_stmt 1 view .LVU383
ARM GAS  /var/folders/hp/45mn71hd0ps5f5pnytxy5bt00000gn/T//ccaKukFC.s 			page 56


 1461              	.LBB725:
 1462              	.LBI709:
  70:../../DaisyExamples/DaisySP/Source/Control/adenv.h ****     /** Sets the minimum value of the envelope output.
 1463              		.loc 16 70 17 view .LVU384
 1464              	.LBB711:
  70:../../DaisyExamples/DaisySP/Source/Control/adenv.h ****     /** Sets the minimum value of the envelope output.
 1465              		.loc 16 70 42 view .LVU385
  70:../../DaisyExamples/DaisySP/Source/Control/adenv.h ****     /** Sets the minimum value of the envelope output.
 1466              		.loc 16 70 42 is_stmt 0 view .LVU386
 1467              	.LBE711:
 1468              	.LBE725:
 1469              		.loc 19 96 5 is_stmt 1 view .LVU387
 1470 00d2 DFF880A1 		ldr	r10, .L104+84
 1471              		.loc 19 96 20 is_stmt 0 view .LVU388
 1472 00d6 BCE80F00 		ldmia	ip!, {r0, r1, r2, r3}
 1473 00da 0FC7     		stmia	r7!, {r0, r1, r2, r3}
 1474 00dc 9CE80F00 		ldm	ip, {r0, r1, r2, r3}
 1475 00e0 87E80F00 		stm	r7, {r0, r1, r2, r3}
 1476              		.loc 19 96 16 view .LVU389
 1477 00e4 0022     		movs	r2, #0
 1478 00e6 02A9     		add	r1, sp, #8
 1479 00e8 4E48     		ldr	r0, .L104+36
 1480 00ea FFF7FEFF 		bl	_ZN5daisy9Parameter4InitENS_13AnalogControlEffNS0_5CurveE
 1481              	.LVL87:
 1482              	.LBB726:
 1483              	.LBI726:
 1484              		.loc 2 23 5 is_stmt 1 view .LVU390
 1485              		.loc 2 23 5 is_stmt 0 view .LVU391
 1486              	.LBE726:
  97:SynthV5.cpp   ****     p_release.Init(hw.knob2, 0.01f, 0.7f, Parameter::LINEAR);
 1487              		.loc 19 97 5 is_stmt 1 view .LVU392
 1488              		.loc 19 97 23 is_stmt 0 view .LVU393
 1489 00ee 08F1880C 		add	ip, r8, #136
 1490 00f2 0DF1080E 		add	lr, sp, #8
 1491              		.loc 19 97 19 view .LVU394
 1492 00f6 B0EE490A 		vmov.f32	s0, s18
 1493 00fa DFED4B0A 		vldr.32	s1, .L104+40
 1494              		.loc 19 97 23 view .LVU395
 1495 00fe BCE80F00 		ldmia	ip!, {r0, r1, r2, r3}
 1496 0102 AEE80F00 		stmia	lr!, {r0, r1, r2, r3}
 1497 0106 9CE80F00 		ldm	ip, {r0, r1, r2, r3}
 1498 010a 87E80F00 		stm	r7, {r0, r1, r2, r3}
 1499              		.loc 19 97 19 view .LVU396
 1500 010e 0022     		movs	r2, #0
 1501 0110 02A9     		add	r1, sp, #8
 1502 0112 4648     		ldr	r0, .L104+44
 1503 0114 FFF7FEFF 		bl	_ZN5daisy9Parameter4InitENS_13AnalogControlEffNS0_5CurveE
 1504              	.LVL88:
 1505              	.LBB727:
 1506              	.LBI727:
 1507              		.loc 2 23 5 is_stmt 1 view .LVU397
 1508              		.loc 2 23 5 is_stmt 0 view .LVU398
 1509              	.LBE727:
  98:SynthV5.cpp   ****     hw.midi.StartReceive();
 1510              		.loc 19 98 5 is_stmt 1 view .LVU399
 1511              	.LBB728:
 1512              	.LBI712:
ARM GAS  /var/folders/hp/45mn71hd0ps5f5pnytxy5bt00000gn/T//ccaKukFC.s 			page 57


 175:../../DaisyExamples/libDaisy/src/hid/midi.h ****     {
 1513              		.loc 4 175 10 view .LVU400
 1514              	.LBB718:
 1515              	.LBB717:
 1516              	.LBI714:
  89:../../DaisyExamples/libDaisy/src/hid/midi.h ****     {
 1517              		.loc 4 89 17 view .LVU401
 1518              	.LBB716:
  91:../../DaisyExamples/libDaisy/src/hid/midi.h ****         parse_callback_ = parse_callback;
 1519              		.loc 4 91 9 view .LVU402
  91:../../DaisyExamples/libDaisy/src/hid/midi.h ****         parse_callback_ = parse_callback;
 1520              		.loc 4 91 25 is_stmt 0 view .LVU403
 1521 0118 08F5C073 		add	r3, r8, #384
  93:../../DaisyExamples/libDaisy/src/hid/midi.h ****                                        sizeof(MidiUartTransport));
 1522              		.loc 4 93 39 view .LVU404
 1523 011c 1421     		movs	r1, #20
 1524 011e 4846     		mov	r0, r9
  91:../../DaisyExamples/libDaisy/src/hid/midi.h ****         parse_callback_ = parse_callback;
 1525              		.loc 4 91 25 view .LVU405
 1526 0120 C8F89C31 		str	r3, [r8, #412]
  92:../../DaisyExamples/libDaisy/src/hid/midi.h ****         dsy_dma_clear_cache_for_buffer((uint8_t*)this,
 1527              		.loc 4 92 9 is_stmt 1 view .LVU406
  92:../../DaisyExamples/libDaisy/src/hid/midi.h ****         dsy_dma_clear_cache_for_buffer((uint8_t*)this,
 1528              		.loc 4 92 25 is_stmt 0 view .LVU407
 1529 0124 424B     		ldr	r3, .L104+48
 1530 0126 C8F8A031 		str	r3, [r8, #416]
  93:../../DaisyExamples/libDaisy/src/hid/midi.h ****                                        sizeof(MidiUartTransport));
 1531              		.loc 4 93 9 is_stmt 1 view .LVU408
  93:../../DaisyExamples/libDaisy/src/hid/midi.h ****                                        sizeof(MidiUartTransport));
 1532              		.loc 4 93 39 is_stmt 0 view .LVU409
 1533 012a FFF7FEFF 		bl	dsy_dma_clear_cache_for_buffer
 1534              	.LVL89:
  95:../../DaisyExamples/libDaisy/src/hid/midi.h ****             rx_buffer, rx_buffer_size, MidiUartTransport::rxCallback, this);
 1535              		.loc 4 95 9 is_stmt 1 view .LVU410
  95:../../DaisyExamples/libDaisy/src/hid/midi.h ****             rx_buffer, rx_buffer_size, MidiUartTransport::rxCallback, this);
 1536              		.loc 4 95 29 is_stmt 0 view .LVU411
 1537 012e 414B     		ldr	r3, .L104+52
 1538 0130 4846     		mov	r0, r9
 1539 0132 CDF80090 		str	r9, [sp]
 1540 0136 D8E96512 		ldrd	r1, r2, [r8, #404]
 1541 013a FFF7FEFF 		bl	_ZN5daisy11UartHandler14DmaListenStartEPhjPFvS1_jPvNS0_6ResultEES2_
 1542              	.LVL90:
  95:../../DaisyExamples/libDaisy/src/hid/midi.h ****             rx_buffer, rx_buffer_size, MidiUartTransport::rxCallback, this);
 1543              		.loc 4 95 29 view .LVU412
 1544              	.LBE716:
 1545              	.LBE717:
 1546              	.LBE718:
 1547              	.LBE728:
  99:SynthV5.cpp   **** 
 100:SynthV5.cpp   ****     hw.StartAdc();
 1548              		.loc 19 100 5 is_stmt 1 view .LVU413
 1549              		.loc 19 100 16 is_stmt 0 view .LVU414
 1550 013e 4046     		mov	r0, r8
 1551 0140 FFF7FEFF 		bl	_ZN5daisy8DaisyPod8StartAdcEv
 1552              	.LVL91:
 101:SynthV5.cpp   ****     hw.StartAudio(AudioCallback);
 1553              		.loc 19 101 5 is_stmt 1 view .LVU415
ARM GAS  /var/folders/hp/45mn71hd0ps5f5pnytxy5bt00000gn/T//ccaKukFC.s 			page 58


 1554              		.loc 19 101 18 is_stmt 0 view .LVU416
 1555 0144 3C49     		ldr	r1, .L104+56
 1556 0146 4046     		mov	r0, r8
 1557 0148 FFF7FEFF 		bl	_ZN5daisy8DaisyPod10StartAudioEPFvPKfPfjE
 1558              	.LVL92:
 1559              	.L91:
 102:SynthV5.cpp   **** 
 103:SynthV5.cpp   ****     while (1) 
 1560              		.loc 19 103 5 is_stmt 1 view .LVU417
 1561              	.LBB729:
 104:SynthV5.cpp   ****     {
 105:SynthV5.cpp   ****         // Handling midi and converting frequency to 0...1 value
 106:SynthV5.cpp   ****         midi.Listen();
 1562              		.loc 19 106 9 view .LVU418
 1563              	.LBB730:
 1564              	.LBI730:
 181:../../DaisyExamples/libDaisy/src/hid/midi.h ****     {
 1565              		.loc 4 181 10 view .LVU419
 1566              	.LBB731:
 186:../../DaisyExamples/libDaisy/src/hid/midi.h ****         {
 1567              		.loc 4 186 32 is_stmt 0 view .LVU420
 1568 014c 3B48     		ldr	r0, .L104+60
 1569 014e FFF7FEFF 		bl	_ZN5daisy16MidiUsbTransport8RxActiveEv
 1570              	.LVL93:
 186:../../DaisyExamples/libDaisy/src/hid/midi.h ****         {
 1571              		.loc 4 186 9 view .LVU421
 1572 0152 0028     		cmp	r0, #0
 1573 0154 47D0     		beq	.L102
 1574              	.L89:
 1575              	.LBE731:
 1576              	.LBE730:
 1577              	.LBB735:
 1578              	.LBB736:
 1579              	.LBB737:
 173:../../DaisyExamples/libDaisy/src/util/FIFO.h ****         if(numElements < 0)
 1580              		.loc 5 173 31 view .LVU422
 1581 0156 D4F8AC70 		ldr	r7, [r4, #172]
 1582              	.LVL94:
 1583              	.L101:
 173:../../DaisyExamples/libDaisy/src/util/FIFO.h ****         if(numElements < 0)
 1584              		.loc 5 173 43 view .LVU423
 1585 015a D4F8B030 		ldr	r3, [r4, #176]
 1586 015e F91A     		subs	r1, r7, r3
 1587              	.L96:
 1588              	.LBE737:
 1589              	.LBE736:
 1590              	.LBE735:
 107:SynthV5.cpp   ****         while(midi.HasEvents())
 1591              		.loc 19 107 9 is_stmt 1 view .LVU424
 1592              		.loc 19 107 29 view .LVU425
 1593              	.LVL95:
 1594              	.LBB744:
 1595              	.LBI735:
 197:../../DaisyExamples/libDaisy/src/hid/midi.h **** 
 1596              		.loc 4 197 10 view .LVU426
 1597              	.LBB741:
 1598              	.LBI736:
ARM GAS  /var/folders/hp/45mn71hd0ps5f5pnytxy5bt00000gn/T//ccaKukFC.s 			page 59


 171:../../DaisyExamples/libDaisy/src/util/FIFO.h ****     {
 1599              		.loc 5 171 12 view .LVU427
 1600              	.LBB738:
 174:../../DaisyExamples/libDaisy/src/util/FIFO.h ****             numElements += bufferSize_;
 1601              		.loc 5 174 9 is_stmt 0 view .LVU428
 1602 0160 0029     		cmp	r1, #0
 173:../../DaisyExamples/libDaisy/src/util/FIFO.h ****         if(numElements < 0)
 1603              		.loc 5 173 41 view .LVU429
 1604 0162 0A46     		mov	r2, r1
 1605              	.LVL96:
 174:../../DaisyExamples/libDaisy/src/util/FIFO.h ****             numElements += bufferSize_;
 1606              		.loc 5 174 9 view .LVU430
 1607 0164 3BDB     		blt	.L103
 1608              	.LVL97:
 1609              	.L90:
 174:../../DaisyExamples/libDaisy/src/util/FIFO.h ****             numElements += bufferSize_;
 1610              		.loc 5 174 9 view .LVU431
 1611              	.LBE738:
 1612              	.LBE741:
 1613              	.LBE744:
 1614              		.loc 19 107 29 view .LVU432
 1615 0166 002A     		cmp	r2, #0
 1616 0168 F0D0     		beq	.L91
 1617              	.LBB745:
 108:SynthV5.cpp   ****         {
 109:SynthV5.cpp   ****             auto msg = midi.PopEvent();
 1618              		.loc 19 109 13 is_stmt 1 view .LVU433
 1619              	.LVL98:
 1620              	.LBB746:
 1621              	.LBI746:
 203:../../DaisyExamples/libDaisy/src/hid/midi.h **** 
 1622              		.loc 4 203 15 view .LVU434
 1623              	.LBB747:
 1624              	.LBI747:
 101:../../DaisyExamples/libDaisy/src/util/FIFO.h ****     {
 1625              		.loc 5 101 7 view .LVU435
 1626              	.LBB748:
 103:../../DaisyExamples/libDaisy/src/util/FIFO.h ****             return T();
 1627              		.loc 5 103 9 is_stmt 0 view .LVU436
 1628 016a 9F42     		cmp	r7, r3
 1629 016c F8D0     		beq	.L96
 1630              	.LBB749:
 107:../../DaisyExamples/libDaisy/src/util/FIFO.h ****             bufferOut_++;
 1631              		.loc 5 107 40 view .LVU437
 1632 016e 03EBC302 		add	r2, r3, r3, lsl #3
 1633 0172 D4F8A400 		ldr	r0, [r4, #164]
 108:../../DaisyExamples/libDaisy/src/util/FIFO.h ****             if(bufferOut_ >= bufferSize_)
 1634              		.loc 5 108 13 view .LVU438
 1635 0176 0133     		adds	r3, r3, #1
 109:../../DaisyExamples/libDaisy/src/util/FIFO.h ****                 bufferOut_ -= bufferSize_;
 1636              		.loc 5 109 30 view .LVU439
 1637 0178 D4F8A860 		ldr	r6, [r4, #168]
 107:../../DaisyExamples/libDaisy/src/util/FIFO.h ****             bufferOut_++;
 1638              		.loc 5 107 40 view .LVU440
 1639 017c 00EB0211 		add	r1, r0, r2, lsl #4
 109:../../DaisyExamples/libDaisy/src/util/FIFO.h ****                 bufferOut_ -= bufferSize_;
 1640              		.loc 5 109 13 view .LVU441
ARM GAS  /var/folders/hp/45mn71hd0ps5f5pnytxy5bt00000gn/T//ccaKukFC.s 			page 60


 1641 0180 B342     		cmp	r3, r6
 107:../../DaisyExamples/libDaisy/src/util/FIFO.h ****             bufferOut_++;
 1642              		.loc 5 107 40 view .LVU442
 1643 0182 4FEA0212 		lsl	r2, r2, #4
 107:../../DaisyExamples/libDaisy/src/util/FIFO.h ****             bufferOut_++;
 1644              		.loc 5 107 24 view .LVU443
 1645 0186 91F808E0 		ldrb	lr, [r1, #8]	@ zero_extendqisi2
 1646 018a 825C     		ldrb	r2, [r0, r2]	@ zero_extendqisi2
 1647              	.LVL99:
 107:../../DaisyExamples/libDaisy/src/util/FIFO.h ****             bufferOut_++;
 1648              		.loc 5 107 24 view .LVU444
 1649 018c 497A     		ldrb	r1, [r1, #9]	@ zero_extendqisi2
 1650              	.LVL100:
 108:../../DaisyExamples/libDaisy/src/util/FIFO.h ****             if(bufferOut_ >= bufferSize_)
 1651              		.loc 5 108 13 view .LVU445
 1652 018e C4F8B030 		str	r3, [r4, #176]
 109:../../DaisyExamples/libDaisy/src/util/FIFO.h ****                 bufferOut_ -= bufferSize_;
 1653              		.loc 5 109 13 view .LVU446
 1654 0192 02D3     		bcc	.L93
 110:../../DaisyExamples/libDaisy/src/util/FIFO.h ****             return result;
 1655              		.loc 5 110 28 view .LVU447
 1656 0194 9B1B     		subs	r3, r3, r6
 1657 0196 C4F8B030 		str	r3, [r4, #176]
 1658              	.L93:
 1659              	.LVL101:
 110:../../DaisyExamples/libDaisy/src/util/FIFO.h ****             return result;
 1660              		.loc 5 110 28 view .LVU448
 1661              	.LBE749:
 1662              	.LBE748:
 1663              	.LBE747:
 1664              	.LBE746:
 110:SynthV5.cpp   ****             switch(msg.type)
 1665              		.loc 19 110 13 is_stmt 1 view .LVU449
 1666              	.LBB750:
 1667 019a 012A     		cmp	r2, #1
 1668 019c DDD1     		bne	.L101
 1669              	.LBE750:
 1670              	.LBE745:
 1671              	.LBE729:
 111:SynthV5.cpp   ****             {
 112:SynthV5.cpp   ****                 case NoteOn:
 1672              		.loc 19 112 17 view .LVU450
 113:SynthV5.cpp   ****                 {
 1673              		.loc 19 113 17 view .LVU451
 1674              	.LBB770:
 1675              	.LBB765:
 1676              	.LBB763:
 1677              	.LBB751:
 114:SynthV5.cpp   ****                     ad.Trigger();
 1678              		.loc 19 114 21 view .LVU452
 1679              	.LVL102:
 1680              	.LBB752:
 1681              	.LBI752:
  64:../../DaisyExamples/DaisySP/Source/Control/adenv.h ****     /** Sets the length of time (in seconds) for a specific segment. */
 1682              		.loc 16 64 17 view .LVU453
 1683              	.LBB753:
  64:../../DaisyExamples/DaisySP/Source/Control/adenv.h ****     /** Sets the length of time (in seconds) for a specific segment. */
ARM GAS  /var/folders/hp/45mn71hd0ps5f5pnytxy5bt00000gn/T//ccaKukFC.s 			page 61


 1684              		.loc 16 64 29 view .LVU454
  64:../../DaisyExamples/DaisySP/Source/Control/adenv.h ****     /** Sets the length of time (in seconds) for a specific segment. */
 1685              		.loc 16 64 38 is_stmt 0 view .LVU455
 1686 019e 85F83420 		strb	r2, [r5, #52]
 1687              	.LVL103:
  64:../../DaisyExamples/DaisySP/Source/Control/adenv.h ****     /** Sets the length of time (in seconds) for a specific segment. */
 1688              		.loc 16 64 38 view .LVU456
 1689              	.LBE753:
 1690              	.LBE752:
 115:SynthV5.cpp   ****                     auto note_msg = msg.AsNoteOn();
 1691              		.loc 19 115 21 is_stmt 1 view .LVU457
 1692              	.LBB754:
 1693              	.LBI754:
 1694              		.file 20 "../../DaisyExamples/libDaisy/src/hid/MidiEvent.h"
   1:../../DaisyExamples/libDaisy/src/hid/MidiEvent.h **** // TODO: make this adjustable
   2:../../DaisyExamples/libDaisy/src/hid/MidiEvent.h **** #define SYSEX_BUFFER_LEN 128
   3:../../DaisyExamples/libDaisy/src/hid/MidiEvent.h **** 
   4:../../DaisyExamples/libDaisy/src/hid/MidiEvent.h **** namespace daisy
   5:../../DaisyExamples/libDaisy/src/hid/MidiEvent.h **** {
   6:../../DaisyExamples/libDaisy/src/hid/MidiEvent.h **** /** @addtogroup midi MIDI
   7:../../DaisyExamples/libDaisy/src/hid/MidiEvent.h ****  *  @ingroup human_interface
   8:../../DaisyExamples/libDaisy/src/hid/MidiEvent.h ****  *  @ingroup libdaisy
   9:../../DaisyExamples/libDaisy/src/hid/MidiEvent.h ****  *  @brief MIDI handlers, transports, and message types
  10:../../DaisyExamples/libDaisy/src/hid/MidiEvent.h ****  *  @{
  11:../../DaisyExamples/libDaisy/src/hid/MidiEvent.h ****  */
  12:../../DaisyExamples/libDaisy/src/hid/MidiEvent.h **** 
  13:../../DaisyExamples/libDaisy/src/hid/MidiEvent.h **** /** @defgroup midi_events MIDI_EVENTS
  14:../../DaisyExamples/libDaisy/src/hid/MidiEvent.h ****  *  @{
  15:../../DaisyExamples/libDaisy/src/hid/MidiEvent.h **** */
  16:../../DaisyExamples/libDaisy/src/hid/MidiEvent.h **** 
  17:../../DaisyExamples/libDaisy/src/hid/MidiEvent.h **** /** Parsed from the Status Byte, these are the common Midi Messages that can be handled. \n
  18:../../DaisyExamples/libDaisy/src/hid/MidiEvent.h **** At this time only 3-byte messages are correctly parsed into MidiEvents.
  19:../../DaisyExamples/libDaisy/src/hid/MidiEvent.h **** */
  20:../../DaisyExamples/libDaisy/src/hid/MidiEvent.h **** enum MidiMessageType
  21:../../DaisyExamples/libDaisy/src/hid/MidiEvent.h **** {
  22:../../DaisyExamples/libDaisy/src/hid/MidiEvent.h ****     NoteOff,               /**< & */
  23:../../DaisyExamples/libDaisy/src/hid/MidiEvent.h ****     NoteOn,                /**< & */
  24:../../DaisyExamples/libDaisy/src/hid/MidiEvent.h ****     PolyphonicKeyPressure, /**< & */
  25:../../DaisyExamples/libDaisy/src/hid/MidiEvent.h ****     ControlChange,         /**< & */
  26:../../DaisyExamples/libDaisy/src/hid/MidiEvent.h ****     ProgramChange,         /**< & */
  27:../../DaisyExamples/libDaisy/src/hid/MidiEvent.h ****     ChannelPressure,       /**< & */
  28:../../DaisyExamples/libDaisy/src/hid/MidiEvent.h ****     PitchBend,             /**< & */
  29:../../DaisyExamples/libDaisy/src/hid/MidiEvent.h ****     SystemCommon,          /**< & */
  30:../../DaisyExamples/libDaisy/src/hid/MidiEvent.h ****     SystemRealTime,        /**< & */
  31:../../DaisyExamples/libDaisy/src/hid/MidiEvent.h ****     ChannelMode,           /**< & */
  32:../../DaisyExamples/libDaisy/src/hid/MidiEvent.h ****     MessageLast,           /**< & */
  33:../../DaisyExamples/libDaisy/src/hid/MidiEvent.h **** };
  34:../../DaisyExamples/libDaisy/src/hid/MidiEvent.h **** 
  35:../../DaisyExamples/libDaisy/src/hid/MidiEvent.h **** enum SystemCommonType
  36:../../DaisyExamples/libDaisy/src/hid/MidiEvent.h **** {
  37:../../DaisyExamples/libDaisy/src/hid/MidiEvent.h ****     SystemExclusive,     /**< & */
  38:../../DaisyExamples/libDaisy/src/hid/MidiEvent.h ****     MTCQuarterFrame,     /**< & */
  39:../../DaisyExamples/libDaisy/src/hid/MidiEvent.h ****     SongPositionPointer, /**< & */
  40:../../DaisyExamples/libDaisy/src/hid/MidiEvent.h ****     SongSelect,          /**< & */
  41:../../DaisyExamples/libDaisy/src/hid/MidiEvent.h ****     SCUndefined0,        /**< & */
  42:../../DaisyExamples/libDaisy/src/hid/MidiEvent.h ****     SCUndefined1,        /**< & */
  43:../../DaisyExamples/libDaisy/src/hid/MidiEvent.h ****     TuneRequest,         /**< & */
ARM GAS  /var/folders/hp/45mn71hd0ps5f5pnytxy5bt00000gn/T//ccaKukFC.s 			page 62


  44:../../DaisyExamples/libDaisy/src/hid/MidiEvent.h ****     SysExEnd,            /**< & */
  45:../../DaisyExamples/libDaisy/src/hid/MidiEvent.h ****     SystemCommonLast,    /**< & */
  46:../../DaisyExamples/libDaisy/src/hid/MidiEvent.h **** };
  47:../../DaisyExamples/libDaisy/src/hid/MidiEvent.h **** 
  48:../../DaisyExamples/libDaisy/src/hid/MidiEvent.h **** enum SystemRealTimeType
  49:../../DaisyExamples/libDaisy/src/hid/MidiEvent.h **** {
  50:../../DaisyExamples/libDaisy/src/hid/MidiEvent.h ****     TimingClock,        /**< & */
  51:../../DaisyExamples/libDaisy/src/hid/MidiEvent.h ****     SRTUndefined0,      /**< & */
  52:../../DaisyExamples/libDaisy/src/hid/MidiEvent.h ****     Start,              /**< & */
  53:../../DaisyExamples/libDaisy/src/hid/MidiEvent.h ****     Continue,           /**< & */
  54:../../DaisyExamples/libDaisy/src/hid/MidiEvent.h ****     Stop,               /**< & */
  55:../../DaisyExamples/libDaisy/src/hid/MidiEvent.h ****     SRTUndefined1,      /**< & */
  56:../../DaisyExamples/libDaisy/src/hid/MidiEvent.h ****     ActiveSensing,      /**< & */
  57:../../DaisyExamples/libDaisy/src/hid/MidiEvent.h ****     Reset,              /**< & */
  58:../../DaisyExamples/libDaisy/src/hid/MidiEvent.h ****     SystemRealTimeLast, /**< & */
  59:../../DaisyExamples/libDaisy/src/hid/MidiEvent.h **** };
  60:../../DaisyExamples/libDaisy/src/hid/MidiEvent.h **** 
  61:../../DaisyExamples/libDaisy/src/hid/MidiEvent.h **** enum ChannelModeType
  62:../../DaisyExamples/libDaisy/src/hid/MidiEvent.h **** {
  63:../../DaisyExamples/libDaisy/src/hid/MidiEvent.h ****     AllSoundOff,         /**< & */
  64:../../DaisyExamples/libDaisy/src/hid/MidiEvent.h ****     ResetAllControllers, /**< & */
  65:../../DaisyExamples/libDaisy/src/hid/MidiEvent.h ****     LocalControl,        /**< & */
  66:../../DaisyExamples/libDaisy/src/hid/MidiEvent.h ****     AllNotesOff,         /**< & */
  67:../../DaisyExamples/libDaisy/src/hid/MidiEvent.h ****     OmniModeOff,         /**< & */
  68:../../DaisyExamples/libDaisy/src/hid/MidiEvent.h ****     OmniModeOn,          /**< & */
  69:../../DaisyExamples/libDaisy/src/hid/MidiEvent.h ****     MonoModeOn,          /**< & */
  70:../../DaisyExamples/libDaisy/src/hid/MidiEvent.h ****     PolyModeOn,          /**< & */
  71:../../DaisyExamples/libDaisy/src/hid/MidiEvent.h ****     ChannelModeLast,     /**< & */
  72:../../DaisyExamples/libDaisy/src/hid/MidiEvent.h **** };
  73:../../DaisyExamples/libDaisy/src/hid/MidiEvent.h **** 
  74:../../DaisyExamples/libDaisy/src/hid/MidiEvent.h **** /** Struct containing note, and velocity data for a given channel.
  75:../../DaisyExamples/libDaisy/src/hid/MidiEvent.h **** Can be made from MidiEvent
  76:../../DaisyExamples/libDaisy/src/hid/MidiEvent.h **** */
  77:../../DaisyExamples/libDaisy/src/hid/MidiEvent.h **** struct NoteOffEvent
  78:../../DaisyExamples/libDaisy/src/hid/MidiEvent.h **** {
  79:../../DaisyExamples/libDaisy/src/hid/MidiEvent.h ****     int     channel;  /**< & */
  80:../../DaisyExamples/libDaisy/src/hid/MidiEvent.h ****     uint8_t note;     /**< & */
  81:../../DaisyExamples/libDaisy/src/hid/MidiEvent.h ****     uint8_t velocity; /**< & */
  82:../../DaisyExamples/libDaisy/src/hid/MidiEvent.h **** };
  83:../../DaisyExamples/libDaisy/src/hid/MidiEvent.h **** 
  84:../../DaisyExamples/libDaisy/src/hid/MidiEvent.h **** 
  85:../../DaisyExamples/libDaisy/src/hid/MidiEvent.h **** /** Struct containing note, and velocity data for a given channel.
  86:../../DaisyExamples/libDaisy/src/hid/MidiEvent.h **** Can be made from MidiEvent
  87:../../DaisyExamples/libDaisy/src/hid/MidiEvent.h **** */
  88:../../DaisyExamples/libDaisy/src/hid/MidiEvent.h **** struct NoteOnEvent
  89:../../DaisyExamples/libDaisy/src/hid/MidiEvent.h **** {
  90:../../DaisyExamples/libDaisy/src/hid/MidiEvent.h ****     int     channel;  /**< & */
  91:../../DaisyExamples/libDaisy/src/hid/MidiEvent.h ****     uint8_t note;     /**< & */
  92:../../DaisyExamples/libDaisy/src/hid/MidiEvent.h ****     uint8_t velocity; /**< & */
  93:../../DaisyExamples/libDaisy/src/hid/MidiEvent.h **** };
  94:../../DaisyExamples/libDaisy/src/hid/MidiEvent.h **** /** Struct containing note, and pressure data for a given channel.
  95:../../DaisyExamples/libDaisy/src/hid/MidiEvent.h **** Can be made from MidiEvent
  96:../../DaisyExamples/libDaisy/src/hid/MidiEvent.h **** */
  97:../../DaisyExamples/libDaisy/src/hid/MidiEvent.h **** struct PolyphonicKeyPressureEvent
  98:../../DaisyExamples/libDaisy/src/hid/MidiEvent.h **** {
  99:../../DaisyExamples/libDaisy/src/hid/MidiEvent.h ****     int     channel;
 100:../../DaisyExamples/libDaisy/src/hid/MidiEvent.h ****     uint8_t note;
ARM GAS  /var/folders/hp/45mn71hd0ps5f5pnytxy5bt00000gn/T//ccaKukFC.s 			page 63


 101:../../DaisyExamples/libDaisy/src/hid/MidiEvent.h ****     uint8_t pressure;
 102:../../DaisyExamples/libDaisy/src/hid/MidiEvent.h **** };
 103:../../DaisyExamples/libDaisy/src/hid/MidiEvent.h **** /** Struct containing control number, and value for a given channel.
 104:../../DaisyExamples/libDaisy/src/hid/MidiEvent.h **** Can be made from MidiEvent
 105:../../DaisyExamples/libDaisy/src/hid/MidiEvent.h **** */
 106:../../DaisyExamples/libDaisy/src/hid/MidiEvent.h **** struct ControlChangeEvent
 107:../../DaisyExamples/libDaisy/src/hid/MidiEvent.h **** {
 108:../../DaisyExamples/libDaisy/src/hid/MidiEvent.h ****     int     channel;        /**< & */
 109:../../DaisyExamples/libDaisy/src/hid/MidiEvent.h ****     uint8_t control_number; /**< & */
 110:../../DaisyExamples/libDaisy/src/hid/MidiEvent.h ****     uint8_t value;          /**< & */
 111:../../DaisyExamples/libDaisy/src/hid/MidiEvent.h **** };
 112:../../DaisyExamples/libDaisy/src/hid/MidiEvent.h **** /** Struct containing new program number, for a given channel.
 113:../../DaisyExamples/libDaisy/src/hid/MidiEvent.h **** Can be made from MidiEvent
 114:../../DaisyExamples/libDaisy/src/hid/MidiEvent.h **** */
 115:../../DaisyExamples/libDaisy/src/hid/MidiEvent.h **** struct ProgramChangeEvent
 116:../../DaisyExamples/libDaisy/src/hid/MidiEvent.h **** {
 117:../../DaisyExamples/libDaisy/src/hid/MidiEvent.h ****     int     channel; /**< & */
 118:../../DaisyExamples/libDaisy/src/hid/MidiEvent.h ****     uint8_t program; /**< & */
 119:../../DaisyExamples/libDaisy/src/hid/MidiEvent.h **** };
 120:../../DaisyExamples/libDaisy/src/hid/MidiEvent.h **** /** Struct containing pressure (aftertouch), for a given channel.
 121:../../DaisyExamples/libDaisy/src/hid/MidiEvent.h **** Can be made from MidiEvent
 122:../../DaisyExamples/libDaisy/src/hid/MidiEvent.h **** */
 123:../../DaisyExamples/libDaisy/src/hid/MidiEvent.h **** struct ChannelPressureEvent
 124:../../DaisyExamples/libDaisy/src/hid/MidiEvent.h **** {
 125:../../DaisyExamples/libDaisy/src/hid/MidiEvent.h ****     int     channel;  /**< & */
 126:../../DaisyExamples/libDaisy/src/hid/MidiEvent.h ****     uint8_t pressure; /**< & */
 127:../../DaisyExamples/libDaisy/src/hid/MidiEvent.h **** };
 128:../../DaisyExamples/libDaisy/src/hid/MidiEvent.h **** /** Struct containing pitch bend value for a given channel.
 129:../../DaisyExamples/libDaisy/src/hid/MidiEvent.h **** Can be made from MidiEvent
 130:../../DaisyExamples/libDaisy/src/hid/MidiEvent.h **** */
 131:../../DaisyExamples/libDaisy/src/hid/MidiEvent.h **** struct PitchBendEvent
 132:../../DaisyExamples/libDaisy/src/hid/MidiEvent.h **** {
 133:../../DaisyExamples/libDaisy/src/hid/MidiEvent.h ****     int     channel; /**< & */
 134:../../DaisyExamples/libDaisy/src/hid/MidiEvent.h ****     int16_t value;   /**< & */
 135:../../DaisyExamples/libDaisy/src/hid/MidiEvent.h **** };
 136:../../DaisyExamples/libDaisy/src/hid/MidiEvent.h **** /** Struct containing channel mode event for a given channel.
 137:../../DaisyExamples/libDaisy/src/hid/MidiEvent.h **** Can be made from MidiEvent
 138:../../DaisyExamples/libDaisy/src/hid/MidiEvent.h **** */
 139:../../DaisyExamples/libDaisy/src/hid/MidiEvent.h **** struct ChannelModeEvent
 140:../../DaisyExamples/libDaisy/src/hid/MidiEvent.h **** {
 141:../../DaisyExamples/libDaisy/src/hid/MidiEvent.h ****     int             channel;    /**< & */
 142:../../DaisyExamples/libDaisy/src/hid/MidiEvent.h ****     ChannelModeType event_type; /**< & */
 143:../../DaisyExamples/libDaisy/src/hid/MidiEvent.h ****     int16_t         value;      /**< & */
 144:../../DaisyExamples/libDaisy/src/hid/MidiEvent.h **** };
 145:../../DaisyExamples/libDaisy/src/hid/MidiEvent.h **** /** Struct containing sysex data.
 146:../../DaisyExamples/libDaisy/src/hid/MidiEvent.h **** Can be made from MidiEvent
 147:../../DaisyExamples/libDaisy/src/hid/MidiEvent.h **** */
 148:../../DaisyExamples/libDaisy/src/hid/MidiEvent.h **** struct SystemExclusiveEvent
 149:../../DaisyExamples/libDaisy/src/hid/MidiEvent.h **** {
 150:../../DaisyExamples/libDaisy/src/hid/MidiEvent.h ****     int     length;
 151:../../DaisyExamples/libDaisy/src/hid/MidiEvent.h ****     uint8_t data[SYSEX_BUFFER_LEN]; /**< & */
 152:../../DaisyExamples/libDaisy/src/hid/MidiEvent.h **** };
 153:../../DaisyExamples/libDaisy/src/hid/MidiEvent.h **** /** Struct containing QuarterFrame data.
 154:../../DaisyExamples/libDaisy/src/hid/MidiEvent.h **** Can be made from MidiEvent
 155:../../DaisyExamples/libDaisy/src/hid/MidiEvent.h **** */
 156:../../DaisyExamples/libDaisy/src/hid/MidiEvent.h **** struct MTCQuarterFrameEvent
 157:../../DaisyExamples/libDaisy/src/hid/MidiEvent.h **** {
ARM GAS  /var/folders/hp/45mn71hd0ps5f5pnytxy5bt00000gn/T//ccaKukFC.s 			page 64


 158:../../DaisyExamples/libDaisy/src/hid/MidiEvent.h ****     uint8_t message_type; /**< & */
 159:../../DaisyExamples/libDaisy/src/hid/MidiEvent.h ****     uint8_t value;        /**< & */
 160:../../DaisyExamples/libDaisy/src/hid/MidiEvent.h **** };
 161:../../DaisyExamples/libDaisy/src/hid/MidiEvent.h **** /** Struct containing song position data.
 162:../../DaisyExamples/libDaisy/src/hid/MidiEvent.h **** Can be made from MidiEvent
 163:../../DaisyExamples/libDaisy/src/hid/MidiEvent.h **** */
 164:../../DaisyExamples/libDaisy/src/hid/MidiEvent.h **** struct SongPositionPointerEvent
 165:../../DaisyExamples/libDaisy/src/hid/MidiEvent.h **** {
 166:../../DaisyExamples/libDaisy/src/hid/MidiEvent.h ****     uint16_t position; /**< & */
 167:../../DaisyExamples/libDaisy/src/hid/MidiEvent.h **** };
 168:../../DaisyExamples/libDaisy/src/hid/MidiEvent.h **** /** Struct containing song select data.
 169:../../DaisyExamples/libDaisy/src/hid/MidiEvent.h **** Can be made from MidiEvent
 170:../../DaisyExamples/libDaisy/src/hid/MidiEvent.h **** */
 171:../../DaisyExamples/libDaisy/src/hid/MidiEvent.h **** struct SongSelectEvent
 172:../../DaisyExamples/libDaisy/src/hid/MidiEvent.h **** {
 173:../../DaisyExamples/libDaisy/src/hid/MidiEvent.h ****     uint8_t song; /**< & */
 174:../../DaisyExamples/libDaisy/src/hid/MidiEvent.h **** };
 175:../../DaisyExamples/libDaisy/src/hid/MidiEvent.h **** /** Struct containing sound off data.
 176:../../DaisyExamples/libDaisy/src/hid/MidiEvent.h **** Can be made from MidiEvent
 177:../../DaisyExamples/libDaisy/src/hid/MidiEvent.h **** */
 178:../../DaisyExamples/libDaisy/src/hid/MidiEvent.h **** struct AllSoundOffEvent
 179:../../DaisyExamples/libDaisy/src/hid/MidiEvent.h **** {
 180:../../DaisyExamples/libDaisy/src/hid/MidiEvent.h ****     int channel; /**< & */
 181:../../DaisyExamples/libDaisy/src/hid/MidiEvent.h **** };
 182:../../DaisyExamples/libDaisy/src/hid/MidiEvent.h **** /** Struct containing ResetAllControllersEvent data.
 183:../../DaisyExamples/libDaisy/src/hid/MidiEvent.h **** Can be made from MidiEvent
 184:../../DaisyExamples/libDaisy/src/hid/MidiEvent.h **** */
 185:../../DaisyExamples/libDaisy/src/hid/MidiEvent.h **** struct ResetAllControllersEvent
 186:../../DaisyExamples/libDaisy/src/hid/MidiEvent.h **** {
 187:../../DaisyExamples/libDaisy/src/hid/MidiEvent.h ****     int     channel; /**< & */
 188:../../DaisyExamples/libDaisy/src/hid/MidiEvent.h ****     uint8_t value;   /**< & */
 189:../../DaisyExamples/libDaisy/src/hid/MidiEvent.h **** };
 190:../../DaisyExamples/libDaisy/src/hid/MidiEvent.h **** /** Struct containing LocalControlEvent data.
 191:../../DaisyExamples/libDaisy/src/hid/MidiEvent.h **** Can be made from MidiEvent
 192:../../DaisyExamples/libDaisy/src/hid/MidiEvent.h **** */
 193:../../DaisyExamples/libDaisy/src/hid/MidiEvent.h **** struct LocalControlEvent
 194:../../DaisyExamples/libDaisy/src/hid/MidiEvent.h **** {
 195:../../DaisyExamples/libDaisy/src/hid/MidiEvent.h ****     int  channel;           /**< & */
 196:../../DaisyExamples/libDaisy/src/hid/MidiEvent.h ****     bool local_control_off; /**< & */
 197:../../DaisyExamples/libDaisy/src/hid/MidiEvent.h ****     bool local_control_on;  /**< & */
 198:../../DaisyExamples/libDaisy/src/hid/MidiEvent.h **** };
 199:../../DaisyExamples/libDaisy/src/hid/MidiEvent.h **** /** Struct containing AllNotesOffEvent data.
 200:../../DaisyExamples/libDaisy/src/hid/MidiEvent.h **** Can be made from MidiEvent
 201:../../DaisyExamples/libDaisy/src/hid/MidiEvent.h **** */
 202:../../DaisyExamples/libDaisy/src/hid/MidiEvent.h **** struct AllNotesOffEvent
 203:../../DaisyExamples/libDaisy/src/hid/MidiEvent.h **** {
 204:../../DaisyExamples/libDaisy/src/hid/MidiEvent.h ****     int channel; /**< & */
 205:../../DaisyExamples/libDaisy/src/hid/MidiEvent.h **** };
 206:../../DaisyExamples/libDaisy/src/hid/MidiEvent.h **** /** Struct containing OmniModeOffEvent data.
 207:../../DaisyExamples/libDaisy/src/hid/MidiEvent.h ****  * Can be made from MidiEvent
 208:../../DaisyExamples/libDaisy/src/hid/MidiEvent.h **** */
 209:../../DaisyExamples/libDaisy/src/hid/MidiEvent.h **** struct OmniModeOffEvent
 210:../../DaisyExamples/libDaisy/src/hid/MidiEvent.h **** {
 211:../../DaisyExamples/libDaisy/src/hid/MidiEvent.h ****     int channel; /**< & */
 212:../../DaisyExamples/libDaisy/src/hid/MidiEvent.h **** };
 213:../../DaisyExamples/libDaisy/src/hid/MidiEvent.h **** /** Struct containing OmniModeOnEvent data.
 214:../../DaisyExamples/libDaisy/src/hid/MidiEvent.h **** Can be made from MidiEvent
ARM GAS  /var/folders/hp/45mn71hd0ps5f5pnytxy5bt00000gn/T//ccaKukFC.s 			page 65


 215:../../DaisyExamples/libDaisy/src/hid/MidiEvent.h **** */
 216:../../DaisyExamples/libDaisy/src/hid/MidiEvent.h **** struct OmniModeOnEvent
 217:../../DaisyExamples/libDaisy/src/hid/MidiEvent.h **** {
 218:../../DaisyExamples/libDaisy/src/hid/MidiEvent.h ****     int channel; /**< & */
 219:../../DaisyExamples/libDaisy/src/hid/MidiEvent.h **** };
 220:../../DaisyExamples/libDaisy/src/hid/MidiEvent.h **** /** Struct containing MonoModeOnEvent data.
 221:../../DaisyExamples/libDaisy/src/hid/MidiEvent.h **** Can be made from MidiEvent
 222:../../DaisyExamples/libDaisy/src/hid/MidiEvent.h **** */
 223:../../DaisyExamples/libDaisy/src/hid/MidiEvent.h **** struct MonoModeOnEvent
 224:../../DaisyExamples/libDaisy/src/hid/MidiEvent.h **** {
 225:../../DaisyExamples/libDaisy/src/hid/MidiEvent.h ****     int     channel;      /**< & */
 226:../../DaisyExamples/libDaisy/src/hid/MidiEvent.h ****     uint8_t num_channels; /**< & */
 227:../../DaisyExamples/libDaisy/src/hid/MidiEvent.h **** };
 228:../../DaisyExamples/libDaisy/src/hid/MidiEvent.h **** /** Struct containing PolyModeOnEvent data.
 229:../../DaisyExamples/libDaisy/src/hid/MidiEvent.h **** Can be made from MidiEvent
 230:../../DaisyExamples/libDaisy/src/hid/MidiEvent.h **** */
 231:../../DaisyExamples/libDaisy/src/hid/MidiEvent.h **** struct PolyModeOnEvent
 232:../../DaisyExamples/libDaisy/src/hid/MidiEvent.h **** {
 233:../../DaisyExamples/libDaisy/src/hid/MidiEvent.h ****     int channel; /**< & */
 234:../../DaisyExamples/libDaisy/src/hid/MidiEvent.h **** };
 235:../../DaisyExamples/libDaisy/src/hid/MidiEvent.h **** 
 236:../../DaisyExamples/libDaisy/src/hid/MidiEvent.h **** 
 237:../../DaisyExamples/libDaisy/src/hid/MidiEvent.h **** /** Simple MidiEvent with message type, channel, and data[2] members.
 238:../../DaisyExamples/libDaisy/src/hid/MidiEvent.h **** */
 239:../../DaisyExamples/libDaisy/src/hid/MidiEvent.h **** struct MidiEvent
 240:../../DaisyExamples/libDaisy/src/hid/MidiEvent.h **** {
 241:../../DaisyExamples/libDaisy/src/hid/MidiEvent.h ****     // Newer ish.
 242:../../DaisyExamples/libDaisy/src/hid/MidiEvent.h ****     MidiMessageType    type;                         /**< & */
 243:../../DaisyExamples/libDaisy/src/hid/MidiEvent.h ****     int                channel;                      /**< & */
 244:../../DaisyExamples/libDaisy/src/hid/MidiEvent.h ****     uint8_t            data[2];                      /**< & */
 245:../../DaisyExamples/libDaisy/src/hid/MidiEvent.h ****     uint8_t            sysex_data[SYSEX_BUFFER_LEN]; /**< & */
 246:../../DaisyExamples/libDaisy/src/hid/MidiEvent.h ****     uint8_t            sysex_message_len;
 247:../../DaisyExamples/libDaisy/src/hid/MidiEvent.h ****     SystemCommonType   sc_type;
 248:../../DaisyExamples/libDaisy/src/hid/MidiEvent.h ****     SystemRealTimeType srt_type;
 249:../../DaisyExamples/libDaisy/src/hid/MidiEvent.h ****     ChannelModeType    cm_type;
 250:../../DaisyExamples/libDaisy/src/hid/MidiEvent.h **** 
 251:../../DaisyExamples/libDaisy/src/hid/MidiEvent.h ****     /** Returns the data within the MidiEvent as a NoteOffEvent struct */
 252:../../DaisyExamples/libDaisy/src/hid/MidiEvent.h ****     NoteOffEvent AsNoteOff()
 253:../../DaisyExamples/libDaisy/src/hid/MidiEvent.h ****     {
 254:../../DaisyExamples/libDaisy/src/hid/MidiEvent.h ****         NoteOffEvent m;
 255:../../DaisyExamples/libDaisy/src/hid/MidiEvent.h ****         m.channel  = channel;
 256:../../DaisyExamples/libDaisy/src/hid/MidiEvent.h ****         m.note     = data[0];
 257:../../DaisyExamples/libDaisy/src/hid/MidiEvent.h ****         m.velocity = data[1];
 258:../../DaisyExamples/libDaisy/src/hid/MidiEvent.h ****         return m;
 259:../../DaisyExamples/libDaisy/src/hid/MidiEvent.h ****     }
 260:../../DaisyExamples/libDaisy/src/hid/MidiEvent.h **** 
 261:../../DaisyExamples/libDaisy/src/hid/MidiEvent.h ****     /** Returns the data within the MidiEvent as a NoteOnEvent struct */
 262:../../DaisyExamples/libDaisy/src/hid/MidiEvent.h ****     NoteOnEvent AsNoteOn()
 1695              		.loc 20 262 17 view .LVU458
 1696              	.LBB755:
 263:../../DaisyExamples/libDaisy/src/hid/MidiEvent.h ****     {
 264:../../DaisyExamples/libDaisy/src/hid/MidiEvent.h ****         NoteOnEvent m;
 1697              		.loc 20 264 9 view .LVU459
 265:../../DaisyExamples/libDaisy/src/hid/MidiEvent.h ****         m.channel  = channel;
 1698              		.loc 20 265 9 view .LVU460
 266:../../DaisyExamples/libDaisy/src/hid/MidiEvent.h ****         m.note     = data[0];
 1699              		.loc 20 266 9 view .LVU461
ARM GAS  /var/folders/hp/45mn71hd0ps5f5pnytxy5bt00000gn/T//ccaKukFC.s 			page 66


 267:../../DaisyExamples/libDaisy/src/hid/MidiEvent.h ****         m.velocity = data[1];
 1700              		.loc 20 267 9 view .LVU462
 268:../../DaisyExamples/libDaisy/src/hid/MidiEvent.h ****         return m;
 1701              		.loc 20 268 9 view .LVU463
 1702              		.loc 20 268 9 is_stmt 0 view .LVU464
 1703              	.LBE755:
 1704              	.LBE754:
 116:SynthV5.cpp   ****                     if(note_msg.velocity != 0)
 1705              		.loc 19 116 21 is_stmt 1 view .LVU465
 1706 01a2 0029     		cmp	r1, #0
 1707 01a4 D9D0     		beq	.L101
 117:SynthV5.cpp   ****                         midiFreq = mtof(note_msg.note);
 1708              		.loc 19 117 25 view .LVU466
 1709              	.LVL104:
 1710              	.LBB756:
 1711              	.LBI756:
 1712              		.file 21 "../../DaisyExamples/DaisySP/Source/Utility/dsp.h"
   1:../../DaisyExamples/DaisySP/Source/Utility/dsp.h **** /*
   2:../../DaisyExamples/DaisySP/Source/Utility/dsp.h **** Copyright (c) 2020 Electrosmith, Corp, Emilie Gillet
   3:../../DaisyExamples/DaisySP/Source/Utility/dsp.h **** 
   4:../../DaisyExamples/DaisySP/Source/Utility/dsp.h **** Use of this source code is governed by an MIT-style
   5:../../DaisyExamples/DaisySP/Source/Utility/dsp.h **** license that can be found in the LICENSE file or at
   6:../../DaisyExamples/DaisySP/Source/Utility/dsp.h **** https://opensource.org/licenses/MIT.
   7:../../DaisyExamples/DaisySP/Source/Utility/dsp.h **** */
   8:../../DaisyExamples/DaisySP/Source/Utility/dsp.h **** 
   9:../../DaisyExamples/DaisySP/Source/Utility/dsp.h **** /** Helpful defines, functions, and other utilities for use in/with daisysp modules.
  10:../../DaisyExamples/DaisySP/Source/Utility/dsp.h **** */
  11:../../DaisyExamples/DaisySP/Source/Utility/dsp.h **** #pragma once
  12:../../DaisyExamples/DaisySP/Source/Utility/dsp.h **** #ifndef DSY_CORE_DSP
  13:../../DaisyExamples/DaisySP/Source/Utility/dsp.h **** #define DSY_CORE_DSP
  14:../../DaisyExamples/DaisySP/Source/Utility/dsp.h **** #include <cassert>
  15:../../DaisyExamples/DaisySP/Source/Utility/dsp.h **** #include <cstdint>
  16:../../DaisyExamples/DaisySP/Source/Utility/dsp.h **** #include <random>
  17:../../DaisyExamples/DaisySP/Source/Utility/dsp.h **** #include <cmath>
  18:../../DaisyExamples/DaisySP/Source/Utility/dsp.h **** 
  19:../../DaisyExamples/DaisySP/Source/Utility/dsp.h **** /** PIs
  20:../../DaisyExamples/DaisySP/Source/Utility/dsp.h **** */
  21:../../DaisyExamples/DaisySP/Source/Utility/dsp.h **** #define PI_F 3.1415927410125732421875f
  22:../../DaisyExamples/DaisySP/Source/Utility/dsp.h **** #define TWOPI_F (2.0f * PI_F)
  23:../../DaisyExamples/DaisySP/Source/Utility/dsp.h **** #define HALFPI_F (PI_F * 0.5f)
  24:../../DaisyExamples/DaisySP/Source/Utility/dsp.h **** #define DSY_MIN(in, mn) (in < mn ? in : mn)
  25:../../DaisyExamples/DaisySP/Source/Utility/dsp.h **** #define DSY_MAX(in, mx) (in > mx ? in : mx)
  26:../../DaisyExamples/DaisySP/Source/Utility/dsp.h **** #define DSY_CLAMP(in, mn, mx) (DSY_MIN(DSY_MAX(in, mn), mx))
  27:../../DaisyExamples/DaisySP/Source/Utility/dsp.h **** #define DSY_COUNTOF(_arr) (sizeof(_arr) / sizeof(_arr[0]))
  28:../../DaisyExamples/DaisySP/Source/Utility/dsp.h **** 
  29:../../DaisyExamples/DaisySP/Source/Utility/dsp.h **** namespace daisysp
  30:../../DaisyExamples/DaisySP/Source/Utility/dsp.h **** {
  31:../../DaisyExamples/DaisySP/Source/Utility/dsp.h **** //Avoids division for random floats. e.g. rand() * kRandFrac
  32:../../DaisyExamples/DaisySP/Source/Utility/dsp.h **** static constexpr float kRandFrac = 1.f / (float)RAND_MAX;
  33:../../DaisyExamples/DaisySP/Source/Utility/dsp.h **** 
  34:../../DaisyExamples/DaisySP/Source/Utility/dsp.h **** //Convert from semitones to other units. e.g. 2 ^ (kOneTwelfth * x)
  35:../../DaisyExamples/DaisySP/Source/Utility/dsp.h **** static constexpr float kOneTwelfth = 1.f / 12.f;
  36:../../DaisyExamples/DaisySP/Source/Utility/dsp.h **** 
  37:../../DaisyExamples/DaisySP/Source/Utility/dsp.h **** /** efficient floating point min/max
  38:../../DaisyExamples/DaisySP/Source/Utility/dsp.h **** c/o stephen mccaul
  39:../../DaisyExamples/DaisySP/Source/Utility/dsp.h **** */
  40:../../DaisyExamples/DaisySP/Source/Utility/dsp.h **** inline float fmax(float a, float b)
ARM GAS  /var/folders/hp/45mn71hd0ps5f5pnytxy5bt00000gn/T//ccaKukFC.s 			page 67


  41:../../DaisyExamples/DaisySP/Source/Utility/dsp.h **** {
  42:../../DaisyExamples/DaisySP/Source/Utility/dsp.h ****     float r;
  43:../../DaisyExamples/DaisySP/Source/Utility/dsp.h **** #ifdef __arm__
  44:../../DaisyExamples/DaisySP/Source/Utility/dsp.h ****     asm("vmaxnm.f32 %[d], %[n], %[m]" : [d] "=t"(r) : [n] "t"(a), [m] "t"(b) :);
  45:../../DaisyExamples/DaisySP/Source/Utility/dsp.h **** #else
  46:../../DaisyExamples/DaisySP/Source/Utility/dsp.h ****     r = (a > b) ? a : b;
  47:../../DaisyExamples/DaisySP/Source/Utility/dsp.h **** #endif // __arm__
  48:../../DaisyExamples/DaisySP/Source/Utility/dsp.h ****     return r;
  49:../../DaisyExamples/DaisySP/Source/Utility/dsp.h **** }
  50:../../DaisyExamples/DaisySP/Source/Utility/dsp.h **** 
  51:../../DaisyExamples/DaisySP/Source/Utility/dsp.h **** inline float fmin(float a, float b)
  52:../../DaisyExamples/DaisySP/Source/Utility/dsp.h **** {
  53:../../DaisyExamples/DaisySP/Source/Utility/dsp.h ****     float r;
  54:../../DaisyExamples/DaisySP/Source/Utility/dsp.h **** #ifdef __arm__
  55:../../DaisyExamples/DaisySP/Source/Utility/dsp.h ****     asm("vminnm.f32 %[d], %[n], %[m]" : [d] "=t"(r) : [n] "t"(a), [m] "t"(b) :);
  56:../../DaisyExamples/DaisySP/Source/Utility/dsp.h **** #else
  57:../../DaisyExamples/DaisySP/Source/Utility/dsp.h ****     r = (a < b) ? a : b;
  58:../../DaisyExamples/DaisySP/Source/Utility/dsp.h **** #endif // __arm__
  59:../../DaisyExamples/DaisySP/Source/Utility/dsp.h ****     return r;
  60:../../DaisyExamples/DaisySP/Source/Utility/dsp.h **** }
  61:../../DaisyExamples/DaisySP/Source/Utility/dsp.h **** 
  62:../../DaisyExamples/DaisySP/Source/Utility/dsp.h **** /** quick fp clamp
  63:../../DaisyExamples/DaisySP/Source/Utility/dsp.h **** */
  64:../../DaisyExamples/DaisySP/Source/Utility/dsp.h **** inline float fclamp(float in, float min, float max)
  65:../../DaisyExamples/DaisySP/Source/Utility/dsp.h **** {
  66:../../DaisyExamples/DaisySP/Source/Utility/dsp.h ****     return fmin(fmax(in, min), max);
  67:../../DaisyExamples/DaisySP/Source/Utility/dsp.h **** }
  68:../../DaisyExamples/DaisySP/Source/Utility/dsp.h **** 
  69:../../DaisyExamples/DaisySP/Source/Utility/dsp.h **** /** From Musicdsp.org "Fast power and root estimates for 32bit floats)
  70:../../DaisyExamples/DaisySP/Source/Utility/dsp.h **** Original code by Stefan Stenzel
  71:../../DaisyExamples/DaisySP/Source/Utility/dsp.h **** These are approximations
  72:../../DaisyExamples/DaisySP/Source/Utility/dsp.h **** */
  73:../../DaisyExamples/DaisySP/Source/Utility/dsp.h **** inline float fastpower(float f, int n)
  74:../../DaisyExamples/DaisySP/Source/Utility/dsp.h **** {
  75:../../DaisyExamples/DaisySP/Source/Utility/dsp.h ****     long *lp, l;
  76:../../DaisyExamples/DaisySP/Source/Utility/dsp.h ****     lp = (long *)(&f);
  77:../../DaisyExamples/DaisySP/Source/Utility/dsp.h ****     l  = *lp;
  78:../../DaisyExamples/DaisySP/Source/Utility/dsp.h ****     l -= 0x3F800000;
  79:../../DaisyExamples/DaisySP/Source/Utility/dsp.h ****     l <<= (n - 1);
  80:../../DaisyExamples/DaisySP/Source/Utility/dsp.h ****     l += 0x3F800000;
  81:../../DaisyExamples/DaisySP/Source/Utility/dsp.h ****     *lp = l;
  82:../../DaisyExamples/DaisySP/Source/Utility/dsp.h ****     return f;
  83:../../DaisyExamples/DaisySP/Source/Utility/dsp.h **** }
  84:../../DaisyExamples/DaisySP/Source/Utility/dsp.h **** 
  85:../../DaisyExamples/DaisySP/Source/Utility/dsp.h **** inline float fastroot(float f, int n)
  86:../../DaisyExamples/DaisySP/Source/Utility/dsp.h **** {
  87:../../DaisyExamples/DaisySP/Source/Utility/dsp.h ****     long *lp, l;
  88:../../DaisyExamples/DaisySP/Source/Utility/dsp.h ****     lp = (long *)(&f);
  89:../../DaisyExamples/DaisySP/Source/Utility/dsp.h ****     l  = *lp;
  90:../../DaisyExamples/DaisySP/Source/Utility/dsp.h ****     l -= 0x3F800000;
  91:../../DaisyExamples/DaisySP/Source/Utility/dsp.h ****     l >>= (n - 1);
  92:../../DaisyExamples/DaisySP/Source/Utility/dsp.h ****     l += 0x3F800000;
  93:../../DaisyExamples/DaisySP/Source/Utility/dsp.h ****     *lp = l;
  94:../../DaisyExamples/DaisySP/Source/Utility/dsp.h ****     return f;
  95:../../DaisyExamples/DaisySP/Source/Utility/dsp.h **** }
  96:../../DaisyExamples/DaisySP/Source/Utility/dsp.h **** 
  97:../../DaisyExamples/DaisySP/Source/Utility/dsp.h **** /** Significantly more efficient than fmodf(x, 1.0f) for calculating
ARM GAS  /var/folders/hp/45mn71hd0ps5f5pnytxy5bt00000gn/T//ccaKukFC.s 			page 68


  98:../../DaisyExamples/DaisySP/Source/Utility/dsp.h ****  *  the decimal part of a floating point value.
  99:../../DaisyExamples/DaisySP/Source/Utility/dsp.h ****  */
 100:../../DaisyExamples/DaisySP/Source/Utility/dsp.h **** inline float fastmod1f(float x)
 101:../../DaisyExamples/DaisySP/Source/Utility/dsp.h **** {
 102:../../DaisyExamples/DaisySP/Source/Utility/dsp.h ****     return x - static_cast<int>(x);
 103:../../DaisyExamples/DaisySP/Source/Utility/dsp.h **** }
 104:../../DaisyExamples/DaisySP/Source/Utility/dsp.h **** 
 105:../../DaisyExamples/DaisySP/Source/Utility/dsp.h **** /** From http://openaudio.blogspot.com/2017/02/faster-log10-and-pow.html
 106:../../DaisyExamples/DaisySP/Source/Utility/dsp.h **** No approximation, pow10f(x) gives a 90% speed increase over powf(10.f, x)
 107:../../DaisyExamples/DaisySP/Source/Utility/dsp.h **** */
 108:../../DaisyExamples/DaisySP/Source/Utility/dsp.h **** inline float pow10f(float f)
 109:../../DaisyExamples/DaisySP/Source/Utility/dsp.h **** {
 110:../../DaisyExamples/DaisySP/Source/Utility/dsp.h ****     return expf(2.302585092994046f * f);
 111:../../DaisyExamples/DaisySP/Source/Utility/dsp.h **** }
 112:../../DaisyExamples/DaisySP/Source/Utility/dsp.h **** 
 113:../../DaisyExamples/DaisySP/Source/Utility/dsp.h **** /* Original code for fastlog2f by Dr. Paul Beckmann from the ARM community forum, adapted from the 
 114:../../DaisyExamples/DaisySP/Source/Utility/dsp.h **** About 25% performance increase over std::log10f
 115:../../DaisyExamples/DaisySP/Source/Utility/dsp.h **** */
 116:../../DaisyExamples/DaisySP/Source/Utility/dsp.h **** inline float fastlog2f(float f)
 117:../../DaisyExamples/DaisySP/Source/Utility/dsp.h **** {
 118:../../DaisyExamples/DaisySP/Source/Utility/dsp.h ****     float frac;
 119:../../DaisyExamples/DaisySP/Source/Utility/dsp.h ****     int   exp;
 120:../../DaisyExamples/DaisySP/Source/Utility/dsp.h ****     frac = frexpf(fabsf(f), &exp);
 121:../../DaisyExamples/DaisySP/Source/Utility/dsp.h ****     f    = 1.23149591368684f;
 122:../../DaisyExamples/DaisySP/Source/Utility/dsp.h ****     f *= frac;
 123:../../DaisyExamples/DaisySP/Source/Utility/dsp.h ****     f += -4.11852516267426f;
 124:../../DaisyExamples/DaisySP/Source/Utility/dsp.h ****     f *= frac;
 125:../../DaisyExamples/DaisySP/Source/Utility/dsp.h ****     f += 6.02197014179219f;
 126:../../DaisyExamples/DaisySP/Source/Utility/dsp.h ****     f *= frac;
 127:../../DaisyExamples/DaisySP/Source/Utility/dsp.h ****     f += -3.13396450166353f;
 128:../../DaisyExamples/DaisySP/Source/Utility/dsp.h ****     f += exp;
 129:../../DaisyExamples/DaisySP/Source/Utility/dsp.h ****     return (f);
 130:../../DaisyExamples/DaisySP/Source/Utility/dsp.h **** }
 131:../../DaisyExamples/DaisySP/Source/Utility/dsp.h **** 
 132:../../DaisyExamples/DaisySP/Source/Utility/dsp.h **** inline float fastlog10f(float f)
 133:../../DaisyExamples/DaisySP/Source/Utility/dsp.h **** {
 134:../../DaisyExamples/DaisySP/Source/Utility/dsp.h ****     return fastlog2f(f) * 0.3010299956639812f;
 135:../../DaisyExamples/DaisySP/Source/Utility/dsp.h **** }
 136:../../DaisyExamples/DaisySP/Source/Utility/dsp.h **** 
 137:../../DaisyExamples/DaisySP/Source/Utility/dsp.h **** /** Midi to frequency helper
