ARM GAS  /var/folders/hp/45mn71hd0ps5f5pnytxy5bt00000gn/T//ccWGldgQ.s 			page 1


   1              		.cpu cortex-m7
   2              		.arch armv7e-m
   3              		.fpu fpv5-d16
   4              		.eabi_attribute 28, 1
   5              		.eabi_attribute 20, 1
   6              		.eabi_attribute 21, 1
   7              		.eabi_attribute 23, 3
   8              		.eabi_attribute 24, 1
   9              		.eabi_attribute 25, 1
  10              		.eabi_attribute 26, 1
  11              		.eabi_attribute 30, 2
  12              		.eabi_attribute 34, 1
  13              		.eabi_attribute 18, 4
  14              		.file	"SynthV3.cpp"
  15              		.text
  16              	.Ltext0:
  17              		.cfi_sections	.debug_frame
  18              		.section	.text._ZN5daisy9ParameterD2Ev,"axG",%progbits,_ZN5daisy9ParameterD5Ev,comdat
  19              		.align	1
  20              		.p2align 2,,3
  21              		.weak	_ZN5daisy9ParameterD2Ev
  22              		.syntax unified
  23              		.thumb
  24              		.thumb_func
  26              	_ZN5daisy9ParameterD2Ev:
  27              	.LVL0:
  28              	.LFB1689:
  29              		.file 1 "../../DaisyExamples/libDaisy/src/hid/parameter.h"
   1:../../DaisyExamples/libDaisy/src/hid/parameter.h **** #pragma once
   2:../../DaisyExamples/libDaisy/src/hid/parameter.h **** #include <stdint.h>
   3:../../DaisyExamples/libDaisy/src/hid/parameter.h **** #include "hid/ctrl.h"
   4:../../DaisyExamples/libDaisy/src/hid/parameter.h **** 
   5:../../DaisyExamples/libDaisy/src/hid/parameter.h **** namespace daisy
   6:../../DaisyExamples/libDaisy/src/hid/parameter.h **** {
   7:../../DaisyExamples/libDaisy/src/hid/parameter.h **** /** @addtogroup controls
   8:../../DaisyExamples/libDaisy/src/hid/parameter.h ****     @{
   9:../../DaisyExamples/libDaisy/src/hid/parameter.h **** */
  10:../../DaisyExamples/libDaisy/src/hid/parameter.h **** 
  11:../../DaisyExamples/libDaisy/src/hid/parameter.h **** /**      Simple parameter mapping tool that takes a 0-1 input from an hid_ctrl. */
  12:../../DaisyExamples/libDaisy/src/hid/parameter.h **** class Parameter
  13:../../DaisyExamples/libDaisy/src/hid/parameter.h **** {
  14:../../DaisyExamples/libDaisy/src/hid/parameter.h ****   public:
  15:../../DaisyExamples/libDaisy/src/hid/parameter.h ****     /** Curves are applied to the output signal */
  16:../../DaisyExamples/libDaisy/src/hid/parameter.h ****     enum Curve
  17:../../DaisyExamples/libDaisy/src/hid/parameter.h ****     {
  18:../../DaisyExamples/libDaisy/src/hid/parameter.h ****         LINEAR,      /**< Linear curve */
  19:../../DaisyExamples/libDaisy/src/hid/parameter.h ****         EXPONENTIAL, /**< Exponential curve */
  20:../../DaisyExamples/libDaisy/src/hid/parameter.h ****         LOGARITHMIC, /**<  Logarithmic curve */
  21:../../DaisyExamples/libDaisy/src/hid/parameter.h ****         CUBE,        /**< Cubic curve */
  22:../../DaisyExamples/libDaisy/src/hid/parameter.h ****         LAST,        /**< Final enum element. */
  23:../../DaisyExamples/libDaisy/src/hid/parameter.h ****     };
  24:../../DaisyExamples/libDaisy/src/hid/parameter.h ****     /** Constructor */
  25:../../DaisyExamples/libDaisy/src/hid/parameter.h ****     Parameter() {}
  26:../../DaisyExamples/libDaisy/src/hid/parameter.h ****     /** Destructor */
  27:../../DaisyExamples/libDaisy/src/hid/parameter.h ****     ~Parameter() {}
  30              		.loc 1 27 5 view -0
  31              		.cfi_startproc
ARM GAS  /var/folders/hp/45mn71hd0ps5f5pnytxy5bt00000gn/T//ccWGldgQ.s 			page 2


  32              		@ args = 0, pretend = 0, frame = 0
  33              		@ frame_needed = 0, uses_anonymous_args = 0
  34              		@ link register save eliminated.
  35              	.LBB356:
  36              	.LBI356:
  37              		.file 2 "../../DaisyExamples/libDaisy/src/hid/ctrl.h"
   1:../../DaisyExamples/libDaisy/src/hid/ctrl.h **** #pragma once
   2:../../DaisyExamples/libDaisy/src/hid/ctrl.h **** #ifndef DSY_KNOB_H
   3:../../DaisyExamples/libDaisy/src/hid/ctrl.h **** #define DSY_KNOB_H /**< & */
   4:../../DaisyExamples/libDaisy/src/hid/ctrl.h **** #include <stdint.h>
   5:../../DaisyExamples/libDaisy/src/hid/ctrl.h **** 
   6:../../DaisyExamples/libDaisy/src/hid/ctrl.h **** #ifdef __cplusplus
   7:../../DaisyExamples/libDaisy/src/hid/ctrl.h **** namespace daisy
   8:../../DaisyExamples/libDaisy/src/hid/ctrl.h **** {
   9:../../DaisyExamples/libDaisy/src/hid/ctrl.h **** /**
  10:../../DaisyExamples/libDaisy/src/hid/ctrl.h ****     @brief Hardware Interface for control inputs \n 
  11:../../DaisyExamples/libDaisy/src/hid/ctrl.h ****     Primarily designed for ADC input controls such as \n 
  12:../../DaisyExamples/libDaisy/src/hid/ctrl.h ****     potentiometers, and control voltage. \n 
  13:../../DaisyExamples/libDaisy/src/hid/ctrl.h ****     @author Stephen Hensley
  14:../../DaisyExamples/libDaisy/src/hid/ctrl.h ****     @date November 2019
  15:../../DaisyExamples/libDaisy/src/hid/ctrl.h ****     @ingroup controls
  16:../../DaisyExamples/libDaisy/src/hid/ctrl.h **** */
  17:../../DaisyExamples/libDaisy/src/hid/ctrl.h **** class AnalogControl
  18:../../DaisyExamples/libDaisy/src/hid/ctrl.h **** {
  19:../../DaisyExamples/libDaisy/src/hid/ctrl.h ****   public:
  20:../../DaisyExamples/libDaisy/src/hid/ctrl.h ****     /** Constructor */
  21:../../DaisyExamples/libDaisy/src/hid/ctrl.h ****     AnalogControl() {}
  22:../../DaisyExamples/libDaisy/src/hid/ctrl.h ****     /** destructor */
  23:../../DaisyExamples/libDaisy/src/hid/ctrl.h ****     ~AnalogControl() {}
  38              		.loc 2 23 5 view .LVU1
  39              		.loc 2 23 5 is_stmt 0 view .LVU2
  40              	.LBE356:
  41              		.loc 1 27 19 view .LVU3
  42 0000 7047     		bx	lr
  43              		.cfi_endproc
  44              	.LFE1689:
  46              		.weak	_ZN5daisy9ParameterD1Ev
  47              		.thumb_set _ZN5daisy9ParameterD1Ev,_ZN5daisy9ParameterD2Ev
  48 0002 00BF     		.section	.text._ZN5daisy8DaisyPodD2Ev,"axG",%progbits,_ZN5daisy8DaisyPodD5Ev,comdat
  49              		.align	1
  50              		.p2align 2,,3
  51              		.weak	_ZN5daisy8DaisyPodD2Ev
  52              		.syntax unified
  53              		.thumb
  54              		.thumb_func
  56              	_ZN5daisy8DaisyPodD2Ev:
  57              	.LVL1:
  58              	.LFB2565:
  59              		.file 3 "../../DaisyExamples/libDaisy/src/daisy_pod.h"
   1:../../DaisyExamples/libDaisy/src/daisy_pod.h **** #pragma once
   2:../../DaisyExamples/libDaisy/src/daisy_pod.h **** #ifndef DSY_POD_BSP_H
   3:../../DaisyExamples/libDaisy/src/daisy_pod.h **** #define DSY_POD_BSP_H
   4:../../DaisyExamples/libDaisy/src/daisy_pod.h **** 
   5:../../DaisyExamples/libDaisy/src/daisy_pod.h **** #include "daisy_seed.h"
   6:../../DaisyExamples/libDaisy/src/daisy_pod.h **** 
   7:../../DaisyExamples/libDaisy/src/daisy_pod.h **** namespace daisy
   8:../../DaisyExamples/libDaisy/src/daisy_pod.h **** {
ARM GAS  /var/folders/hp/45mn71hd0ps5f5pnytxy5bt00000gn/T//ccWGldgQ.s 			page 3


   9:../../DaisyExamples/libDaisy/src/daisy_pod.h **** /**
  10:../../DaisyExamples/libDaisy/src/daisy_pod.h ****     @brief Class that handles initializing all of the hardware specific to the Daisy Patch Board. \
  11:../../DaisyExamples/libDaisy/src/daisy_pod.h ****     Helper funtions are also in place to provide easy access to built-in controls and peripherals.
  12:../../DaisyExamples/libDaisy/src/daisy_pod.h ****     @author Stephen Hensley
  13:../../DaisyExamples/libDaisy/src/daisy_pod.h ****     @date November 2019
  14:../../DaisyExamples/libDaisy/src/daisy_pod.h ****     @ingroup boards
  15:../../DaisyExamples/libDaisy/src/daisy_pod.h **** */
  16:../../DaisyExamples/libDaisy/src/daisy_pod.h **** class DaisyPod
  17:../../DaisyExamples/libDaisy/src/daisy_pod.h **** {
  18:../../DaisyExamples/libDaisy/src/daisy_pod.h ****   public:
  19:../../DaisyExamples/libDaisy/src/daisy_pod.h ****     /** Switches */
  20:../../DaisyExamples/libDaisy/src/daisy_pod.h ****     enum Sw
  21:../../DaisyExamples/libDaisy/src/daisy_pod.h ****     {
  22:../../DaisyExamples/libDaisy/src/daisy_pod.h ****         BUTTON_1,    /** & */
  23:../../DaisyExamples/libDaisy/src/daisy_pod.h ****         BUTTON_2,    /** & */
  24:../../DaisyExamples/libDaisy/src/daisy_pod.h ****         BUTTON_LAST, /** &  */
  25:../../DaisyExamples/libDaisy/src/daisy_pod.h ****     };
  26:../../DaisyExamples/libDaisy/src/daisy_pod.h **** 
  27:../../DaisyExamples/libDaisy/src/daisy_pod.h ****     /** Knobs */
  28:../../DaisyExamples/libDaisy/src/daisy_pod.h ****     enum Knob
  29:../../DaisyExamples/libDaisy/src/daisy_pod.h ****     {
  30:../../DaisyExamples/libDaisy/src/daisy_pod.h ****         KNOB_1,    /** &  */
  31:../../DaisyExamples/libDaisy/src/daisy_pod.h ****         KNOB_2,    /** & */
  32:../../DaisyExamples/libDaisy/src/daisy_pod.h ****         KNOB_LAST, /** & */
  33:../../DaisyExamples/libDaisy/src/daisy_pod.h ****     };
  34:../../DaisyExamples/libDaisy/src/daisy_pod.h **** 
  35:../../DaisyExamples/libDaisy/src/daisy_pod.h ****     DaisyPod() {}
  36:../../DaisyExamples/libDaisy/src/daisy_pod.h ****     ~DaisyPod() {}
  60              		.loc 3 36 5 is_stmt 1 view -0
  61              		.cfi_startproc
  62              		@ args = 0, pretend = 0, frame = 0
  63              		@ frame_needed = 0, uses_anonymous_args = 0
  64              		@ link register save eliminated.
  65              	.LBB357:
  66              	.LBI357:
  67              		.file 4 "../../DaisyExamples/libDaisy/src/hid/midi.h"
   1:../../DaisyExamples/libDaisy/src/hid/midi.h **** #pragma once
   2:../../DaisyExamples/libDaisy/src/hid/midi.h **** #ifndef DSY_MIDI_H
   3:../../DaisyExamples/libDaisy/src/hid/midi.h **** #define DSY_MIDI_H
   4:../../DaisyExamples/libDaisy/src/hid/midi.h **** 
   5:../../DaisyExamples/libDaisy/src/hid/midi.h **** #include <stdint.h>
   6:../../DaisyExamples/libDaisy/src/hid/midi.h **** #include <stdlib.h>
   7:../../DaisyExamples/libDaisy/src/hid/midi.h **** #include <algorithm>
   8:../../DaisyExamples/libDaisy/src/hid/midi.h **** #include "per/uart.h"
   9:../../DaisyExamples/libDaisy/src/hid/midi.h **** #include "util/ringbuffer.h"
  10:../../DaisyExamples/libDaisy/src/hid/midi.h **** #include "util/FIFO.h"
  11:../../DaisyExamples/libDaisy/src/hid/midi.h **** #include "hid/midi_parser.h"
  12:../../DaisyExamples/libDaisy/src/hid/midi.h **** #include "hid/usb_midi.h"
  13:../../DaisyExamples/libDaisy/src/hid/midi.h **** #include "sys/dma.h"
  14:../../DaisyExamples/libDaisy/src/hid/midi.h **** #include "sys/system.h"
  15:../../DaisyExamples/libDaisy/src/hid/midi.h **** 
  16:../../DaisyExamples/libDaisy/src/hid/midi.h **** namespace daisy
  17:../../DaisyExamples/libDaisy/src/hid/midi.h **** {
  18:../../DaisyExamples/libDaisy/src/hid/midi.h **** /** @brief   Transport layer for sending and receiving MIDI data over UART
  19:../../DaisyExamples/libDaisy/src/hid/midi.h ****  *  @details This is the mode of communication used for TRS and DIN MIDI
  20:../../DaisyExamples/libDaisy/src/hid/midi.h ****  *           There is an additional 2kB of RAM data used within this class
  21:../../DaisyExamples/libDaisy/src/hid/midi.h ****  *           for processing bulk data from the UART peripheral
ARM GAS  /var/folders/hp/45mn71hd0ps5f5pnytxy5bt00000gn/T//ccWGldgQ.s 			page 4


  22:../../DaisyExamples/libDaisy/src/hid/midi.h ****  *  @ingroup midi
  23:../../DaisyExamples/libDaisy/src/hid/midi.h **** */
  24:../../DaisyExamples/libDaisy/src/hid/midi.h **** class MidiUartTransport
  25:../../DaisyExamples/libDaisy/src/hid/midi.h **** {
  26:../../DaisyExamples/libDaisy/src/hid/midi.h ****   public:
  27:../../DaisyExamples/libDaisy/src/hid/midi.h ****     typedef void (*MidiRxParseCallback)(uint8_t* data,
  28:../../DaisyExamples/libDaisy/src/hid/midi.h ****                                         size_t   size,
  29:../../DaisyExamples/libDaisy/src/hid/midi.h ****                                         void*    context);
  30:../../DaisyExamples/libDaisy/src/hid/midi.h **** 
  31:../../DaisyExamples/libDaisy/src/hid/midi.h ****     MidiUartTransport() {}
  32:../../DaisyExamples/libDaisy/src/hid/midi.h ****     ~MidiUartTransport() {}
  33:../../DaisyExamples/libDaisy/src/hid/midi.h **** 
  34:../../DaisyExamples/libDaisy/src/hid/midi.h ****     /** @brief Configuration structure for UART MIDI */
  35:../../DaisyExamples/libDaisy/src/hid/midi.h ****     struct Config
  36:../../DaisyExamples/libDaisy/src/hid/midi.h ****     {
  37:../../DaisyExamples/libDaisy/src/hid/midi.h ****         UartHandler::Config::Peripheral periph;
  38:../../DaisyExamples/libDaisy/src/hid/midi.h ****         dsy_gpio_pin                    rx;
  39:../../DaisyExamples/libDaisy/src/hid/midi.h ****         dsy_gpio_pin                    tx;
  40:../../DaisyExamples/libDaisy/src/hid/midi.h **** 
  41:../../DaisyExamples/libDaisy/src/hid/midi.h ****         /** Pointer to buffer for DMA UART rx byte transfer in background.
  42:../../DaisyExamples/libDaisy/src/hid/midi.h ****          *
  43:../../DaisyExamples/libDaisy/src/hid/midi.h ****          *  @details By default this uses a shared buffer in DMA_BUFFER_MEM_SECTION,
  44:../../DaisyExamples/libDaisy/src/hid/midi.h ****          *           which can only be utilized for a single UART peripheral. To
  45:../../DaisyExamples/libDaisy/src/hid/midi.h ****          *           use MIDI with multiple UART peripherals, you must provide your own
  46:../../DaisyExamples/libDaisy/src/hid/midi.h ****          *           buffer, allocated to a DMA-capable memory section.
  47:../../DaisyExamples/libDaisy/src/hid/midi.h ****          */
  48:../../DaisyExamples/libDaisy/src/hid/midi.h ****         uint8_t* rx_buffer;
  49:../../DaisyExamples/libDaisy/src/hid/midi.h **** 
  50:../../DaisyExamples/libDaisy/src/hid/midi.h ****         /** Size in bytes of rx_buffer.
  51:../../DaisyExamples/libDaisy/src/hid/midi.h ****          *
  52:../../DaisyExamples/libDaisy/src/hid/midi.h ****          *  @details This size determines the maximum Rx bytes readable by the UART in the backgrou
  53:../../DaisyExamples/libDaisy/src/hid/midi.h ****          *           By default it's set to the size of the default shared rx_buffer (256 bytes).
  54:../../DaisyExamples/libDaisy/src/hid/midi.h ****          *           While much smaller sizes can be used, data can get missed if the buffer is too
  55:../../DaisyExamples/libDaisy/src/hid/midi.h ****          */
  56:../../DaisyExamples/libDaisy/src/hid/midi.h ****         size_t rx_buffer_size;
  57:../../DaisyExamples/libDaisy/src/hid/midi.h **** 
  58:../../DaisyExamples/libDaisy/src/hid/midi.h ****         Config();
  59:../../DaisyExamples/libDaisy/src/hid/midi.h ****     };
  60:../../DaisyExamples/libDaisy/src/hid/midi.h **** 
  61:../../DaisyExamples/libDaisy/src/hid/midi.h ****     /** @brief Initialization of UART using config struct */
  62:../../DaisyExamples/libDaisy/src/hid/midi.h ****     inline void Init(Config config)
  63:../../DaisyExamples/libDaisy/src/hid/midi.h ****     {
  64:../../DaisyExamples/libDaisy/src/hid/midi.h ****         UartHandler::Config uart_config;
  65:../../DaisyExamples/libDaisy/src/hid/midi.h **** 
  66:../../DaisyExamples/libDaisy/src/hid/midi.h ****         //defaults
  67:../../DaisyExamples/libDaisy/src/hid/midi.h ****         uart_config.baudrate   = 31250;
  68:../../DaisyExamples/libDaisy/src/hid/midi.h ****         uart_config.stopbits   = UartHandler::Config::StopBits::BITS_1;
  69:../../DaisyExamples/libDaisy/src/hid/midi.h ****         uart_config.parity     = UartHandler::Config::Parity::NONE;
  70:../../DaisyExamples/libDaisy/src/hid/midi.h ****         uart_config.mode       = UartHandler::Config::Mode::TX_RX;
  71:../../DaisyExamples/libDaisy/src/hid/midi.h ****         uart_config.wordlength = UartHandler::Config::WordLength::BITS_8;
  72:../../DaisyExamples/libDaisy/src/hid/midi.h **** 
  73:../../DaisyExamples/libDaisy/src/hid/midi.h ****         //user settings
  74:../../DaisyExamples/libDaisy/src/hid/midi.h ****         uart_config.periph        = config.periph;
  75:../../DaisyExamples/libDaisy/src/hid/midi.h ****         uart_config.pin_config.rx = config.rx;
  76:../../DaisyExamples/libDaisy/src/hid/midi.h ****         uart_config.pin_config.tx = config.tx;
  77:../../DaisyExamples/libDaisy/src/hid/midi.h **** 
  78:../../DaisyExamples/libDaisy/src/hid/midi.h ****         rx_buffer      = config.rx_buffer;
ARM GAS  /var/folders/hp/45mn71hd0ps5f5pnytxy5bt00000gn/T//ccWGldgQ.s 			page 5


  79:../../DaisyExamples/libDaisy/src/hid/midi.h ****         rx_buffer_size = config.rx_buffer_size;
  80:../../DaisyExamples/libDaisy/src/hid/midi.h **** 
  81:../../DaisyExamples/libDaisy/src/hid/midi.h ****         /** zero the buffer to ensure emptiness regardless of source memory */
  82:../../DaisyExamples/libDaisy/src/hid/midi.h ****         std::fill(rx_buffer, rx_buffer + rx_buffer_size, 0);
  83:../../DaisyExamples/libDaisy/src/hid/midi.h **** 
  84:../../DaisyExamples/libDaisy/src/hid/midi.h ****         uart_.Init(uart_config);
  85:../../DaisyExamples/libDaisy/src/hid/midi.h ****     }
  86:../../DaisyExamples/libDaisy/src/hid/midi.h **** 
  87:../../DaisyExamples/libDaisy/src/hid/midi.h ****     /** @brief Start the UART peripheral in listening mode.
  88:../../DaisyExamples/libDaisy/src/hid/midi.h ****      *  This will fill an internal data structure in the background */
  89:../../DaisyExamples/libDaisy/src/hid/midi.h ****     inline void StartRx(MidiRxParseCallback parse_callback, void* context)
  90:../../DaisyExamples/libDaisy/src/hid/midi.h ****     {
  91:../../DaisyExamples/libDaisy/src/hid/midi.h ****         parse_context_  = context;
  92:../../DaisyExamples/libDaisy/src/hid/midi.h ****         parse_callback_ = parse_callback;
  93:../../DaisyExamples/libDaisy/src/hid/midi.h ****         dsy_dma_clear_cache_for_buffer((uint8_t*)this,
  94:../../DaisyExamples/libDaisy/src/hid/midi.h ****                                        sizeof(MidiUartTransport));
  95:../../DaisyExamples/libDaisy/src/hid/midi.h ****         uart_.DmaListenStart(
  96:../../DaisyExamples/libDaisy/src/hid/midi.h ****             rx_buffer, rx_buffer_size, MidiUartTransport::rxCallback, this);
  97:../../DaisyExamples/libDaisy/src/hid/midi.h ****     }
  98:../../DaisyExamples/libDaisy/src/hid/midi.h **** 
  99:../../DaisyExamples/libDaisy/src/hid/midi.h ****     /** @brief returns whether the UART peripheral is actively listening in the background or not *
 100:../../DaisyExamples/libDaisy/src/hid/midi.h ****     inline bool RxActive() { return uart_.IsListening(); }
 101:../../DaisyExamples/libDaisy/src/hid/midi.h **** 
 102:../../DaisyExamples/libDaisy/src/hid/midi.h ****     /** @brief This is a no-op for UART transport - Rx is via DMA callback with circular buffer */
 103:../../DaisyExamples/libDaisy/src/hid/midi.h ****     inline void FlushRx() {}
 104:../../DaisyExamples/libDaisy/src/hid/midi.h **** 
 105:../../DaisyExamples/libDaisy/src/hid/midi.h ****     /** @brief sends the buffer of bytes out of the UART peripheral */
 106:../../DaisyExamples/libDaisy/src/hid/midi.h ****     inline void Tx(uint8_t* buff, size_t size) { uart_.PollTx(buff, size); }
 107:../../DaisyExamples/libDaisy/src/hid/midi.h **** 
 108:../../DaisyExamples/libDaisy/src/hid/midi.h ****   private:
 109:../../DaisyExamples/libDaisy/src/hid/midi.h ****     UartHandler         uart_;
 110:../../DaisyExamples/libDaisy/src/hid/midi.h ****     uint8_t*            rx_buffer;
 111:../../DaisyExamples/libDaisy/src/hid/midi.h ****     size_t              rx_buffer_size;
 112:../../DaisyExamples/libDaisy/src/hid/midi.h ****     void*               parse_context_;
 113:../../DaisyExamples/libDaisy/src/hid/midi.h ****     MidiRxParseCallback parse_callback_;
 114:../../DaisyExamples/libDaisy/src/hid/midi.h **** 
 115:../../DaisyExamples/libDaisy/src/hid/midi.h ****     /** Static callback for Uart MIDI that occurs when
 116:../../DaisyExamples/libDaisy/src/hid/midi.h ****          *  new data is available from the peripheral.
 117:../../DaisyExamples/libDaisy/src/hid/midi.h ****          *  The new data is transferred from the peripheral to the
 118:../../DaisyExamples/libDaisy/src/hid/midi.h ****          *  MIDI instance's byte FIFO that feeds the MIDI parser.
 119:../../DaisyExamples/libDaisy/src/hid/midi.h ****          *
 120:../../DaisyExamples/libDaisy/src/hid/midi.h ****          *  TODO: Handle UartHandler errors better/at all.
 121:../../DaisyExamples/libDaisy/src/hid/midi.h ****          *  (If there is a UART error, there's not really any recovery
 122:../../DaisyExamples/libDaisy/src/hid/midi.h ****          *  option at the moment)
 123:../../DaisyExamples/libDaisy/src/hid/midi.h ****          */
 124:../../DaisyExamples/libDaisy/src/hid/midi.h ****     static void rxCallback(uint8_t*            data,
 125:../../DaisyExamples/libDaisy/src/hid/midi.h ****                            size_t              size,
 126:../../DaisyExamples/libDaisy/src/hid/midi.h ****                            void*               context,
 127:../../DaisyExamples/libDaisy/src/hid/midi.h ****                            UartHandler::Result res)
 128:../../DaisyExamples/libDaisy/src/hid/midi.h ****     {
 129:../../DaisyExamples/libDaisy/src/hid/midi.h ****         /** Read context as transport type */
 130:../../DaisyExamples/libDaisy/src/hid/midi.h ****         MidiUartTransport* transport
 131:../../DaisyExamples/libDaisy/src/hid/midi.h ****             = reinterpret_cast<MidiUartTransport*>(context);
 132:../../DaisyExamples/libDaisy/src/hid/midi.h ****         if(res == UartHandler::Result::OK)
 133:../../DaisyExamples/libDaisy/src/hid/midi.h ****         {
 134:../../DaisyExamples/libDaisy/src/hid/midi.h ****             if(transport->parse_callback_)
 135:../../DaisyExamples/libDaisy/src/hid/midi.h ****             {
ARM GAS  /var/folders/hp/45mn71hd0ps5f5pnytxy5bt00000gn/T//ccWGldgQ.s 			page 6


 136:../../DaisyExamples/libDaisy/src/hid/midi.h ****                 transport->parse_callback_(
 137:../../DaisyExamples/libDaisy/src/hid/midi.h ****                     data, size, transport->parse_context_);
 138:../../DaisyExamples/libDaisy/src/hid/midi.h ****             }
 139:../../DaisyExamples/libDaisy/src/hid/midi.h ****         }
 140:../../DaisyExamples/libDaisy/src/hid/midi.h ****     }
 141:../../DaisyExamples/libDaisy/src/hid/midi.h **** };
 142:../../DaisyExamples/libDaisy/src/hid/midi.h **** 
 143:../../DaisyExamples/libDaisy/src/hid/midi.h **** /**
 144:../../DaisyExamples/libDaisy/src/hid/midi.h ****     @brief Simple MIDI Handler \n
 145:../../DaisyExamples/libDaisy/src/hid/midi.h ****     Parses bytes from an input into valid MidiEvents. \n
 146:../../DaisyExamples/libDaisy/src/hid/midi.h ****     The MidiEvents fill a FIFO queue that the user can pop messages from.
 147:../../DaisyExamples/libDaisy/src/hid/midi.h ****     @author shensley
 148:../../DaisyExamples/libDaisy/src/hid/midi.h ****     @date March 2020
 149:../../DaisyExamples/libDaisy/src/hid/midi.h ****     @ingroup midi
 150:../../DaisyExamples/libDaisy/src/hid/midi.h **** */
 151:../../DaisyExamples/libDaisy/src/hid/midi.h **** template <typename Transport>
 152:../../DaisyExamples/libDaisy/src/hid/midi.h **** class MidiHandler
 153:../../DaisyExamples/libDaisy/src/hid/midi.h **** {
 154:../../DaisyExamples/libDaisy/src/hid/midi.h ****   public:
 155:../../DaisyExamples/libDaisy/src/hid/midi.h ****     MidiHandler() {}
 156:../../DaisyExamples/libDaisy/src/hid/midi.h ****     ~MidiHandler() {}
  68              		.loc 4 156 5 view .LVU5
  69              	.LBB358:
  70              	.LBI358:
  71              		.file 5 "../../DaisyExamples/libDaisy/src/util/FIFO.h"
   1:../../DaisyExamples/libDaisy/src/util/FIFO.h **** #pragma once
   2:../../DaisyExamples/libDaisy/src/util/FIFO.h **** 
   3:../../DaisyExamples/libDaisy/src/util/FIFO.h **** #include <stdint.h>
   4:../../DaisyExamples/libDaisy/src/util/FIFO.h **** #include <stddef.h>
   5:../../DaisyExamples/libDaisy/src/util/FIFO.h **** #include <initializer_list>
   6:../../DaisyExamples/libDaisy/src/util/FIFO.h **** 
   7:../../DaisyExamples/libDaisy/src/util/FIFO.h **** namespace daisy
   8:../../DaisyExamples/libDaisy/src/util/FIFO.h **** {
   9:../../DaisyExamples/libDaisy/src/util/FIFO.h **** /** Capacity-independent base class for FIFO. Use FIFO instead. */
  10:../../DaisyExamples/libDaisy/src/util/FIFO.h **** template <typename T>
  11:../../DaisyExamples/libDaisy/src/util/FIFO.h **** class FIFOBase
  12:../../DaisyExamples/libDaisy/src/util/FIFO.h **** {
  13:../../DaisyExamples/libDaisy/src/util/FIFO.h ****   protected:
  14:../../DaisyExamples/libDaisy/src/util/FIFO.h ****     FIFOBase(T* buffer, size_t bufferSize)
  15:../../DaisyExamples/libDaisy/src/util/FIFO.h ****     : buffer_(buffer), bufferSize_(bufferSize), bufferIn_(0), bufferOut_(0)
  16:../../DaisyExamples/libDaisy/src/util/FIFO.h ****     {
  17:../../DaisyExamples/libDaisy/src/util/FIFO.h ****     }
  18:../../DaisyExamples/libDaisy/src/util/FIFO.h **** 
  19:../../DaisyExamples/libDaisy/src/util/FIFO.h ****     FIFOBase(T* buffer, size_t bufferSize, std::initializer_list<T> valuesToAdd)
  20:../../DaisyExamples/libDaisy/src/util/FIFO.h ****     : buffer_(buffer), bufferSize_(bufferSize), bufferIn_(0), bufferOut_(0)
  21:../../DaisyExamples/libDaisy/src/util/FIFO.h ****     {
  22:../../DaisyExamples/libDaisy/src/util/FIFO.h ****         PushBack(valuesToAdd);
  23:../../DaisyExamples/libDaisy/src/util/FIFO.h ****     }
  24:../../DaisyExamples/libDaisy/src/util/FIFO.h **** 
  25:../../DaisyExamples/libDaisy/src/util/FIFO.h ****   public:
  26:../../DaisyExamples/libDaisy/src/util/FIFO.h ****     /** Copies all elements from another FIFO */
  27:../../DaisyExamples/libDaisy/src/util/FIFO.h ****     FIFOBase<T>& operator=(const FIFOBase<T>& other)
  28:../../DaisyExamples/libDaisy/src/util/FIFO.h ****     {
  29:../../DaisyExamples/libDaisy/src/util/FIFO.h ****         bufferIn_ = bufferOut_ = 0;
  30:../../DaisyExamples/libDaisy/src/util/FIFO.h ****         if(!other.IsEmpty())
  31:../../DaisyExamples/libDaisy/src/util/FIFO.h ****         {
  32:../../DaisyExamples/libDaisy/src/util/FIFO.h ****             int readPtr = other.bufferOut_;
ARM GAS  /var/folders/hp/45mn71hd0ps5f5pnytxy5bt00000gn/T//ccWGldgQ.s 			page 7


  33:../../DaisyExamples/libDaisy/src/util/FIFO.h ****             while((readPtr != other.bufferIn_) && (bufferIn_ < bufferSize_))
  34:../../DaisyExamples/libDaisy/src/util/FIFO.h ****             {
  35:../../DaisyExamples/libDaisy/src/util/FIFO.h ****                 buffer_[bufferIn_++] = other.buffer_[readPtr++];
  36:../../DaisyExamples/libDaisy/src/util/FIFO.h ****                 if(readPtr >= other.bufferSize_)
  37:../../DaisyExamples/libDaisy/src/util/FIFO.h ****                     readPtr -= other.bufferSize_;
  38:../../DaisyExamples/libDaisy/src/util/FIFO.h ****             }
  39:../../DaisyExamples/libDaisy/src/util/FIFO.h ****         }
  40:../../DaisyExamples/libDaisy/src/util/FIFO.h ****         return *this;
  41:../../DaisyExamples/libDaisy/src/util/FIFO.h ****     }
  42:../../DaisyExamples/libDaisy/src/util/FIFO.h ****     ~FIFOBase() {}
  43:../../DaisyExamples/libDaisy/src/util/FIFO.h **** 
  44:../../DaisyExamples/libDaisy/src/util/FIFO.h ****     /** Removes all elements from the FIFO */
  45:../../DaisyExamples/libDaisy/src/util/FIFO.h ****     void Clear() { bufferIn_ = bufferOut_ = 0; }
  46:../../DaisyExamples/libDaisy/src/util/FIFO.h **** 
  47:../../DaisyExamples/libDaisy/src/util/FIFO.h ****     /** Adds an element to the back of the buffer, returning true on
  48:../../DaisyExamples/libDaisy/src/util/FIFO.h ****         success */
  49:../../DaisyExamples/libDaisy/src/util/FIFO.h ****     bool PushBack(const T& elementToAdd)
  50:../../DaisyExamples/libDaisy/src/util/FIFO.h ****     {
  51:../../DaisyExamples/libDaisy/src/util/FIFO.h ****         if(!IsFull())
  52:../../DaisyExamples/libDaisy/src/util/FIFO.h ****         {
  53:../../DaisyExamples/libDaisy/src/util/FIFO.h ****             buffer_[bufferIn_++] = elementToAdd;
  54:../../DaisyExamples/libDaisy/src/util/FIFO.h ****             if(bufferIn_ >= bufferSize_)
  55:../../DaisyExamples/libDaisy/src/util/FIFO.h ****                 bufferIn_ -= bufferSize_;
  56:../../DaisyExamples/libDaisy/src/util/FIFO.h ****             return true;
  57:../../DaisyExamples/libDaisy/src/util/FIFO.h ****         }
  58:../../DaisyExamples/libDaisy/src/util/FIFO.h ****         return false;
  59:../../DaisyExamples/libDaisy/src/util/FIFO.h ****     }
  60:../../DaisyExamples/libDaisy/src/util/FIFO.h **** 
  61:../../DaisyExamples/libDaisy/src/util/FIFO.h ****     /** Adds multiple elements and returns the number of elements that were added */
  62:../../DaisyExamples/libDaisy/src/util/FIFO.h ****     int PushBack(std::initializer_list<T> valuesToAdd)
  63:../../DaisyExamples/libDaisy/src/util/FIFO.h ****     {
  64:../../DaisyExamples/libDaisy/src/util/FIFO.h ****         int numAdded = 0;
  65:../../DaisyExamples/libDaisy/src/util/FIFO.h ****         for(const auto& v : valuesToAdd)
  66:../../DaisyExamples/libDaisy/src/util/FIFO.h ****         {
  67:../../DaisyExamples/libDaisy/src/util/FIFO.h ****             if(IsFull())
  68:../../DaisyExamples/libDaisy/src/util/FIFO.h ****                 return numAdded;
  69:../../DaisyExamples/libDaisy/src/util/FIFO.h **** 
  70:../../DaisyExamples/libDaisy/src/util/FIFO.h ****             PushBack(v);
  71:../../DaisyExamples/libDaisy/src/util/FIFO.h ****             numAdded++;
  72:../../DaisyExamples/libDaisy/src/util/FIFO.h ****         }
  73:../../DaisyExamples/libDaisy/src/util/FIFO.h ****         return numAdded;
  74:../../DaisyExamples/libDaisy/src/util/FIFO.h ****     }
  75:../../DaisyExamples/libDaisy/src/util/FIFO.h **** 
  76:../../DaisyExamples/libDaisy/src/util/FIFO.h ****     /** returns a reference to the last element */
  77:../../DaisyExamples/libDaisy/src/util/FIFO.h ****     T& Back()
  78:../../DaisyExamples/libDaisy/src/util/FIFO.h ****     {
  79:../../DaisyExamples/libDaisy/src/util/FIFO.h ****         if(IsEmpty())
  80:../../DaisyExamples/libDaisy/src/util/FIFO.h ****             // invalid, but better not pass a temporary T() object as a reference...
  81:../../DaisyExamples/libDaisy/src/util/FIFO.h ****             return buffer_[0];
  82:../../DaisyExamples/libDaisy/src/util/FIFO.h ****         int idx = bufferIn_ - 1;
  83:../../DaisyExamples/libDaisy/src/util/FIFO.h ****         if(idx < 0)
  84:../../DaisyExamples/libDaisy/src/util/FIFO.h ****             idx += bufferSize_;
  85:../../DaisyExamples/libDaisy/src/util/FIFO.h ****         return buffer_[idx];
  86:../../DaisyExamples/libDaisy/src/util/FIFO.h ****     }
  87:../../DaisyExamples/libDaisy/src/util/FIFO.h **** 
  88:../../DaisyExamples/libDaisy/src/util/FIFO.h ****     /** returns a reference to the last element */
  89:../../DaisyExamples/libDaisy/src/util/FIFO.h ****     const T& Back() const
ARM GAS  /var/folders/hp/45mn71hd0ps5f5pnytxy5bt00000gn/T//ccWGldgQ.s 			page 8


  90:../../DaisyExamples/libDaisy/src/util/FIFO.h ****     {
  91:../../DaisyExamples/libDaisy/src/util/FIFO.h ****         if(IsEmpty())
  92:../../DaisyExamples/libDaisy/src/util/FIFO.h ****             // invalid, but better not pass a temporary T() object as a reference...
  93:../../DaisyExamples/libDaisy/src/util/FIFO.h ****             return buffer_[0];
  94:../../DaisyExamples/libDaisy/src/util/FIFO.h ****         int idx = bufferIn_ - 1;
  95:../../DaisyExamples/libDaisy/src/util/FIFO.h ****         if(idx < 0)
  96:../../DaisyExamples/libDaisy/src/util/FIFO.h ****             idx += bufferSize_;
  97:../../DaisyExamples/libDaisy/src/util/FIFO.h ****         return buffer_[idx];
  98:../../DaisyExamples/libDaisy/src/util/FIFO.h ****     }
  99:../../DaisyExamples/libDaisy/src/util/FIFO.h **** 
 100:../../DaisyExamples/libDaisy/src/util/FIFO.h ****     /** removes and returns an element from the front of the buffer */
 101:../../DaisyExamples/libDaisy/src/util/FIFO.h ****     T PopFront()
 102:../../DaisyExamples/libDaisy/src/util/FIFO.h ****     {
 103:../../DaisyExamples/libDaisy/src/util/FIFO.h ****         if(IsEmpty())
 104:../../DaisyExamples/libDaisy/src/util/FIFO.h ****             return T();
 105:../../DaisyExamples/libDaisy/src/util/FIFO.h ****         else
 106:../../DaisyExamples/libDaisy/src/util/FIFO.h ****         {
 107:../../DaisyExamples/libDaisy/src/util/FIFO.h ****             const auto result = buffer_[bufferOut_];
 108:../../DaisyExamples/libDaisy/src/util/FIFO.h ****             bufferOut_++;
 109:../../DaisyExamples/libDaisy/src/util/FIFO.h ****             if(bufferOut_ >= bufferSize_)
 110:../../DaisyExamples/libDaisy/src/util/FIFO.h ****                 bufferOut_ -= bufferSize_;
 111:../../DaisyExamples/libDaisy/src/util/FIFO.h ****             return result;
 112:../../DaisyExamples/libDaisy/src/util/FIFO.h ****         }
 113:../../DaisyExamples/libDaisy/src/util/FIFO.h ****     }
 114:../../DaisyExamples/libDaisy/src/util/FIFO.h **** 
 115:../../DaisyExamples/libDaisy/src/util/FIFO.h ****     /** returns a copy of the first element */
 116:../../DaisyExamples/libDaisy/src/util/FIFO.h ****     T& Front()
 117:../../DaisyExamples/libDaisy/src/util/FIFO.h ****     {
 118:../../DaisyExamples/libDaisy/src/util/FIFO.h ****         if(IsEmpty())
 119:../../DaisyExamples/libDaisy/src/util/FIFO.h ****             // invalid, but better not pass a temporary T() object as a reference...
 120:../../DaisyExamples/libDaisy/src/util/FIFO.h ****             return buffer_[0];
 121:../../DaisyExamples/libDaisy/src/util/FIFO.h ****         return buffer_[bufferOut_];
 122:../../DaisyExamples/libDaisy/src/util/FIFO.h ****     }
 123:../../DaisyExamples/libDaisy/src/util/FIFO.h **** 
 124:../../DaisyExamples/libDaisy/src/util/FIFO.h ****     /** returns a reference to the first element */
 125:../../DaisyExamples/libDaisy/src/util/FIFO.h ****     const T& Front() const
 126:../../DaisyExamples/libDaisy/src/util/FIFO.h ****     {
 127:../../DaisyExamples/libDaisy/src/util/FIFO.h ****         if(IsEmpty())
 128:../../DaisyExamples/libDaisy/src/util/FIFO.h ****             // invalid, but better not pass a temporary T() object as a reference...
 129:../../DaisyExamples/libDaisy/src/util/FIFO.h ****             return buffer_[0];
 130:../../DaisyExamples/libDaisy/src/util/FIFO.h ****         return buffer_[bufferOut_];
 131:../../DaisyExamples/libDaisy/src/util/FIFO.h ****     }
 132:../../DaisyExamples/libDaisy/src/util/FIFO.h **** 
 133:../../DaisyExamples/libDaisy/src/util/FIFO.h ****     /** Returns true if the buffer contains an element equal to the provided value */
 134:../../DaisyExamples/libDaisy/src/util/FIFO.h ****     bool Contains(const T& element)
 135:../../DaisyExamples/libDaisy/src/util/FIFO.h ****     {
 136:../../DaisyExamples/libDaisy/src/util/FIFO.h ****         auto idx = bufferOut_;
 137:../../DaisyExamples/libDaisy/src/util/FIFO.h ****         while(idx != bufferIn_)
 138:../../DaisyExamples/libDaisy/src/util/FIFO.h ****         {
 139:../../DaisyExamples/libDaisy/src/util/FIFO.h ****             if(buffer_[idx] == element)
 140:../../DaisyExamples/libDaisy/src/util/FIFO.h ****                 return true;
 141:../../DaisyExamples/libDaisy/src/util/FIFO.h ****             idx++;
 142:../../DaisyExamples/libDaisy/src/util/FIFO.h ****             if(idx >= bufferSize_)
 143:../../DaisyExamples/libDaisy/src/util/FIFO.h ****                 idx -= bufferSize_;
 144:../../DaisyExamples/libDaisy/src/util/FIFO.h ****         }
 145:../../DaisyExamples/libDaisy/src/util/FIFO.h ****         return false;
 146:../../DaisyExamples/libDaisy/src/util/FIFO.h ****     }
ARM GAS  /var/folders/hp/45mn71hd0ps5f5pnytxy5bt00000gn/T//ccWGldgQ.s 			page 9


 147:../../DaisyExamples/libDaisy/src/util/FIFO.h **** 
 148:../../DaisyExamples/libDaisy/src/util/FIFO.h ****     /** Returns the number of elements in the buffer that are equal to the provided value */
 149:../../DaisyExamples/libDaisy/src/util/FIFO.h ****     size_t CountEqualTo(const T& element)
 150:../../DaisyExamples/libDaisy/src/util/FIFO.h ****     {
 151:../../DaisyExamples/libDaisy/src/util/FIFO.h ****         size_t result = 0;
 152:../../DaisyExamples/libDaisy/src/util/FIFO.h ****         size_t idx    = bufferOut_;
 153:../../DaisyExamples/libDaisy/src/util/FIFO.h ****         while(idx != bufferIn_)
 154:../../DaisyExamples/libDaisy/src/util/FIFO.h ****         {
 155:../../DaisyExamples/libDaisy/src/util/FIFO.h ****             if(buffer_[idx] == element)
 156:../../DaisyExamples/libDaisy/src/util/FIFO.h ****                 result++;
 157:../../DaisyExamples/libDaisy/src/util/FIFO.h ****             idx++;
 158:../../DaisyExamples/libDaisy/src/util/FIFO.h ****             if(idx >= bufferSize_)
 159:../../DaisyExamples/libDaisy/src/util/FIFO.h ****                 idx -= bufferSize_;
 160:../../DaisyExamples/libDaisy/src/util/FIFO.h ****         }
 161:../../DaisyExamples/libDaisy/src/util/FIFO.h ****         return result;
 162:../../DaisyExamples/libDaisy/src/util/FIFO.h ****     }
 163:../../DaisyExamples/libDaisy/src/util/FIFO.h **** 
 164:../../DaisyExamples/libDaisy/src/util/FIFO.h ****     /** returns true, if the buffer is empty */
 165:../../DaisyExamples/libDaisy/src/util/FIFO.h ****     bool IsEmpty() const { return bufferIn_ == bufferOut_; }
 166:../../DaisyExamples/libDaisy/src/util/FIFO.h **** 
 167:../../DaisyExamples/libDaisy/src/util/FIFO.h ****     /** returns true, if the buffer is Full */
 168:../../DaisyExamples/libDaisy/src/util/FIFO.h ****     bool IsFull() const { return GetNumElements() == bufferSize_ - 1; }
 169:../../DaisyExamples/libDaisy/src/util/FIFO.h **** 
 170:../../DaisyExamples/libDaisy/src/util/FIFO.h ****     /** returns the number of elements in the buffer */
 171:../../DaisyExamples/libDaisy/src/util/FIFO.h ****     size_t GetNumElements() const
 172:../../DaisyExamples/libDaisy/src/util/FIFO.h ****     {
 173:../../DaisyExamples/libDaisy/src/util/FIFO.h ****         int32_t numElements = bufferIn_ - bufferOut_;
 174:../../DaisyExamples/libDaisy/src/util/FIFO.h ****         if(numElements < 0)
 175:../../DaisyExamples/libDaisy/src/util/FIFO.h ****             numElements += bufferSize_;
 176:../../DaisyExamples/libDaisy/src/util/FIFO.h ****         return size_t(numElements);
 177:../../DaisyExamples/libDaisy/src/util/FIFO.h ****     }
 178:../../DaisyExamples/libDaisy/src/util/FIFO.h **** 
 179:../../DaisyExamples/libDaisy/src/util/FIFO.h ****     /** inserts an element "idx" positions behind the first element and returns true if successful 
 180:../../DaisyExamples/libDaisy/src/util/FIFO.h ****     bool Insert(size_t idx, const T& element)
 181:../../DaisyExamples/libDaisy/src/util/FIFO.h ****     {
 182:../../DaisyExamples/libDaisy/src/util/FIFO.h ****         if(idx > GetNumElements())
 183:../../DaisyExamples/libDaisy/src/util/FIFO.h ****             return false;
 184:../../DaisyExamples/libDaisy/src/util/FIFO.h ****         if(IsFull())
 185:../../DaisyExamples/libDaisy/src/util/FIFO.h ****             return false;
 186:../../DaisyExamples/libDaisy/src/util/FIFO.h ****         if(idx == GetNumElements())
 187:../../DaisyExamples/libDaisy/src/util/FIFO.h ****         {
 188:../../DaisyExamples/libDaisy/src/util/FIFO.h ****             PushBack(element);
 189:../../DaisyExamples/libDaisy/src/util/FIFO.h ****             return true;
 190:../../DaisyExamples/libDaisy/src/util/FIFO.h ****         }
 191:../../DaisyExamples/libDaisy/src/util/FIFO.h ****         // copy last element
 192:../../DaisyExamples/libDaisy/src/util/FIFO.h ****         PushBack(Back());
 193:../../DaisyExamples/libDaisy/src/util/FIFO.h ****         // move remaining elements: n => n+1
 194:../../DaisyExamples/libDaisy/src/util/FIFO.h ****         for(int i = GetNumElements() - 2; i > int(idx); i--)
 195:../../DaisyExamples/libDaisy/src/util/FIFO.h ****             (*this)[i] = (*this)[i - 1];
 196:../../DaisyExamples/libDaisy/src/util/FIFO.h ****         // insert element
 197:../../DaisyExamples/libDaisy/src/util/FIFO.h ****         (*this)[idx] = element;
 198:../../DaisyExamples/libDaisy/src/util/FIFO.h ****         return true;
 199:../../DaisyExamples/libDaisy/src/util/FIFO.h ****     }
 200:../../DaisyExamples/libDaisy/src/util/FIFO.h **** 
 201:../../DaisyExamples/libDaisy/src/util/FIFO.h ****     /** removes the element "idx" positions behind the first element 
 202:../../DaisyExamples/libDaisy/src/util/FIFO.h ****      *  and returns true if successful */
 203:../../DaisyExamples/libDaisy/src/util/FIFO.h ****     bool Remove(size_t idx)
ARM GAS  /var/folders/hp/45mn71hd0ps5f5pnytxy5bt00000gn/T//ccWGldgQ.s 			page 10


 204:../../DaisyExamples/libDaisy/src/util/FIFO.h ****     {
 205:../../DaisyExamples/libDaisy/src/util/FIFO.h ****         if(idx >= GetNumElements())
 206:../../DaisyExamples/libDaisy/src/util/FIFO.h ****             return false;
 207:../../DaisyExamples/libDaisy/src/util/FIFO.h **** 
 208:../../DaisyExamples/libDaisy/src/util/FIFO.h ****         size_t index = bufferOut_ + idx;
 209:../../DaisyExamples/libDaisy/src/util/FIFO.h ****         if(index >= bufferSize_)
 210:../../DaisyExamples/libDaisy/src/util/FIFO.h ****             index -= bufferSize_;
 211:../../DaisyExamples/libDaisy/src/util/FIFO.h ****         size_t nextIndex = index + 1;
 212:../../DaisyExamples/libDaisy/src/util/FIFO.h ****         if(nextIndex >= bufferSize_)
 213:../../DaisyExamples/libDaisy/src/util/FIFO.h ****             nextIndex -= bufferSize_;
 214:../../DaisyExamples/libDaisy/src/util/FIFO.h **** 
 215:../../DaisyExamples/libDaisy/src/util/FIFO.h ****         while(nextIndex != bufferIn_)
 216:../../DaisyExamples/libDaisy/src/util/FIFO.h ****         {
 217:../../DaisyExamples/libDaisy/src/util/FIFO.h ****             buffer_[index] = buffer_[nextIndex];
 218:../../DaisyExamples/libDaisy/src/util/FIFO.h ****             index++;
 219:../../DaisyExamples/libDaisy/src/util/FIFO.h ****             nextIndex++;
 220:../../DaisyExamples/libDaisy/src/util/FIFO.h ****             if(index >= bufferSize_)
 221:../../DaisyExamples/libDaisy/src/util/FIFO.h ****                 index -= bufferSize_;
 222:../../DaisyExamples/libDaisy/src/util/FIFO.h ****             if(nextIndex >= bufferSize_)
 223:../../DaisyExamples/libDaisy/src/util/FIFO.h ****                 nextIndex -= bufferSize_;
 224:../../DaisyExamples/libDaisy/src/util/FIFO.h ****         }
 225:../../DaisyExamples/libDaisy/src/util/FIFO.h **** 
 226:../../DaisyExamples/libDaisy/src/util/FIFO.h ****         int32_t nextBufferIn = int32_t(bufferIn_) - 1;
 227:../../DaisyExamples/libDaisy/src/util/FIFO.h ****         if(nextBufferIn < 0)
 228:../../DaisyExamples/libDaisy/src/util/FIFO.h ****             nextBufferIn += bufferSize_;
 229:../../DaisyExamples/libDaisy/src/util/FIFO.h ****         bufferIn_ = size_t(nextBufferIn);
 230:../../DaisyExamples/libDaisy/src/util/FIFO.h **** 
 231:../../DaisyExamples/libDaisy/src/util/FIFO.h ****         return true;
 232:../../DaisyExamples/libDaisy/src/util/FIFO.h ****     }
 233:../../DaisyExamples/libDaisy/src/util/FIFO.h **** 
 234:../../DaisyExamples/libDaisy/src/util/FIFO.h ****     /** removes all elements from the buffer for which
 235:../../DaisyExamples/libDaisy/src/util/FIFO.h ****         (buffer(index) == element) returns true and returns the number of
 236:../../DaisyExamples/libDaisy/src/util/FIFO.h ****         elements that were removed. */
 237:../../DaisyExamples/libDaisy/src/util/FIFO.h ****     size_t RemoveAllEqualTo(const T& element)
 238:../../DaisyExamples/libDaisy/src/util/FIFO.h ****     {
 239:../../DaisyExamples/libDaisy/src/util/FIFO.h ****         size_t numRemoved = 0;
 240:../../DaisyExamples/libDaisy/src/util/FIFO.h ****         int    idx        = GetNumElements() - 1;
 241:../../DaisyExamples/libDaisy/src/util/FIFO.h ****         while(idx >= 0)
 242:../../DaisyExamples/libDaisy/src/util/FIFO.h ****         {
 243:../../DaisyExamples/libDaisy/src/util/FIFO.h ****             if((*this)[idx] == element)
 244:../../DaisyExamples/libDaisy/src/util/FIFO.h ****             {
 245:../../DaisyExamples/libDaisy/src/util/FIFO.h ****                 numRemoved++;
 246:../../DaisyExamples/libDaisy/src/util/FIFO.h ****                 Remove(idx);
 247:../../DaisyExamples/libDaisy/src/util/FIFO.h ****                 // was that the last element?
 248:../../DaisyExamples/libDaisy/src/util/FIFO.h ****                 if(idx == int(GetNumElements()) - 1)
 249:../../DaisyExamples/libDaisy/src/util/FIFO.h ****                     idx--;
 250:../../DaisyExamples/libDaisy/src/util/FIFO.h ****             }
 251:../../DaisyExamples/libDaisy/src/util/FIFO.h ****             else
 252:../../DaisyExamples/libDaisy/src/util/FIFO.h ****                 idx--;
 253:../../DaisyExamples/libDaisy/src/util/FIFO.h ****         }
 254:../../DaisyExamples/libDaisy/src/util/FIFO.h ****         return numRemoved;
 255:../../DaisyExamples/libDaisy/src/util/FIFO.h ****     }
 256:../../DaisyExamples/libDaisy/src/util/FIFO.h **** 
 257:../../DaisyExamples/libDaisy/src/util/FIFO.h ****     /** returns the element "idx" positions behind the first element */
 258:../../DaisyExamples/libDaisy/src/util/FIFO.h ****     T& operator[](size_t idx)
 259:../../DaisyExamples/libDaisy/src/util/FIFO.h ****     {
 260:../../DaisyExamples/libDaisy/src/util/FIFO.h ****         if(idx >= GetNumElements())
ARM GAS  /var/folders/hp/45mn71hd0ps5f5pnytxy5bt00000gn/T//ccWGldgQ.s 			page 11


 261:../../DaisyExamples/libDaisy/src/util/FIFO.h ****             // invalid, but better not pass a temporary T() object as a reference...
 262:../../DaisyExamples/libDaisy/src/util/FIFO.h ****             return buffer_[0];
 263:../../DaisyExamples/libDaisy/src/util/FIFO.h **** 
 264:../../DaisyExamples/libDaisy/src/util/FIFO.h ****         size_t index = bufferOut_ + idx;
 265:../../DaisyExamples/libDaisy/src/util/FIFO.h ****         if(index >= bufferSize_)
 266:../../DaisyExamples/libDaisy/src/util/FIFO.h ****             index -= bufferSize_;
 267:../../DaisyExamples/libDaisy/src/util/FIFO.h ****         return buffer_[index];
 268:../../DaisyExamples/libDaisy/src/util/FIFO.h ****     }
 269:../../DaisyExamples/libDaisy/src/util/FIFO.h **** 
 270:../../DaisyExamples/libDaisy/src/util/FIFO.h ****     /** returns the element "idx" positions behind the first element */
 271:../../DaisyExamples/libDaisy/src/util/FIFO.h ****     const T& operator[](size_t idx) const
 272:../../DaisyExamples/libDaisy/src/util/FIFO.h ****     {
 273:../../DaisyExamples/libDaisy/src/util/FIFO.h ****         if(idx >= GetNumElements())
 274:../../DaisyExamples/libDaisy/src/util/FIFO.h ****             // invalid, but better not pass a temporary T() object as a reference...
 275:../../DaisyExamples/libDaisy/src/util/FIFO.h ****             return buffer_[0];
 276:../../DaisyExamples/libDaisy/src/util/FIFO.h **** 
 277:../../DaisyExamples/libDaisy/src/util/FIFO.h ****         size_t index = bufferOut_ + idx;
 278:../../DaisyExamples/libDaisy/src/util/FIFO.h ****         if(index >= bufferSize_)
 279:../../DaisyExamples/libDaisy/src/util/FIFO.h ****             index -= bufferSize_;
 280:../../DaisyExamples/libDaisy/src/util/FIFO.h ****         return buffer_[index];
 281:../../DaisyExamples/libDaisy/src/util/FIFO.h ****     }
 282:../../DaisyExamples/libDaisy/src/util/FIFO.h **** 
 283:../../DaisyExamples/libDaisy/src/util/FIFO.h ****     /** returns the total capacity */
 284:../../DaisyExamples/libDaisy/src/util/FIFO.h ****     size_t GetCapacity() const { return bufferSize_ - 1; }
 285:../../DaisyExamples/libDaisy/src/util/FIFO.h **** 
 286:../../DaisyExamples/libDaisy/src/util/FIFO.h ****   private:
 287:../../DaisyExamples/libDaisy/src/util/FIFO.h ****     FIFOBase(const FIFOBase<T>&) {} // non copyable
 288:../../DaisyExamples/libDaisy/src/util/FIFO.h **** 
 289:../../DaisyExamples/libDaisy/src/util/FIFO.h ****   private:
 290:../../DaisyExamples/libDaisy/src/util/FIFO.h ****     T*           buffer_;
 291:../../DaisyExamples/libDaisy/src/util/FIFO.h ****     const size_t bufferSize_;
 292:../../DaisyExamples/libDaisy/src/util/FIFO.h ****     size_t       bufferIn_;
 293:../../DaisyExamples/libDaisy/src/util/FIFO.h ****     size_t       bufferOut_;
 294:../../DaisyExamples/libDaisy/src/util/FIFO.h **** };
 295:../../DaisyExamples/libDaisy/src/util/FIFO.h **** 
 296:../../DaisyExamples/libDaisy/src/util/FIFO.h **** /** A simple FIFO ring buffer with a fixed size. */
 297:../../DaisyExamples/libDaisy/src/util/FIFO.h **** template <typename T, size_t capacity>
 298:../../DaisyExamples/libDaisy/src/util/FIFO.h **** class FIFO : public FIFOBase<T>
  72              		.loc 5 298 7 view .LVU6
  73              	.LBB359:
  74              	.LBI359:
  42:../../DaisyExamples/libDaisy/src/util/FIFO.h **** 
  75              		.loc 5 42 5 view .LVU7
  42:../../DaisyExamples/libDaisy/src/util/FIFO.h **** 
  76              		.loc 5 42 5 is_stmt 0 view .LVU8
  77              	.LBE359:
  78              	.LBE358:
  79              	.LBB360:
  80              	.LBI360:
  81              		.file 6 "../../DaisyExamples/libDaisy/src/hid/midi_parser.h"
   1:../../DaisyExamples/libDaisy/src/hid/midi_parser.h **** #pragma once
   2:../../DaisyExamples/libDaisy/src/hid/midi_parser.h **** #ifndef DSY_MIDI_PARSER_H
   3:../../DaisyExamples/libDaisy/src/hid/midi_parser.h **** #define DSY_MIDI_PARSER_H
   4:../../DaisyExamples/libDaisy/src/hid/midi_parser.h **** 
   5:../../DaisyExamples/libDaisy/src/hid/midi_parser.h **** #include <stdint.h>
   6:../../DaisyExamples/libDaisy/src/hid/midi_parser.h **** #include <stdlib.h>
   7:../../DaisyExamples/libDaisy/src/hid/midi_parser.h **** #include "hid/MidiEvent.h"
ARM GAS  /var/folders/hp/45mn71hd0ps5f5pnytxy5bt00000gn/T//ccWGldgQ.s 			page 12


   8:../../DaisyExamples/libDaisy/src/hid/midi_parser.h **** 
   9:../../DaisyExamples/libDaisy/src/hid/midi_parser.h **** namespace daisy
  10:../../DaisyExamples/libDaisy/src/hid/midi_parser.h **** {
  11:../../DaisyExamples/libDaisy/src/hid/midi_parser.h **** /** @brief   Utility class for parsing raw byte streams into MIDI messages
  12:../../DaisyExamples/libDaisy/src/hid/midi_parser.h ****  *  @details Implemented as a state machine designed to parse one byte at a time
  13:../../DaisyExamples/libDaisy/src/hid/midi_parser.h ****  *  @ingroup midi
  14:../../DaisyExamples/libDaisy/src/hid/midi_parser.h ****  */
  15:../../DaisyExamples/libDaisy/src/hid/midi_parser.h **** class MidiParser
  16:../../DaisyExamples/libDaisy/src/hid/midi_parser.h **** {
  17:../../DaisyExamples/libDaisy/src/hid/midi_parser.h ****   public:
  18:../../DaisyExamples/libDaisy/src/hid/midi_parser.h ****     MidiParser(){};
  19:../../DaisyExamples/libDaisy/src/hid/midi_parser.h ****     ~MidiParser() {}
  82              		.loc 6 19 5 is_stmt 1 view .LVU9
  83              		.loc 6 19 5 is_stmt 0 view .LVU10
  84              	.LBE360:
  85              	.LBB361:
  86              	.LBI361:
  32:../../DaisyExamples/libDaisy/src/hid/midi.h **** 
  87              		.loc 4 32 5 is_stmt 1 view .LVU11
  32:../../DaisyExamples/libDaisy/src/hid/midi.h **** 
  88              		.loc 4 32 5 is_stmt 0 view .LVU12
  89              	.LBE361:
  90              	.LBE357:
  91              	.LBB362:
  92              	.LBI362:
  93              		.file 7 "../../DaisyExamples/libDaisy/src/hid/rgb_led.h"
   1:../../DaisyExamples/libDaisy/src/hid/rgb_led.h **** #pragma once
   2:../../DaisyExamples/libDaisy/src/hid/rgb_led.h **** #ifndef DSY_RGB_LED_H
   3:../../DaisyExamples/libDaisy/src/hid/rgb_led.h **** #define DSY_RGB_LED_H
   4:../../DaisyExamples/libDaisy/src/hid/rgb_led.h **** #include "hid/led.h"
   5:../../DaisyExamples/libDaisy/src/hid/rgb_led.h **** #include "util/color.h"
   6:../../DaisyExamples/libDaisy/src/hid/rgb_led.h **** 
   7:../../DaisyExamples/libDaisy/src/hid/rgb_led.h **** namespace daisy
   8:../../DaisyExamples/libDaisy/src/hid/rgb_led.h **** {
   9:../../DaisyExamples/libDaisy/src/hid/rgb_led.h **** /** @addtogroup feedback
  10:../../DaisyExamples/libDaisy/src/hid/rgb_led.h ****     @{
  11:../../DaisyExamples/libDaisy/src/hid/rgb_led.h **** */
  12:../../DaisyExamples/libDaisy/src/hid/rgb_led.h **** 
  13:../../DaisyExamples/libDaisy/src/hid/rgb_led.h **** /** 3x LEDs configured as an RGB for ease of use. */
  14:../../DaisyExamples/libDaisy/src/hid/rgb_led.h **** class RgbLed
  15:../../DaisyExamples/libDaisy/src/hid/rgb_led.h **** {
  16:../../DaisyExamples/libDaisy/src/hid/rgb_led.h ****   public:
  17:../../DaisyExamples/libDaisy/src/hid/rgb_led.h ****     RgbLed() {}
  18:../../DaisyExamples/libDaisy/src/hid/rgb_led.h ****     ~RgbLed() {}
  94              		.loc 7 18 5 is_stmt 1 view .LVU13
  95              	.LBB363:
  96              	.LBI363:
  97              		.file 8 "../../DaisyExamples/libDaisy/src/hid/led.h"
   1:../../DaisyExamples/libDaisy/src/hid/led.h **** 
   2:../../DaisyExamples/libDaisy/src/hid/led.h **** #pragma once
   3:../../DaisyExamples/libDaisy/src/hid/led.h **** #ifndef DSY_LED_H
   4:../../DaisyExamples/libDaisy/src/hid/led.h **** #define DSY_LED_H
   5:../../DaisyExamples/libDaisy/src/hid/led.h **** #include "daisy_core.h"
   6:../../DaisyExamples/libDaisy/src/hid/led.h **** #include "per/gpio.h"
   7:../../DaisyExamples/libDaisy/src/hid/led.h **** 
   8:../../DaisyExamples/libDaisy/src/hid/led.h **** /* TODO - Get this set up to work with the dev_leddriver stuff as well
   9:../../DaisyExamples/libDaisy/src/hid/led.h **** - Setup Hardware PWM for pins that have it
ARM GAS  /var/folders/hp/45mn71hd0ps5f5pnytxy5bt00000gn/T//ccWGldgQ.s 			page 13


  10:../../DaisyExamples/libDaisy/src/hid/led.h **** */
  11:../../DaisyExamples/libDaisy/src/hid/led.h **** 
  12:../../DaisyExamples/libDaisy/src/hid/led.h **** namespace daisy
  13:../../DaisyExamples/libDaisy/src/hid/led.h **** {
  14:../../DaisyExamples/libDaisy/src/hid/led.h **** /**
  15:../../DaisyExamples/libDaisy/src/hid/led.h ****     @brief LED Class providing simple Software PWM ability, etc \n 
  16:../../DaisyExamples/libDaisy/src/hid/led.h ****     Eventually this will work with hardware PWM, and external LED Driver devices as well.
  17:../../DaisyExamples/libDaisy/src/hid/led.h ****     @author shensley
  18:../../DaisyExamples/libDaisy/src/hid/led.h ****     @date March 2020
  19:../../DaisyExamples/libDaisy/src/hid/led.h ****     @ingroup feedback
  20:../../DaisyExamples/libDaisy/src/hid/led.h **** */
  21:../../DaisyExamples/libDaisy/src/hid/led.h **** class Led
  22:../../DaisyExamples/libDaisy/src/hid/led.h **** {
  23:../../DaisyExamples/libDaisy/src/hid/led.h ****   public:
  24:../../DaisyExamples/libDaisy/src/hid/led.h ****     Led() {}
  25:../../DaisyExamples/libDaisy/src/hid/led.h ****     ~Led() {}
  98              		.loc 8 25 5 view .LVU14
  99              		.loc 8 25 5 is_stmt 0 view .LVU15
 100              	.LBE363:
 101              	.LBB364:
 102              	.LBI364:
 103              		.loc 8 25 5 is_stmt 1 view .LVU16
 104              		.loc 8 25 5 is_stmt 0 view .LVU17
 105              	.LBE364:
 106              	.LBB365:
 107              	.LBI365:
 108              		.loc 8 25 5 is_stmt 1 view .LVU18
 109              		.loc 8 25 5 is_stmt 0 view .LVU19
 110              	.LBE365:
 111              	.LBE362:
 112              	.LBB366:
 113              	.LBI366:
 114              		.loc 7 18 5 is_stmt 1 view .LVU20
 115              	.LBB367:
 116              	.LBI367:
 117              		.loc 8 25 5 view .LVU21
 118              		.loc 8 25 5 is_stmt 0 view .LVU22
 119              	.LBE367:
 120              	.LBB368:
 121              	.LBI368:
 122              		.loc 8 25 5 is_stmt 1 view .LVU23
 123              		.loc 8 25 5 is_stmt 0 view .LVU24
 124              	.LBE368:
 125              	.LBB369:
 126              	.LBI369:
 127              		.loc 8 25 5 is_stmt 1 view .LVU25
 128              		.loc 8 25 5 is_stmt 0 view .LVU26
 129              	.LBE369:
 130              	.LBE366:
 131              	.LBB370:
 132              	.LBI370:
 133              		.file 9 "../../DaisyExamples/libDaisy/src/hid/switch.h"
   1:../../DaisyExamples/libDaisy/src/hid/switch.h **** #pragma once
   2:../../DaisyExamples/libDaisy/src/hid/switch.h **** #ifndef DSY_SWITCH_H
   3:../../DaisyExamples/libDaisy/src/hid/switch.h **** #define DSY_SWITCH_H
   4:../../DaisyExamples/libDaisy/src/hid/switch.h **** #include "daisy_core.h"
   5:../../DaisyExamples/libDaisy/src/hid/switch.h **** #include "per/gpio.h"
ARM GAS  /var/folders/hp/45mn71hd0ps5f5pnytxy5bt00000gn/T//ccWGldgQ.s 			page 14


   6:../../DaisyExamples/libDaisy/src/hid/switch.h **** #include "sys/system.h"
   7:../../DaisyExamples/libDaisy/src/hid/switch.h **** 
   8:../../DaisyExamples/libDaisy/src/hid/switch.h **** namespace daisy
   9:../../DaisyExamples/libDaisy/src/hid/switch.h **** {
  10:../../DaisyExamples/libDaisy/src/hid/switch.h **** /** 
  11:../../DaisyExamples/libDaisy/src/hid/switch.h ****     Generic Class for handling momentary/latching switches \n 
  12:../../DaisyExamples/libDaisy/src/hid/switch.h ****     Inspired/influenced by Mutable Instruments (pichenettes) Switch classes
  13:../../DaisyExamples/libDaisy/src/hid/switch.h ****     @author Stephen Hensley
  14:../../DaisyExamples/libDaisy/src/hid/switch.h ****     @date December 2019
  15:../../DaisyExamples/libDaisy/src/hid/switch.h ****     @ingroup controls
  16:../../DaisyExamples/libDaisy/src/hid/switch.h **** */
  17:../../DaisyExamples/libDaisy/src/hid/switch.h **** class Switch
  18:../../DaisyExamples/libDaisy/src/hid/switch.h **** {
  19:../../DaisyExamples/libDaisy/src/hid/switch.h ****   public:
  20:../../DaisyExamples/libDaisy/src/hid/switch.h ****     /** Specifies the expected behavior of the switch */
  21:../../DaisyExamples/libDaisy/src/hid/switch.h ****     enum Type
  22:../../DaisyExamples/libDaisy/src/hid/switch.h ****     {
  23:../../DaisyExamples/libDaisy/src/hid/switch.h ****         TYPE_TOGGLE,    /**< & */
  24:../../DaisyExamples/libDaisy/src/hid/switch.h ****         TYPE_MOMENTARY, /**< & */
  25:../../DaisyExamples/libDaisy/src/hid/switch.h ****     };
  26:../../DaisyExamples/libDaisy/src/hid/switch.h ****     /** Specifies whether the pressed is HIGH or LOW. */
  27:../../DaisyExamples/libDaisy/src/hid/switch.h ****     enum Polarity
  28:../../DaisyExamples/libDaisy/src/hid/switch.h ****     {
  29:../../DaisyExamples/libDaisy/src/hid/switch.h ****         POLARITY_NORMAL,   /**< & */
  30:../../DaisyExamples/libDaisy/src/hid/switch.h ****         POLARITY_INVERTED, /**< & */
  31:../../DaisyExamples/libDaisy/src/hid/switch.h ****     };
  32:../../DaisyExamples/libDaisy/src/hid/switch.h **** 
  33:../../DaisyExamples/libDaisy/src/hid/switch.h ****     /** Specifies whether to use built-in Pull Up/Down resistors to hold button at a given state wh
  34:../../DaisyExamples/libDaisy/src/hid/switch.h ****     enum Pull
  35:../../DaisyExamples/libDaisy/src/hid/switch.h ****     {
  36:../../DaisyExamples/libDaisy/src/hid/switch.h ****         PULL_UP,   /**< & */
  37:../../DaisyExamples/libDaisy/src/hid/switch.h ****         PULL_DOWN, /**< & */
  38:../../DaisyExamples/libDaisy/src/hid/switch.h ****         PULL_NONE, /**< & */
  39:../../DaisyExamples/libDaisy/src/hid/switch.h ****     };
  40:../../DaisyExamples/libDaisy/src/hid/switch.h **** 
  41:../../DaisyExamples/libDaisy/src/hid/switch.h ****     Switch() {}
  42:../../DaisyExamples/libDaisy/src/hid/switch.h ****     ~Switch() {}
 134              		.loc 9 42 5 is_stmt 1 view .LVU27
 135              		.loc 9 42 5 is_stmt 0 view .LVU28
 136              	.LBE370:
 137              	.LBB371:
 138              	.LBI371:
 139              		.loc 9 42 5 is_stmt 1 view .LVU29
 140              		.loc 9 42 5 is_stmt 0 view .LVU30
 141              	.LBE371:
 142              	.LBB372:
 143              	.LBI372:
 144              		.loc 2 23 5 is_stmt 1 view .LVU31
 145              		.loc 2 23 5 is_stmt 0 view .LVU32
 146              	.LBE372:
 147              	.LBB373:
 148              	.LBI373:
 149              		.loc 2 23 5 is_stmt 1 view .LVU33
 150              		.loc 2 23 5 is_stmt 0 view .LVU34
 151              	.LBE373:
 152              	.LBB374:
 153              	.LBI374:
ARM GAS  /var/folders/hp/45mn71hd0ps5f5pnytxy5bt00000gn/T//ccWGldgQ.s 			page 15


 154              		.file 10 "../../DaisyExamples/libDaisy/src/hid/encoder.h"
   1:../../DaisyExamples/libDaisy/src/hid/encoder.h **** #pragma once
   2:../../DaisyExamples/libDaisy/src/hid/encoder.h **** #ifndef DSY_ENCODER_H
   3:../../DaisyExamples/libDaisy/src/hid/encoder.h **** #define DSY_ENCODER_H
   4:../../DaisyExamples/libDaisy/src/hid/encoder.h **** #include "daisy_core.h"
   5:../../DaisyExamples/libDaisy/src/hid/encoder.h **** #include "per/gpio.h"
   6:../../DaisyExamples/libDaisy/src/hid/encoder.h **** #include "hid/switch.h"
   7:../../DaisyExamples/libDaisy/src/hid/encoder.h **** 
   8:../../DaisyExamples/libDaisy/src/hid/encoder.h **** namespace daisy
   9:../../DaisyExamples/libDaisy/src/hid/encoder.h **** {
  10:../../DaisyExamples/libDaisy/src/hid/encoder.h **** /** 
  11:../../DaisyExamples/libDaisy/src/hid/encoder.h ****     @brief Generic Class for handling Quadrature Encoders \n 
  12:../../DaisyExamples/libDaisy/src/hid/encoder.h ****     Inspired/influenced by Mutable Instruments (pichenettes) Encoder classes
  13:../../DaisyExamples/libDaisy/src/hid/encoder.h ****     @author Stephen Hensley
  14:../../DaisyExamples/libDaisy/src/hid/encoder.h ****     @date December 2019
  15:../../DaisyExamples/libDaisy/src/hid/encoder.h ****     @ingroup controls
  16:../../DaisyExamples/libDaisy/src/hid/encoder.h **** */
  17:../../DaisyExamples/libDaisy/src/hid/encoder.h **** class Encoder
  18:../../DaisyExamples/libDaisy/src/hid/encoder.h **** {
  19:../../DaisyExamples/libDaisy/src/hid/encoder.h ****   public:
  20:../../DaisyExamples/libDaisy/src/hid/encoder.h ****     Encoder() {}
  21:../../DaisyExamples/libDaisy/src/hid/encoder.h ****     ~Encoder() {}
 155              		.loc 10 21 5 is_stmt 1 view .LVU35
 156              	.LBB375:
 157              	.LBI375:
 158              		.loc 9 42 5 view .LVU36
 159              		.loc 9 42 5 is_stmt 0 view .LVU37
 160              	.LBE375:
 161              	.LBE374:
 162              	.LBB376:
 163              	.LBI376:
 164              		.file 11 "../../DaisyExamples/libDaisy/src/daisy_seed.h"
   1:../../DaisyExamples/libDaisy/src/daisy_seed.h **** #pragma once
   2:../../DaisyExamples/libDaisy/src/daisy_seed.h **** #ifndef DSY_SEED_H
   3:../../DaisyExamples/libDaisy/src/daisy_seed.h **** #define DSY_SEED_H
   4:../../DaisyExamples/libDaisy/src/daisy_seed.h **** 
   5:../../DaisyExamples/libDaisy/src/daisy_seed.h **** #include "daisy.h"
   6:../../DaisyExamples/libDaisy/src/daisy_seed.h **** 
   7:../../DaisyExamples/libDaisy/src/daisy_seed.h **** //Uncomment this out if you're still using the rev2 hardware
   8:../../DaisyExamples/libDaisy/src/daisy_seed.h **** //#define SEED_REV2
   9:../../DaisyExamples/libDaisy/src/daisy_seed.h **** 
  10:../../DaisyExamples/libDaisy/src/daisy_seed.h **** namespace daisy
  11:../../DaisyExamples/libDaisy/src/daisy_seed.h **** {
  12:../../DaisyExamples/libDaisy/src/daisy_seed.h **** /**
  13:../../DaisyExamples/libDaisy/src/daisy_seed.h ****    @brief This is the higher-level interface for the Daisy board. \n 
  14:../../DaisyExamples/libDaisy/src/daisy_seed.h ****     All basic peripheral configuration/initialization is setup here. \n
  15:../../DaisyExamples/libDaisy/src/daisy_seed.h **** 
  16:../../DaisyExamples/libDaisy/src/daisy_seed.h ****    @ingroup boards
  17:../../DaisyExamples/libDaisy/src/daisy_seed.h **** */
  18:../../DaisyExamples/libDaisy/src/daisy_seed.h **** class DaisySeed
  19:../../DaisyExamples/libDaisy/src/daisy_seed.h **** {
  20:../../DaisyExamples/libDaisy/src/daisy_seed.h ****   public:
  21:../../DaisyExamples/libDaisy/src/daisy_seed.h ****     DaisySeed() {}
  22:../../DaisyExamples/libDaisy/src/daisy_seed.h ****     ~DaisySeed() {}
 165              		.loc 11 22 5 is_stmt 1 view .LVU38
 166              	.LBB377:
 167              	.LBI377:
ARM GAS  /var/folders/hp/45mn71hd0ps5f5pnytxy5bt00000gn/T//ccWGldgQ.s 			page 16


 168              		.file 12 "../../DaisyExamples/libDaisy/src/sys/system.h"
   1:../../DaisyExamples/libDaisy/src/sys/system.h **** #ifndef DSY_SYSTEM_H
   2:../../DaisyExamples/libDaisy/src/sys/system.h **** #define DSY_SYSTEM_H
   3:../../DaisyExamples/libDaisy/src/sys/system.h **** 
   4:../../DaisyExamples/libDaisy/src/sys/system.h **** #ifndef UNIT_TEST // for unit tests, a dummy implementation is provided below
   5:../../DaisyExamples/libDaisy/src/sys/system.h **** 
   6:../../DaisyExamples/libDaisy/src/sys/system.h **** #include <cstdint>
   7:../../DaisyExamples/libDaisy/src/sys/system.h **** #include "per/tim.h"
   8:../../DaisyExamples/libDaisy/src/sys/system.h **** 
   9:../../DaisyExamples/libDaisy/src/sys/system.h **** namespace daisy
  10:../../DaisyExamples/libDaisy/src/sys/system.h **** {
  11:../../DaisyExamples/libDaisy/src/sys/system.h **** /** A handle for interacting with the Core System.
  12:../../DaisyExamples/libDaisy/src/sys/system.h ****  ** This includes the Clock tree, MPU, global DMA initialization,
  13:../../DaisyExamples/libDaisy/src/sys/system.h ****  ** cache handling, and any other necessary global initiailzation
  14:../../DaisyExamples/libDaisy/src/sys/system.h ****  **
  15:../../DaisyExamples/libDaisy/src/sys/system.h ****  ** @author shensley
  16:../../DaisyExamples/libDaisy/src/sys/system.h ****  ** @ingroup system
  17:../../DaisyExamples/libDaisy/src/sys/system.h ****  */
  18:../../DaisyExamples/libDaisy/src/sys/system.h **** class System
  19:../../DaisyExamples/libDaisy/src/sys/system.h **** {
  20:../../DaisyExamples/libDaisy/src/sys/system.h ****   public:
  21:../../DaisyExamples/libDaisy/src/sys/system.h ****     /** Contains settings for initializing the System */
  22:../../DaisyExamples/libDaisy/src/sys/system.h ****     struct Config
  23:../../DaisyExamples/libDaisy/src/sys/system.h ****     {
  24:../../DaisyExamples/libDaisy/src/sys/system.h ****         /** Specifies the system clock frequency that feeds APB/AHB clocks, etc. */
  25:../../DaisyExamples/libDaisy/src/sys/system.h ****         enum class SysClkFreq
  26:../../DaisyExamples/libDaisy/src/sys/system.h ****         {
  27:../../DaisyExamples/libDaisy/src/sys/system.h ****             FREQ_400MHZ,
  28:../../DaisyExamples/libDaisy/src/sys/system.h ****             FREQ_480MHZ,
  29:../../DaisyExamples/libDaisy/src/sys/system.h ****         };
  30:../../DaisyExamples/libDaisy/src/sys/system.h **** 
  31:../../DaisyExamples/libDaisy/src/sys/system.h ****         /** Method to call on the struct to set to defaults
  32:../../DaisyExamples/libDaisy/src/sys/system.h ****          ** CPU Freq set to 400MHz
  33:../../DaisyExamples/libDaisy/src/sys/system.h ****          ** Cache Enabled
  34:../../DaisyExamples/libDaisy/src/sys/system.h ****          ** */
  35:../../DaisyExamples/libDaisy/src/sys/system.h ****         void Defaults()
  36:../../DaisyExamples/libDaisy/src/sys/system.h ****         {
  37:../../DaisyExamples/libDaisy/src/sys/system.h ****             cpu_freq    = SysClkFreq::FREQ_400MHZ;
  38:../../DaisyExamples/libDaisy/src/sys/system.h ****             use_dcache  = true;
  39:../../DaisyExamples/libDaisy/src/sys/system.h ****             use_icache  = true;
  40:../../DaisyExamples/libDaisy/src/sys/system.h ****             skip_clocks = false;
  41:../../DaisyExamples/libDaisy/src/sys/system.h ****         }
  42:../../DaisyExamples/libDaisy/src/sys/system.h **** 
  43:../../DaisyExamples/libDaisy/src/sys/system.h ****         /** Method to call on the struct to set to boost mode:
  44:../../DaisyExamples/libDaisy/src/sys/system.h ****          ** CPU Freq set to 480MHz
  45:../../DaisyExamples/libDaisy/src/sys/system.h ****          ** Cache Enabled
  46:../../DaisyExamples/libDaisy/src/sys/system.h ****          ** */
  47:../../DaisyExamples/libDaisy/src/sys/system.h ****         void Boost()
  48:../../DaisyExamples/libDaisy/src/sys/system.h ****         {
  49:../../DaisyExamples/libDaisy/src/sys/system.h ****             cpu_freq    = SysClkFreq::FREQ_480MHZ;
  50:../../DaisyExamples/libDaisy/src/sys/system.h ****             use_dcache  = true;
  51:../../DaisyExamples/libDaisy/src/sys/system.h ****             use_icache  = true;
  52:../../DaisyExamples/libDaisy/src/sys/system.h ****             skip_clocks = false;
  53:../../DaisyExamples/libDaisy/src/sys/system.h ****         }
  54:../../DaisyExamples/libDaisy/src/sys/system.h **** 
  55:../../DaisyExamples/libDaisy/src/sys/system.h ****         SysClkFreq cpu_freq;
  56:../../DaisyExamples/libDaisy/src/sys/system.h ****         bool       use_dcache;
ARM GAS  /var/folders/hp/45mn71hd0ps5f5pnytxy5bt00000gn/T//ccWGldgQ.s 			page 17


  57:../../DaisyExamples/libDaisy/src/sys/system.h ****         bool       use_icache;
  58:../../DaisyExamples/libDaisy/src/sys/system.h ****         bool       skip_clocks;
  59:../../DaisyExamples/libDaisy/src/sys/system.h ****     };
  60:../../DaisyExamples/libDaisy/src/sys/system.h **** 
  61:../../DaisyExamples/libDaisy/src/sys/system.h ****     /** Describes the different regions of memory available to the Daisy */
  62:../../DaisyExamples/libDaisy/src/sys/system.h ****     enum MemoryRegion
  63:../../DaisyExamples/libDaisy/src/sys/system.h ****     {
  64:../../DaisyExamples/libDaisy/src/sys/system.h ****         INTERNAL_FLASH = 0,
  65:../../DaisyExamples/libDaisy/src/sys/system.h ****         ITCMRAM,
  66:../../DaisyExamples/libDaisy/src/sys/system.h ****         DTCMRAM,
  67:../../DaisyExamples/libDaisy/src/sys/system.h ****         SRAM_D1,
  68:../../DaisyExamples/libDaisy/src/sys/system.h ****         SRAM_D2,
  69:../../DaisyExamples/libDaisy/src/sys/system.h ****         SRAM_D3,
  70:../../DaisyExamples/libDaisy/src/sys/system.h ****         SDRAM,
  71:../../DaisyExamples/libDaisy/src/sys/system.h ****         QSPI,
  72:../../DaisyExamples/libDaisy/src/sys/system.h ****         INVALID_ADDRESS,
  73:../../DaisyExamples/libDaisy/src/sys/system.h ****     };
  74:../../DaisyExamples/libDaisy/src/sys/system.h **** 
  75:../../DaisyExamples/libDaisy/src/sys/system.h ****     /** Bootloader struct for controlling bootloading parameters */
  76:../../DaisyExamples/libDaisy/src/sys/system.h ****     struct BootInfo
  77:../../DaisyExamples/libDaisy/src/sys/system.h ****     {
  78:../../DaisyExamples/libDaisy/src/sys/system.h ****         enum class Type : uint32_t
  79:../../DaisyExamples/libDaisy/src/sys/system.h ****         {
  80:../../DaisyExamples/libDaisy/src/sys/system.h ****             INVALID      = 0x00000000,
  81:../../DaisyExamples/libDaisy/src/sys/system.h ****             JUMP         = 0xDEADBEEF,
  82:../../DaisyExamples/libDaisy/src/sys/system.h ****             SKIP_TIMEOUT = 0x5AFEB007,
  83:../../DaisyExamples/libDaisy/src/sys/system.h ****             INF_TIMEOUT  = 0xB0074EFA,
  84:../../DaisyExamples/libDaisy/src/sys/system.h ****         } status;
  85:../../DaisyExamples/libDaisy/src/sys/system.h ****         uint32_t data;
  86:../../DaisyExamples/libDaisy/src/sys/system.h ****         enum class Version : uint32_t
  87:../../DaisyExamples/libDaisy/src/sys/system.h ****         {
  88:../../DaisyExamples/libDaisy/src/sys/system.h ****             LT_v6_0 = 0, // Less than v6.0
  89:../../DaisyExamples/libDaisy/src/sys/system.h ****             NONE,        // No bootloader present
  90:../../DaisyExamples/libDaisy/src/sys/system.h ****             v6_0,        // v6.0
  91:../../DaisyExamples/libDaisy/src/sys/system.h ****             v6_1,        // v6.1 or greater
  92:../../DaisyExamples/libDaisy/src/sys/system.h ****             LAST
  93:../../DaisyExamples/libDaisy/src/sys/system.h ****         } version;
  94:../../DaisyExamples/libDaisy/src/sys/system.h ****     };
  95:../../DaisyExamples/libDaisy/src/sys/system.h **** 
  96:../../DaisyExamples/libDaisy/src/sys/system.h ****     System() {}
  97:../../DaisyExamples/libDaisy/src/sys/system.h ****     ~System() {}
 169              		.loc 12 97 5 view .LVU39
 170              		.loc 12 97 5 is_stmt 0 view .LVU40
 171              	.LBE377:
 172              	.LBB378:
 173              	.LBI378:
 174              		.file 13 "../../DaisyExamples/libDaisy/src/hid/usb.h"
   1:../../DaisyExamples/libDaisy/src/hid/usb.h **** #pragma once
   2:../../DaisyExamples/libDaisy/src/hid/usb.h **** #ifndef DSY_HID_USB_H
   3:../../DaisyExamples/libDaisy/src/hid/usb.h **** #define DSY_HID_USB_H
   4:../../DaisyExamples/libDaisy/src/hid/usb.h **** #include <stdint.h>
   5:../../DaisyExamples/libDaisy/src/hid/usb.h **** #include <stdlib.h>
   6:../../DaisyExamples/libDaisy/src/hid/usb.h **** 
   7:../../DaisyExamples/libDaisy/src/hid/usb.h **** namespace daisy
   8:../../DaisyExamples/libDaisy/src/hid/usb.h **** /** @addtogroup human_interface
   9:../../DaisyExamples/libDaisy/src/hid/usb.h ****     @{
  10:../../DaisyExamples/libDaisy/src/hid/usb.h **** */
ARM GAS  /var/folders/hp/45mn71hd0ps5f5pnytxy5bt00000gn/T//ccWGldgQ.s 			page 18


  11:../../DaisyExamples/libDaisy/src/hid/usb.h **** 
  12:../../DaisyExamples/libDaisy/src/hid/usb.h **** {
  13:../../DaisyExamples/libDaisy/src/hid/usb.h **** /** 
  14:../../DaisyExamples/libDaisy/src/hid/usb.h ****     @brief Interface for initializing and using the USB Peripherals on the daisy
  15:../../DaisyExamples/libDaisy/src/hid/usb.h ****     @author Stephen Hensley
  16:../../DaisyExamples/libDaisy/src/hid/usb.h ****     @date December 2019
  17:../../DaisyExamples/libDaisy/src/hid/usb.h **** */
  18:../../DaisyExamples/libDaisy/src/hid/usb.h **** class UsbHandle
  19:../../DaisyExamples/libDaisy/src/hid/usb.h **** {
  20:../../DaisyExamples/libDaisy/src/hid/usb.h ****   public:
  21:../../DaisyExamples/libDaisy/src/hid/usb.h ****     /** Return values for USBHandle Functions */
  22:../../DaisyExamples/libDaisy/src/hid/usb.h ****     enum class Result
  23:../../DaisyExamples/libDaisy/src/hid/usb.h ****     {
  24:../../DaisyExamples/libDaisy/src/hid/usb.h ****         OK,
  25:../../DaisyExamples/libDaisy/src/hid/usb.h ****         ERR,
  26:../../DaisyExamples/libDaisy/src/hid/usb.h ****     };
  27:../../DaisyExamples/libDaisy/src/hid/usb.h **** 
  28:../../DaisyExamples/libDaisy/src/hid/usb.h ****     /** Specified which of the two USB Peripherals to initialize. */
  29:../../DaisyExamples/libDaisy/src/hid/usb.h ****     enum UsbPeriph
  30:../../DaisyExamples/libDaisy/src/hid/usb.h ****     {
  31:../../DaisyExamples/libDaisy/src/hid/usb.h ****         FS_INTERNAL, /**< Internal pin */
  32:../../DaisyExamples/libDaisy/src/hid/usb.h ****         FS_EXTERNAL, /**< FS External D+ pin is Pin 38 (GPIO32). FS External D- pin is Pin 37 (GPIO
  33:../../DaisyExamples/libDaisy/src/hid/usb.h ****         FS_BOTH,     /**< Both */
  34:../../DaisyExamples/libDaisy/src/hid/usb.h ****     };
  35:../../DaisyExamples/libDaisy/src/hid/usb.h **** 
  36:../../DaisyExamples/libDaisy/src/hid/usb.h **** 
  37:../../DaisyExamples/libDaisy/src/hid/usb.h ****     /** Function called upon reception of a buffer */
  38:../../DaisyExamples/libDaisy/src/hid/usb.h ****     typedef void (*ReceiveCallback)(uint8_t* buff, uint32_t* len);
  39:../../DaisyExamples/libDaisy/src/hid/usb.h **** 
  40:../../DaisyExamples/libDaisy/src/hid/usb.h ****     UsbHandle() {}
  41:../../DaisyExamples/libDaisy/src/hid/usb.h **** 
  42:../../DaisyExamples/libDaisy/src/hid/usb.h ****     ~UsbHandle() {}
 175              		.loc 13 42 5 is_stmt 1 view .LVU41
 176              		.loc 13 42 5 is_stmt 0 view .LVU42
 177              	.LBE378:
 178              	.LBB379:
 179              	.LBI379:
 180              		.file 14 "../../DaisyExamples/libDaisy/src/per/adc.h"
   1:../../DaisyExamples/libDaisy/src/per/adc.h **** #pragma once
   2:../../DaisyExamples/libDaisy/src/per/adc.h **** #ifndef DSY_ADC_H
   3:../../DaisyExamples/libDaisy/src/per/adc.h **** #define DSY_ADC_H /**< Macro */
   4:../../DaisyExamples/libDaisy/src/per/adc.h **** #include <stdint.h>
   5:../../DaisyExamples/libDaisy/src/per/adc.h **** #include <stdlib.h>
   6:../../DaisyExamples/libDaisy/src/per/adc.h **** #include "daisy_core.h"
   7:../../DaisyExamples/libDaisy/src/per/adc.h **** #include "per/gpio.h"
   8:../../DaisyExamples/libDaisy/src/per/adc.h **** 
   9:../../DaisyExamples/libDaisy/src/per/adc.h **** #define DSY_ADC_MAX_CHANNELS 16 /**< Maximum number of ADC channels */
  10:../../DaisyExamples/libDaisy/src/per/adc.h **** 
  11:../../DaisyExamples/libDaisy/src/per/adc.h **** namespace daisy
  12:../../DaisyExamples/libDaisy/src/per/adc.h **** {
  13:../../DaisyExamples/libDaisy/src/per/adc.h **** /** @addtogroup per_analog
  14:../../DaisyExamples/libDaisy/src/per/adc.h ****     @{
  15:../../DaisyExamples/libDaisy/src/per/adc.h **** */
  16:../../DaisyExamples/libDaisy/src/per/adc.h **** 
  17:../../DaisyExamples/libDaisy/src/per/adc.h **** /* While there may not be many configuration options here,
  18:../../DaisyExamples/libDaisy/src/per/adc.h **** using a struct like this allows us to add more configuration
  19:../../DaisyExamples/libDaisy/src/per/adc.h **** later without breaking existing functionality.
ARM GAS  /var/folders/hp/45mn71hd0ps5f5pnytxy5bt00000gn/T//ccWGldgQ.s 			page 19


  20:../../DaisyExamples/libDaisy/src/per/adc.h **** */
  21:../../DaisyExamples/libDaisy/src/per/adc.h **** 
  22:../../DaisyExamples/libDaisy/src/per/adc.h **** /** @brief   Configuration Structure for an ADC Channel 
  23:../../DaisyExamples/libDaisy/src/per/adc.h ****  *  @details This can be used to configure a a single input, 
  24:../../DaisyExamples/libDaisy/src/per/adc.h ****  *           or a multiplexed input, allowing up to 8 inputs on 
  25:../../DaisyExamples/libDaisy/src/per/adc.h ****  *           one channel.
  26:../../DaisyExamples/libDaisy/src/per/adc.h ****  *  @note    Sharing data lines to multiple muxes _is_ possible, but
  27:../../DaisyExamples/libDaisy/src/per/adc.h ****  *           each channel sharing data lines must be set to the maximum
  28:../../DaisyExamples/libDaisy/src/per/adc.h ****  *           number of channels, even if some multiplexers have fewer
  29:../../DaisyExamples/libDaisy/src/per/adc.h ****  *           inputs connected.
  30:../../DaisyExamples/libDaisy/src/per/adc.h **** */
  31:../../DaisyExamples/libDaisy/src/per/adc.h **** struct AdcChannelConfig
  32:../../DaisyExamples/libDaisy/src/per/adc.h **** {
  33:../../DaisyExamples/libDaisy/src/per/adc.h ****     /** Which pin to use for multiplexing */
  34:../../DaisyExamples/libDaisy/src/per/adc.h ****     enum MuxPin
  35:../../DaisyExamples/libDaisy/src/per/adc.h ****     {
  36:../../DaisyExamples/libDaisy/src/per/adc.h ****         MUX_SEL_0,    /**< & */
  37:../../DaisyExamples/libDaisy/src/per/adc.h ****         MUX_SEL_1,    /**< & */
  38:../../DaisyExamples/libDaisy/src/per/adc.h ****         MUX_SEL_2,    /**< & */
  39:../../DaisyExamples/libDaisy/src/per/adc.h ****         MUX_SEL_LAST, /**< & */
  40:../../DaisyExamples/libDaisy/src/per/adc.h ****     };
  41:../../DaisyExamples/libDaisy/src/per/adc.h **** 
  42:../../DaisyExamples/libDaisy/src/per/adc.h ****     /** \brief per channel conversion speed added to fixed time based on bitdepth, etc. */
  43:../../DaisyExamples/libDaisy/src/per/adc.h ****     enum ConversionSpeed
  44:../../DaisyExamples/libDaisy/src/per/adc.h ****     {
  45:../../DaisyExamples/libDaisy/src/per/adc.h ****         SPEED_1CYCLES_5,
  46:../../DaisyExamples/libDaisy/src/per/adc.h ****         SPEED_2CYCLES_5,
  47:../../DaisyExamples/libDaisy/src/per/adc.h ****         SPEED_8CYCLES_5,
  48:../../DaisyExamples/libDaisy/src/per/adc.h ****         SPEED_16CYCLES_5,
  49:../../DaisyExamples/libDaisy/src/per/adc.h ****         SPEED_32CYCLES_5,
  50:../../DaisyExamples/libDaisy/src/per/adc.h ****         SPEED_64CYCLES_5,
  51:../../DaisyExamples/libDaisy/src/per/adc.h ****         SPEED_387CYCLES_5,
  52:../../DaisyExamples/libDaisy/src/per/adc.h ****         SPEED_810CYCLES_5,
  53:../../DaisyExamples/libDaisy/src/per/adc.h ****     };
  54:../../DaisyExamples/libDaisy/src/per/adc.h **** 
  55:../../DaisyExamples/libDaisy/src/per/adc.h ****     /** Initializes a single ADC pin as an ADC. 
  56:../../DaisyExamples/libDaisy/src/per/adc.h ****     \param pin Pin to init.
  57:../../DaisyExamples/libDaisy/src/per/adc.h ****     \param speed conversion speed for this pin defaults to 8.5 cycles
  58:../../DaisyExamples/libDaisy/src/per/adc.h ****      */
  59:../../DaisyExamples/libDaisy/src/per/adc.h ****     void InitSingle(dsy_gpio_pin pin, ConversionSpeed speed = SPEED_8CYCLES_5);
  60:../../DaisyExamples/libDaisy/src/per/adc.h **** 
  61:../../DaisyExamples/libDaisy/src/per/adc.h ****     /** 
  62:../../DaisyExamples/libDaisy/src/per/adc.h ****     Initializes a single ADC pin as a Multiplexed ADC.
  63:../../DaisyExamples/libDaisy/src/per/adc.h ****     Requires a CD405X Multiplexer connected to the pin.
  64:../../DaisyExamples/libDaisy/src/per/adc.h ****     You only need to supply the mux pins that are required,
  65:../../DaisyExamples/libDaisy/src/per/adc.h ****     e.g. a 4052 mux would only require mux_0 and mux_1.
  66:../../DaisyExamples/libDaisy/src/per/adc.h ****     Internal Callbacks handle the pin addressing.
  67:../../DaisyExamples/libDaisy/src/per/adc.h ****     \param adc_pin &
  68:../../DaisyExamples/libDaisy/src/per/adc.h ****     \param mux_channels must be 1-8
  69:../../DaisyExamples/libDaisy/src/per/adc.h ****     \param mux_0 First mux pin
  70:../../DaisyExamples/libDaisy/src/per/adc.h ****     \param mux_1 Second mux pin
  71:../../DaisyExamples/libDaisy/src/per/adc.h ****     \param mux_2 Third mux pin
  72:../../DaisyExamples/libDaisy/src/per/adc.h ****     \param speed conversion speed for this pin defaults to 8.5 cycles
  73:../../DaisyExamples/libDaisy/src/per/adc.h ****     */
  74:../../DaisyExamples/libDaisy/src/per/adc.h ****     void InitMux(dsy_gpio_pin    adc_pin,
  75:../../DaisyExamples/libDaisy/src/per/adc.h ****                  size_t          mux_channels,
  76:../../DaisyExamples/libDaisy/src/per/adc.h ****                  dsy_gpio_pin    mux_0,
ARM GAS  /var/folders/hp/45mn71hd0ps5f5pnytxy5bt00000gn/T//ccWGldgQ.s 			page 20


  77:../../DaisyExamples/libDaisy/src/per/adc.h ****                  dsy_gpio_pin    mux_1 = {DSY_GPIOX, 0},
  78:../../DaisyExamples/libDaisy/src/per/adc.h ****                  dsy_gpio_pin    mux_2 = {DSY_GPIOX, 0},
  79:../../DaisyExamples/libDaisy/src/per/adc.h ****                  ConversionSpeed speed = SPEED_8CYCLES_5);
  80:../../DaisyExamples/libDaisy/src/per/adc.h **** 
  81:../../DaisyExamples/libDaisy/src/per/adc.h ****     dsy_gpio        pin_;                   /**< & */
  82:../../DaisyExamples/libDaisy/src/per/adc.h ****     dsy_gpio        mux_pin_[MUX_SEL_LAST]; /**< & */
  83:../../DaisyExamples/libDaisy/src/per/adc.h ****     uint8_t         mux_channels_;          /**< & */
  84:../../DaisyExamples/libDaisy/src/per/adc.h ****     ConversionSpeed speed_;
  85:../../DaisyExamples/libDaisy/src/per/adc.h **** };
  86:../../DaisyExamples/libDaisy/src/per/adc.h **** 
  87:../../DaisyExamples/libDaisy/src/per/adc.h **** /**
  88:../../DaisyExamples/libDaisy/src/per/adc.h ****    @brief Handler for analog to digital conversion
  89:../../DaisyExamples/libDaisy/src/per/adc.h **** */
  90:../../DaisyExamples/libDaisy/src/per/adc.h **** class AdcHandle
  91:../../DaisyExamples/libDaisy/src/per/adc.h **** {
  92:../../DaisyExamples/libDaisy/src/per/adc.h ****   public:
  93:../../DaisyExamples/libDaisy/src/per/adc.h ****     /** Supported oversampling amounts */
  94:../../DaisyExamples/libDaisy/src/per/adc.h ****     enum OverSampling
  95:../../DaisyExamples/libDaisy/src/per/adc.h ****     {
  96:../../DaisyExamples/libDaisy/src/per/adc.h ****         OVS_NONE, /**< & */
  97:../../DaisyExamples/libDaisy/src/per/adc.h ****         OVS_4,    /**< & */
  98:../../DaisyExamples/libDaisy/src/per/adc.h ****         OVS_8,    /**< & */
  99:../../DaisyExamples/libDaisy/src/per/adc.h ****         OVS_16,   /**< & */
 100:../../DaisyExamples/libDaisy/src/per/adc.h ****         OVS_32,   /**< & */
 101:../../DaisyExamples/libDaisy/src/per/adc.h ****         OVS_64,   /**< & */
 102:../../DaisyExamples/libDaisy/src/per/adc.h ****         OVS_128,  /**< & */
 103:../../DaisyExamples/libDaisy/src/per/adc.h ****         OVS_256,  /**< & */
 104:../../DaisyExamples/libDaisy/src/per/adc.h ****         OVS_512,  /**< & */
 105:../../DaisyExamples/libDaisy/src/per/adc.h ****         OVS_1024, /**< & */
 106:../../DaisyExamples/libDaisy/src/per/adc.h ****         OVS_LAST, /**< & */
 107:../../DaisyExamples/libDaisy/src/per/adc.h ****     };
 108:../../DaisyExamples/libDaisy/src/per/adc.h **** 
 109:../../DaisyExamples/libDaisy/src/per/adc.h ****     AdcHandle() {}
 110:../../DaisyExamples/libDaisy/src/per/adc.h ****     ~AdcHandle() {}
 181              		.loc 14 110 5 is_stmt 1 view .LVU43
 182              		.loc 14 110 5 is_stmt 0 view .LVU44
 183              	.LBE379:
 184              	.LBB380:
 185              	.LBI380:
 186              		.file 15 "../../DaisyExamples/libDaisy/src/hid/audio.h"
   1:../../DaisyExamples/libDaisy/src/hid/audio.h **** #ifndef DSY_AUDIO_H
   2:../../DaisyExamples/libDaisy/src/hid/audio.h **** #define DSY_AUDIO_H /**< & */
   3:../../DaisyExamples/libDaisy/src/hid/audio.h **** 
   4:../../DaisyExamples/libDaisy/src/hid/audio.h **** #include "per/sai.h"
   5:../../DaisyExamples/libDaisy/src/hid/audio.h **** 
   6:../../DaisyExamples/libDaisy/src/hid/audio.h **** namespace daisy
   7:../../DaisyExamples/libDaisy/src/hid/audio.h **** {
   8:../../DaisyExamples/libDaisy/src/hid/audio.h **** /** @brief Audio Engine Handle
   9:../../DaisyExamples/libDaisy/src/hid/audio.h ****  *  @ingroup audio 
  10:../../DaisyExamples/libDaisy/src/hid/audio.h ****  *  @details This class allows for higher level access to an audio engine.
  11:../../DaisyExamples/libDaisy/src/hid/audio.h ****  *           If you're using a SOM like the DaisySeed or DaisyPatchSM (or any 
  12:../../DaisyExamples/libDaisy/src/hid/audio.h ****  *            board that includes one of those objects) then the intialization
  13:../../DaisyExamples/libDaisy/src/hid/audio.h ****  *            is already taken  care of.
  14:../../DaisyExamples/libDaisy/src/hid/audio.h ****  *           If you're setting up your own custom hardware, or need to make changes
  15:../../DaisyExamples/libDaisy/src/hid/audio.h ****  *           you will have to take the following steps:
  16:../../DaisyExamples/libDaisy/src/hid/audio.h ****  *             1. Create and Initialize an SaiHandle or two depending on your requirements
  17:../../DaisyExamples/libDaisy/src/hid/audio.h ****  *             2. Initialize the Audio Handle with the desired settings and the Initialized SaiHand
ARM GAS  /var/folders/hp/45mn71hd0ps5f5pnytxy5bt00000gn/T//ccWGldgQ.s 			page 21


  18:../../DaisyExamples/libDaisy/src/hid/audio.h ****  *             3. If the connected codec requires special configuration or initialization, do so
  19:../../DaisyExamples/libDaisy/src/hid/audio.h ****  *             4. Write a callback method using either the AudioCallback or the InterleavingAudioCa
  20:../../DaisyExamples/libDaisy/src/hid/audio.h ****  *             5. Start the Audio using one of the StartAudio function
  21:../../DaisyExamples/libDaisy/src/hid/audio.h ****  */
  22:../../DaisyExamples/libDaisy/src/hid/audio.h **** class AudioHandle
  23:../../DaisyExamples/libDaisy/src/hid/audio.h **** {
  24:../../DaisyExamples/libDaisy/src/hid/audio.h ****   public:
  25:../../DaisyExamples/libDaisy/src/hid/audio.h ****     /** Manually configurable details about the Audio Engine */
  26:../../DaisyExamples/libDaisy/src/hid/audio.h ****     /** TODO: Figure out how to get samplerate in here. */
  27:../../DaisyExamples/libDaisy/src/hid/audio.h ****     struct Config
  28:../../DaisyExamples/libDaisy/src/hid/audio.h ****     {
  29:../../DaisyExamples/libDaisy/src/hid/audio.h ****         /** number of samples to process per callback */
  30:../../DaisyExamples/libDaisy/src/hid/audio.h ****         size_t blocksize;
  31:../../DaisyExamples/libDaisy/src/hid/audio.h **** 
  32:../../DaisyExamples/libDaisy/src/hid/audio.h ****         /**< Sample rate of audio */
  33:../../DaisyExamples/libDaisy/src/hid/audio.h ****         SaiHandle::Config::SampleRate samplerate;
  34:../../DaisyExamples/libDaisy/src/hid/audio.h **** 
  35:../../DaisyExamples/libDaisy/src/hid/audio.h ****         /** factor for adjustment before and after callback for hardware that may have extra headro
  36:../../DaisyExamples/libDaisy/src/hid/audio.h ****         float postgain;
  37:../../DaisyExamples/libDaisy/src/hid/audio.h **** 
  38:../../DaisyExamples/libDaisy/src/hid/audio.h ****         /** factor for additional one-sided compensation to audio path for hardware that may
  39:../../DaisyExamples/libDaisy/src/hid/audio.h ****          *  have unequal input/output ranges
  40:../../DaisyExamples/libDaisy/src/hid/audio.h ****          */
  41:../../DaisyExamples/libDaisy/src/hid/audio.h ****         float output_compensation;
  42:../../DaisyExamples/libDaisy/src/hid/audio.h **** 
  43:../../DaisyExamples/libDaisy/src/hid/audio.h ****         /** Sets default values for config struct */
  44:../../DaisyExamples/libDaisy/src/hid/audio.h ****         Config()
  45:../../DaisyExamples/libDaisy/src/hid/audio.h ****         : blocksize(48),
  46:../../DaisyExamples/libDaisy/src/hid/audio.h ****           samplerate(SaiHandle::Config::SampleRate::SAI_48KHZ),
  47:../../DaisyExamples/libDaisy/src/hid/audio.h ****           postgain(1.f),
  48:../../DaisyExamples/libDaisy/src/hid/audio.h ****           output_compensation(1.f)
  49:../../DaisyExamples/libDaisy/src/hid/audio.h ****         {
  50:../../DaisyExamples/libDaisy/src/hid/audio.h ****         }
  51:../../DaisyExamples/libDaisy/src/hid/audio.h ****     };
  52:../../DaisyExamples/libDaisy/src/hid/audio.h **** 
  53:../../DaisyExamples/libDaisy/src/hid/audio.h ****     enum class Result
  54:../../DaisyExamples/libDaisy/src/hid/audio.h ****     {
  55:../../DaisyExamples/libDaisy/src/hid/audio.h ****         OK,
  56:../../DaisyExamples/libDaisy/src/hid/audio.h ****         ERR,
  57:../../DaisyExamples/libDaisy/src/hid/audio.h ****     };
  58:../../DaisyExamples/libDaisy/src/hid/audio.h **** 
  59:../../DaisyExamples/libDaisy/src/hid/audio.h ****     /** Non-Interleaving input buffer
  60:../../DaisyExamples/libDaisy/src/hid/audio.h ****      * Buffer arranged by float[chn][sample] 
  61:../../DaisyExamples/libDaisy/src/hid/audio.h ****      * const so that the user can't modify the input
  62:../../DaisyExamples/libDaisy/src/hid/audio.h ****      */
  63:../../DaisyExamples/libDaisy/src/hid/audio.h ****     typedef const float* const* InputBuffer;
  64:../../DaisyExamples/libDaisy/src/hid/audio.h **** 
  65:../../DaisyExamples/libDaisy/src/hid/audio.h ****     /** Non-Interleaving output buffer
  66:../../DaisyExamples/libDaisy/src/hid/audio.h ****      * Arranged by float[chn][sample] 
  67:../../DaisyExamples/libDaisy/src/hid/audio.h ****      */
  68:../../DaisyExamples/libDaisy/src/hid/audio.h ****     typedef float** OutputBuffer;
  69:../../DaisyExamples/libDaisy/src/hid/audio.h **** 
  70:../../DaisyExamples/libDaisy/src/hid/audio.h ****     /** Type for a Non-Interleaving audio callback 
  71:../../DaisyExamples/libDaisy/src/hid/audio.h ****      * Non-Interleaving audio callbacks in daisy will be of this type
  72:../../DaisyExamples/libDaisy/src/hid/audio.h ****      */
  73:../../DaisyExamples/libDaisy/src/hid/audio.h ****     typedef void (*AudioCallback)(InputBuffer  in,
  74:../../DaisyExamples/libDaisy/src/hid/audio.h ****                                   OutputBuffer out,
ARM GAS  /var/folders/hp/45mn71hd0ps5f5pnytxy5bt00000gn/T//ccWGldgQ.s 			page 22


  75:../../DaisyExamples/libDaisy/src/hid/audio.h ****                                   size_t       size);
  76:../../DaisyExamples/libDaisy/src/hid/audio.h **** 
  77:../../DaisyExamples/libDaisy/src/hid/audio.h ****     /** Interleaving Input buffer
  78:../../DaisyExamples/libDaisy/src/hid/audio.h ****      ** audio is prepared as { L0, R0, L1, R1, . . . LN, RN }]
  79:../../DaisyExamples/libDaisy/src/hid/audio.h ****      ** this is const, as the user shouldn't modify it
  80:../../DaisyExamples/libDaisy/src/hid/audio.h ****     */
  81:../../DaisyExamples/libDaisy/src/hid/audio.h ****     typedef const float* InterleavingInputBuffer;
  82:../../DaisyExamples/libDaisy/src/hid/audio.h **** 
  83:../../DaisyExamples/libDaisy/src/hid/audio.h ****     /** Interleaving Output buffer 
  84:../../DaisyExamples/libDaisy/src/hid/audio.h ****      ** audio is prepared as { L0, R0, L1, R1, . . . LN, RN }
  85:../../DaisyExamples/libDaisy/src/hid/audio.h ****     */
  86:../../DaisyExamples/libDaisy/src/hid/audio.h ****     typedef float* InterleavingOutputBuffer;
  87:../../DaisyExamples/libDaisy/src/hid/audio.h **** 
  88:../../DaisyExamples/libDaisy/src/hid/audio.h ****     /** Interleaving Audio Callback 
  89:../../DaisyExamples/libDaisy/src/hid/audio.h ****      * Interleaving audio callbacks in daisy must be of this type
  90:../../DaisyExamples/libDaisy/src/hid/audio.h ****      */
  91:../../DaisyExamples/libDaisy/src/hid/audio.h ****     typedef void (*InterleavingAudioCallback)(InterleavingInputBuffer  in,
  92:../../DaisyExamples/libDaisy/src/hid/audio.h ****                                               InterleavingOutputBuffer out,
  93:../../DaisyExamples/libDaisy/src/hid/audio.h ****                                               size_t                   size);
  94:../../DaisyExamples/libDaisy/src/hid/audio.h **** 
  95:../../DaisyExamples/libDaisy/src/hid/audio.h ****     AudioHandle() : pimpl_(nullptr) {}
  96:../../DaisyExamples/libDaisy/src/hid/audio.h ****     ~AudioHandle() {}
 187              		.loc 15 96 5 is_stmt 1 view .LVU45
 188              		.loc 15 96 5 is_stmt 0 view .LVU46
 189              	.LBE380:
 190              	.LBE376:
 191              		.loc 3 36 18 view .LVU47
 192 0000 7047     		bx	lr
 193              		.cfi_endproc
 194              	.LFE2565:
 196              		.weak	_ZN5daisy8DaisyPodD1Ev
 197              		.thumb_set _ZN5daisy8DaisyPodD1Ev,_ZN5daisy8DaisyPodD2Ev
 198 0002 00BF     		.section	.text._ZN7daisysp5AdEnvD2Ev,"axG",%progbits,_ZN7daisysp5AdEnvD5Ev,comdat
 199              		.align	1
 200              		.p2align 2,,3
 201              		.weak	_ZN7daisysp5AdEnvD2Ev
 202              		.syntax unified
 203              		.thumb
 204              		.thumb_func
 206              	_ZN7daisysp5AdEnvD2Ev:
 207              	.LVL2:
 208              	.LFB2572:
 209              		.file 16 "../../DaisyExamples/DaisySP/Source/Control/adenv.h"
   1:../../DaisyExamples/DaisySP/Source/Control/adenv.h **** /*
   2:../../DaisyExamples/DaisySP/Source/Control/adenv.h **** Copyright (c) 2020 Electrosmith, Corp
   3:../../DaisyExamples/DaisySP/Source/Control/adenv.h **** 
   4:../../DaisyExamples/DaisySP/Source/Control/adenv.h **** Use of this source code is governed by an MIT-style
   5:../../DaisyExamples/DaisySP/Source/Control/adenv.h **** license that can be found in the LICENSE file or at
   6:../../DaisyExamples/DaisySP/Source/Control/adenv.h **** https://opensource.org/licenses/MIT.
   7:../../DaisyExamples/DaisySP/Source/Control/adenv.h **** */
   8:../../DaisyExamples/DaisySP/Source/Control/adenv.h **** 
   9:../../DaisyExamples/DaisySP/Source/Control/adenv.h **** #pragma once
  10:../../DaisyExamples/DaisySP/Source/Control/adenv.h **** #ifndef ADENV_H
  11:../../DaisyExamples/DaisySP/Source/Control/adenv.h **** #define ADENV_H
  12:../../DaisyExamples/DaisySP/Source/Control/adenv.h **** #include <stdint.h>
  13:../../DaisyExamples/DaisySP/Source/Control/adenv.h **** #ifdef __cplusplus
  14:../../DaisyExamples/DaisySP/Source/Control/adenv.h **** 
ARM GAS  /var/folders/hp/45mn71hd0ps5f5pnytxy5bt00000gn/T//ccWGldgQ.s 			page 23


  15:../../DaisyExamples/DaisySP/Source/Control/adenv.h **** namespace daisysp
  16:../../DaisyExamples/DaisySP/Source/Control/adenv.h **** {
  17:../../DaisyExamples/DaisySP/Source/Control/adenv.h **** /** Distinct stages that the phase of the envelope can be located in.
  18:../../DaisyExamples/DaisySP/Source/Control/adenv.h ****     @see AdEnv
  19:../../DaisyExamples/DaisySP/Source/Control/adenv.h **** */
  20:../../DaisyExamples/DaisySP/Source/Control/adenv.h **** enum AdEnvSegment
  21:../../DaisyExamples/DaisySP/Source/Control/adenv.h **** {
  22:../../DaisyExamples/DaisySP/Source/Control/adenv.h ****     /** located at phase location 0, and not currently running */
  23:../../DaisyExamples/DaisySP/Source/Control/adenv.h ****     ADENV_SEG_IDLE,
  24:../../DaisyExamples/DaisySP/Source/Control/adenv.h ****     /** First segment of envelope where phase moves from MIN value to MAX value */
  25:../../DaisyExamples/DaisySP/Source/Control/adenv.h ****     ADENV_SEG_ATTACK,
  26:../../DaisyExamples/DaisySP/Source/Control/adenv.h ****     /** Second segment of envelope where phase moves from MAX to MIN value */
  27:../../DaisyExamples/DaisySP/Source/Control/adenv.h ****     ADENV_SEG_DECAY,
  28:../../DaisyExamples/DaisySP/Source/Control/adenv.h ****     /** The final segment of the envelope (currently decay) */
  29:../../DaisyExamples/DaisySP/Source/Control/adenv.h ****     ADENV_SEG_LAST,
  30:../../DaisyExamples/DaisySP/Source/Control/adenv.h **** };
  31:../../DaisyExamples/DaisySP/Source/Control/adenv.h **** 
  32:../../DaisyExamples/DaisySP/Source/Control/adenv.h **** /** Trigger-able envelope with adjustable min/max, and independent per-segment time control.
  33:../../DaisyExamples/DaisySP/Source/Control/adenv.h **** 
  34:../../DaisyExamples/DaisySP/Source/Control/adenv.h ****     \author shensley
  35:../../DaisyExamples/DaisySP/Source/Control/adenv.h ****     \todo - Add Cycling
  36:../../DaisyExamples/DaisySP/Source/Control/adenv.h ****     \todo - Implement Curve (its only linear for now).
  37:../../DaisyExamples/DaisySP/Source/Control/adenv.h ****     \todo - Maybe make this an ADsr_ that has AD/AR/Asr_ modes.
  38:../../DaisyExamples/DaisySP/Source/Control/adenv.h ****  */
  39:../../DaisyExamples/DaisySP/Source/Control/adenv.h **** class AdEnv
  40:../../DaisyExamples/DaisySP/Source/Control/adenv.h **** {
  41:../../DaisyExamples/DaisySP/Source/Control/adenv.h ****   public:
  42:../../DaisyExamples/DaisySP/Source/Control/adenv.h ****     AdEnv() {}
  43:../../DaisyExamples/DaisySP/Source/Control/adenv.h ****     ~AdEnv() {}
 210              		.loc 16 43 5 is_stmt 1 view -0
 211              		.cfi_startproc
 212              		@ args = 0, pretend = 0, frame = 0
 213              		@ frame_needed = 0, uses_anonymous_args = 0
 214              		@ link register save eliminated.
 215              		.loc 16 43 15 is_stmt 0 view .LVU49
 216 0000 7047     		bx	lr
 217              		.cfi_endproc
 218              	.LFE2572:
 220              		.weak	_ZN7daisysp5AdEnvD1Ev
 221              		.thumb_set _ZN7daisysp5AdEnvD1Ev,_ZN7daisysp5AdEnvD2Ev
 222 0002 00BF     		.section	.text._ZN7daisysp10OscillatorD2Ev,"axG",%progbits,_ZN7daisysp10OscillatorD5Ev,comdat
 223              		.align	1
 224              		.p2align 2,,3
 225              		.weak	_ZN7daisysp10OscillatorD2Ev
 226              		.syntax unified
 227              		.thumb
 228              		.thumb_func
 230              	_ZN7daisysp10OscillatorD2Ev:
 231              	.LVL3:
 232              	.LFB4248:
 233              		.file 17 "../../DaisyExamples/DaisySP/Source/Synthesis/oscillator.h"
   1:../../DaisyExamples/DaisySP/Source/Synthesis/oscillator.h **** /*
   2:../../DaisyExamples/DaisySP/Source/Synthesis/oscillator.h **** Copyright (c) 2020 Electrosmith, Corp
   3:../../DaisyExamples/DaisySP/Source/Synthesis/oscillator.h **** 
   4:../../DaisyExamples/DaisySP/Source/Synthesis/oscillator.h **** Use of this source code is governed by an MIT-style
   5:../../DaisyExamples/DaisySP/Source/Synthesis/oscillator.h **** license that can be found in the LICENSE file or at
   6:../../DaisyExamples/DaisySP/Source/Synthesis/oscillator.h **** https://opensource.org/licenses/MIT.
ARM GAS  /var/folders/hp/45mn71hd0ps5f5pnytxy5bt00000gn/T//ccWGldgQ.s 			page 24


   7:../../DaisyExamples/DaisySP/Source/Synthesis/oscillator.h **** */
   8:../../DaisyExamples/DaisySP/Source/Synthesis/oscillator.h **** 
   9:../../DaisyExamples/DaisySP/Source/Synthesis/oscillator.h **** #pragma once
  10:../../DaisyExamples/DaisySP/Source/Synthesis/oscillator.h **** #ifndef DSY_OSCILLATOR_H
  11:../../DaisyExamples/DaisySP/Source/Synthesis/oscillator.h **** #define DSY_OSCILLATOR_H
  12:../../DaisyExamples/DaisySP/Source/Synthesis/oscillator.h **** #include <stdint.h>
  13:../../DaisyExamples/DaisySP/Source/Synthesis/oscillator.h **** #include "Utility/dsp.h"
  14:../../DaisyExamples/DaisySP/Source/Synthesis/oscillator.h **** #ifdef __cplusplus
  15:../../DaisyExamples/DaisySP/Source/Synthesis/oscillator.h **** 
  16:../../DaisyExamples/DaisySP/Source/Synthesis/oscillator.h **** namespace daisysp
  17:../../DaisyExamples/DaisySP/Source/Synthesis/oscillator.h **** {
  18:../../DaisyExamples/DaisySP/Source/Synthesis/oscillator.h **** /** Synthesis of several waveforms, including polyBLEP bandlimited waveforms.
  19:../../DaisyExamples/DaisySP/Source/Synthesis/oscillator.h **** */
  20:../../DaisyExamples/DaisySP/Source/Synthesis/oscillator.h **** class Oscillator
  21:../../DaisyExamples/DaisySP/Source/Synthesis/oscillator.h **** {
  22:../../DaisyExamples/DaisySP/Source/Synthesis/oscillator.h ****   public:
  23:../../DaisyExamples/DaisySP/Source/Synthesis/oscillator.h ****     Oscillator() {}
  24:../../DaisyExamples/DaisySP/Source/Synthesis/oscillator.h ****     ~Oscillator() {}
 234              		.loc 17 24 5 is_stmt 1 view -0
 235              		.cfi_startproc
 236              		@ args = 0, pretend = 0, frame = 0
 237              		@ frame_needed = 0, uses_anonymous_args = 0
 238              		@ link register save eliminated.
 239              		.loc 17 24 20 is_stmt 0 view .LVU51
 240 0000 7047     		bx	lr
 241              		.cfi_endproc
 242              	.LFE4248:
 244              		.weak	_ZN7daisysp10OscillatorD1Ev
 245              		.thumb_set _ZN7daisysp10OscillatorD1Ev,_ZN7daisysp10OscillatorD2Ev
 246 0002 00BF     		.section	.text._ZL13AudioCallbackPKfPfj,"ax",%progbits
 247              		.align	1
 248              		.p2align 2,,3
 249              		.syntax unified
 250              		.thumb
 251              		.thumb_func
 253              	_ZL13AudioCallbackPKfPfj:
 254              	.LVL4:
 255              	.LFB4854:
 256              		.file 18 "SynthV3.cpp"
   1:SynthV3.cpp   **** #include "daisy_pod.h"
   2:SynthV3.cpp   **** #include "daisysp.h"
   3:SynthV3.cpp   **** 
   4:SynthV3.cpp   **** using namespace daisy;
   5:SynthV3.cpp   **** using namespace daisysp;
   6:SynthV3.cpp   **** 
   7:SynthV3.cpp   **** static DaisyPod pod;
   8:SynthV3.cpp   **** static Oscillator osc;
   9:SynthV3.cpp   **** static AdEnv ad;
  10:SynthV3.cpp   **** static Parameter  p_freq;
  11:SynthV3.cpp   **** static Parameter p_release;
  12:SynthV3.cpp   **** 
  13:SynthV3.cpp   **** float freq;
  14:SynthV3.cpp   **** float adRelease;
  15:SynthV3.cpp   **** bool adCycle;
  16:SynthV3.cpp   **** 
  17:SynthV3.cpp   **** static void AudioCallback(AudioHandle::InterleavingInputBuffer  in,
  18:SynthV3.cpp   ****                           AudioHandle::InterleavingOutputBuffer out,
ARM GAS  /var/folders/hp/45mn71hd0ps5f5pnytxy5bt00000gn/T//ccWGldgQ.s 			page 25


  19:SynthV3.cpp   ****                           size_t                                size)
  20:SynthV3.cpp   **** {
 257              		.loc 18 20 1 is_stmt 1 view -0
 258              		.cfi_startproc
 259              		@ args = 0, pretend = 0, frame = 0
 260              		@ frame_needed = 0, uses_anonymous_args = 0
  21:SynthV3.cpp   ****     pod.ProcessAnalogControls();
 261              		.loc 18 21 5 view .LVU53
  20:SynthV3.cpp   ****     pod.ProcessAnalogControls();
 262              		.loc 18 20 1 is_stmt 0 view .LVU54
 263 0000 2DE9F047 		push	{r4, r5, r6, r7, r8, r9, r10, lr}
 264              		.cfi_def_cfa_offset 32
 265              		.cfi_offset 4, -32
 266              		.cfi_offset 5, -28
 267              		.cfi_offset 6, -24
 268              		.cfi_offset 7, -20
 269              		.cfi_offset 8, -16
 270              		.cfi_offset 9, -12
 271              		.cfi_offset 10, -8
 272              		.cfi_offset 14, -4
 273              		.loc 18 21 30 view .LVU55
 274 0004 304D     		ldr	r5, .L30
  20:SynthV3.cpp   ****     pod.ProcessAnalogControls();
 275              		.loc 18 20 1 view .LVU56
 276 0006 0C46     		mov	r4, r1
 277 0008 1646     		mov	r6, r2
 278              		.loc 18 21 30 view .LVU57
 279 000a 2846     		mov	r0, r5
 280              	.LVL5:
  20:SynthV3.cpp   ****     pod.ProcessAnalogControls();
 281              		.loc 18 20 1 view .LVU58
 282 000c 2DED028B 		vpush.64	{d8}
 283              		.cfi_def_cfa_offset 40
 284              		.cfi_offset 80, -40
 285              		.cfi_offset 81, -36
 286              		.loc 18 21 30 view .LVU59
 287 0010 FFF7FEFF 		bl	_ZN5daisy8DaisyPod21ProcessAnalogControlsEv
 288              	.LVL6:
  22:SynthV3.cpp   ****     pod.ProcessDigitalControls();
 289              		.loc 18 22 5 is_stmt 1 view .LVU60
 290              		.loc 18 22 31 is_stmt 0 view .LVU61
 291 0014 2846     		mov	r0, r5
 292 0016 FFF7FEFF 		bl	_ZN5daisy8DaisyPod22ProcessDigitalControlsEv
 293              	.LVL7:
  23:SynthV3.cpp   **** 
  24:SynthV3.cpp   **** 
  25:SynthV3.cpp   ****     if(pod.button1.RisingEdge() || (adCycle && !ad.IsRunning()))
 294              		.loc 18 25 5 is_stmt 1 view .LVU62
 295              	.LBB381:
 296              	.LBI381:
  43:../../DaisyExamples/libDaisy/src/hid/switch.h **** 
  44:../../DaisyExamples/libDaisy/src/hid/switch.h ****     /** 
  45:../../DaisyExamples/libDaisy/src/hid/switch.h ****     Initializes the switch object with a given port/pin combo.
  46:../../DaisyExamples/libDaisy/src/hid/switch.h ****     \param pin port/pin object to tell the switch which hardware pin to use.
  47:../../DaisyExamples/libDaisy/src/hid/switch.h ****     \param update_rate Does nothing. Backwards compatibility until next breaking update.
  48:../../DaisyExamples/libDaisy/src/hid/switch.h ****     \param t switch type -- Default: TYPE_MOMENTARY
  49:../../DaisyExamples/libDaisy/src/hid/switch.h ****     \param pol switch polarity -- Default: POLARITY_INVERTED
ARM GAS  /var/folders/hp/45mn71hd0ps5f5pnytxy5bt00000gn/T//ccWGldgQ.s 			page 26


  50:../../DaisyExamples/libDaisy/src/hid/switch.h ****     \param pu switch pull up/down -- Default: PULL_UP
  51:../../DaisyExamples/libDaisy/src/hid/switch.h ****     */
  52:../../DaisyExamples/libDaisy/src/hid/switch.h ****     void
  53:../../DaisyExamples/libDaisy/src/hid/switch.h ****     Init(dsy_gpio_pin pin, float update_rate, Type t, Polarity pol, Pull pu);
  54:../../DaisyExamples/libDaisy/src/hid/switch.h **** 
  55:../../DaisyExamples/libDaisy/src/hid/switch.h ****     /**
  56:../../DaisyExamples/libDaisy/src/hid/switch.h ****        Simplified Init.
  57:../../DaisyExamples/libDaisy/src/hid/switch.h ****        \param pin port/pin object to tell the switch which hardware pin to use.
  58:../../DaisyExamples/libDaisy/src/hid/switch.h ****        \param update_rate Left for backwards compatibility until next breaking change.
  59:../../DaisyExamples/libDaisy/src/hid/switch.h ****     */
  60:../../DaisyExamples/libDaisy/src/hid/switch.h ****     void Init(dsy_gpio_pin pin, float update_rate = 0.f);
  61:../../DaisyExamples/libDaisy/src/hid/switch.h **** 
  62:../../DaisyExamples/libDaisy/src/hid/switch.h ****     /** 
  63:../../DaisyExamples/libDaisy/src/hid/switch.h ****     Called at update_rate to debounce and handle timing for the switch.
  64:../../DaisyExamples/libDaisy/src/hid/switch.h ****     In order for events not to be missed, its important that the Edge/Pressed checks
  65:../../DaisyExamples/libDaisy/src/hid/switch.h ****     be made at the same rate as the debounce function is being called.
  66:../../DaisyExamples/libDaisy/src/hid/switch.h ****     */
  67:../../DaisyExamples/libDaisy/src/hid/switch.h ****     void Debounce();
  68:../../DaisyExamples/libDaisy/src/hid/switch.h **** 
  69:../../DaisyExamples/libDaisy/src/hid/switch.h ****     /** \return true if a button was just pressed. */
  70:../../DaisyExamples/libDaisy/src/hid/switch.h ****     inline bool RisingEdge() const { return updated_ ? state_ == 0x7f : false; }
 297              		.loc 9 70 17 view .LVU63
 298              	.LBB382:
 299              		.loc 9 70 38 view .LVU64
 300              		.loc 9 70 54 is_stmt 0 view .LVU65
 301 001a 95F8B430 		ldrb	r3, [r5, #180]	@ zero_extendqisi2
 302 001e 002B     		cmp	r3, #0
 303 0020 43D0     		beq	.L7
 304              	.LVL8:
 305              		.loc 9 70 54 view .LVU66
 306              	.LBE382:
 307              	.LBE381:
 308              		.loc 18 25 33 view .LVU67
 309 0022 95F8BA30 		ldrb	r3, [r5, #186]	@ zero_extendqisi2
 310 0026 7F2B     		cmp	r3, #127
 311 0028 3FD1     		bne	.L7
 312 002a 284F     		ldr	r7, .L30+4
 313              	.L8:
  26:SynthV3.cpp   ****     {
  27:SynthV3.cpp   ****         ad.Trigger();
 314              		.loc 18 27 9 is_stmt 1 discriminator 5 view .LVU68
 315              	.LVL9:
 316              	.LBB383:
 317              	.LBI383:
  44:../../DaisyExamples/DaisySP/Source/Control/adenv.h ****     /** Initializes the ad envelope.
  45:../../DaisyExamples/DaisySP/Source/Control/adenv.h **** 
  46:../../DaisyExamples/DaisySP/Source/Control/adenv.h ****         Defaults:
  47:../../DaisyExamples/DaisySP/Source/Control/adenv.h ****             - current segment = idle
  48:../../DaisyExamples/DaisySP/Source/Control/adenv.h ****             - curve = linear
  49:../../DaisyExamples/DaisySP/Source/Control/adenv.h ****             - phase = 0
  50:../../DaisyExamples/DaisySP/Source/Control/adenv.h ****             - min = 0
  51:../../DaisyExamples/DaisySP/Source/Control/adenv.h ****             - max = 1
  52:../../DaisyExamples/DaisySP/Source/Control/adenv.h **** 
  53:../../DaisyExamples/DaisySP/Source/Control/adenv.h ****         \param sample_rate      sample rate of the audio engine being run
  54:../../DaisyExamples/DaisySP/Source/Control/adenv.h ****     */
  55:../../DaisyExamples/DaisySP/Source/Control/adenv.h ****     void Init(float sample_rate);
  56:../../DaisyExamples/DaisySP/Source/Control/adenv.h **** 
ARM GAS  /var/folders/hp/45mn71hd0ps5f5pnytxy5bt00000gn/T//ccWGldgQ.s 			page 27


  57:../../DaisyExamples/DaisySP/Source/Control/adenv.h ****     /** Processes the current sample of the envelope. This should be called once
  58:../../DaisyExamples/DaisySP/Source/Control/adenv.h ****         per sample period.
  59:../../DaisyExamples/DaisySP/Source/Control/adenv.h ****         \return the current envelope value.
  60:../../DaisyExamples/DaisySP/Source/Control/adenv.h ****     */
  61:../../DaisyExamples/DaisySP/Source/Control/adenv.h ****     float Process();
  62:../../DaisyExamples/DaisySP/Source/Control/adenv.h **** 
  63:../../DaisyExamples/DaisySP/Source/Control/adenv.h ****     /** Starts or retriggers the envelope.*/
  64:../../DaisyExamples/DaisySP/Source/Control/adenv.h ****     inline void Trigger() { trigger_ = 1; }
 318              		.loc 16 64 17 discriminator 5 view .LVU69
 319              	.LBB384:
 320              		.loc 16 64 29 discriminator 5 view .LVU70
 321              		.loc 16 64 38 is_stmt 0 discriminator 5 view .LVU71
 322 002c 0123     		movs	r3, #1
 323 002e 87F83430 		strb	r3, [r7, #52]
 324              	.LVL10:
 325              	.L9:
 326              		.loc 16 64 38 discriminator 5 view .LVU72
 327              	.LBE384:
 328              	.LBE383:
  28:SynthV3.cpp   ****     }
  29:SynthV3.cpp   **** 
  30:SynthV3.cpp   ****     // Button 2 set to enable/disable envelop cycling
  31:SynthV3.cpp   ****     if(pod.button2.RisingEdge())
 329              		.loc 18 31 5 is_stmt 1 view .LVU73
 330              	.LBB385:
 331              	.LBI385:
 332              		.loc 9 70 17 view .LVU74
 333              	.LBB386:
 334              		.loc 9 70 38 view .LVU75
 335              		.loc 9 70 54 is_stmt 0 view .LVU76
 336 0032 95F8C430 		ldrb	r3, [r5, #196]	@ zero_extendqisi2
 337 0036 1BB1     		cbz	r3, .L10
 338              	.LVL11:
 339              		.loc 9 70 54 view .LVU77
 340              	.LBE386:
 341              	.LBE385:
 342              		.loc 18 31 5 view .LVU78
 343 0038 95F8CA30 		ldrb	r3, [r5, #202]	@ zero_extendqisi2
 344 003c 7F2B     		cmp	r3, #127
 345 003e 3DD0     		beq	.L29
 346              	.L10:
 347              	.LVL12:
 348              	.LBB387:
  32:SynthV3.cpp   ****     {
  33:SynthV3.cpp   ****         adCycle = !adCycle;
  34:SynthV3.cpp   ****     }   
  35:SynthV3.cpp   **** 
  36:SynthV3.cpp   ****     for(size_t i = 0; i < size; i += 2)
 349              		.loc 18 36 25 is_stmt 1 discriminator 3 view .LVU79
 350 0040 7EB3     		cbz	r6, .L6
 351 0042 013E     		subs	r6, r6, #1
 352              	.LVL13:
 353              		.loc 18 36 25 is_stmt 0 view .LVU80
 354 0044 4FF0000A 		mov	r10, #0
 355 0048 204F     		ldr	r7, .L30+4
 356 004a 7608     		lsrs	r6, r6, #1
 357              	.LVL14:
ARM GAS  /var/folders/hp/45mn71hd0ps5f5pnytxy5bt00000gn/T//ccWGldgQ.s 			page 28


 358              		.loc 18 36 25 view .LVU81
 359 004c DFF89090 		ldr	r9, .L30+24
 360 0050 1F4D     		ldr	r5, .L30+8
 361 0052 DFF89080 		ldr	r8, .L30+28
 362              	.LVL15:
 363              	.L12:
 364              	.LBB388:
  37:SynthV3.cpp   ****     {
  38:SynthV3.cpp   ****         float sig;
 365              		.loc 18 38 9 is_stmt 1 discriminator 2 view .LVU82
  39:SynthV3.cpp   ****         float adOut;
 366              		.loc 18 39 9 discriminator 2 view .LVU83
  40:SynthV3.cpp   **** 
  41:SynthV3.cpp   ****         freq = p_freq.Process();
 367              		.loc 18 41 9 discriminator 2 view .LVU84
 368              		.loc 18 41 30 is_stmt 0 discriminator 2 view .LVU85
 369 0056 1F48     		ldr	r0, .L30+12
 370              	.LBE388:
  36:SynthV3.cpp   ****     {
 371              		.loc 18 36 25 discriminator 2 view .LVU86
 372 0058 0834     		adds	r4, r4, #8
 373              	.LBB397:
 374              		.loc 18 41 30 discriminator 2 view .LVU87
 375 005a FFF7FEFF 		bl	_ZN5daisy9Parameter7ProcessEv
 376              	.LVL16:
 377              	.LBB389:
 378              	.LBB390:
  25:../../DaisyExamples/DaisySP/Source/Synthesis/oscillator.h ****     /** Choices for output waveforms, POLYBLEP are appropriately labeled. Others are naive forms.
  26:../../DaisyExamples/DaisySP/Source/Synthesis/oscillator.h ****     */
  27:../../DaisyExamples/DaisySP/Source/Synthesis/oscillator.h ****     enum
  28:../../DaisyExamples/DaisySP/Source/Synthesis/oscillator.h ****     {
  29:../../DaisyExamples/DaisySP/Source/Synthesis/oscillator.h ****         WAVE_SIN,
  30:../../DaisyExamples/DaisySP/Source/Synthesis/oscillator.h ****         WAVE_TRI,
  31:../../DaisyExamples/DaisySP/Source/Synthesis/oscillator.h ****         WAVE_SAW,
  32:../../DaisyExamples/DaisySP/Source/Synthesis/oscillator.h ****         WAVE_RAMP,
  33:../../DaisyExamples/DaisySP/Source/Synthesis/oscillator.h ****         WAVE_SQUARE,
  34:../../DaisyExamples/DaisySP/Source/Synthesis/oscillator.h ****         WAVE_POLYBLEP_TRI,
  35:../../DaisyExamples/DaisySP/Source/Synthesis/oscillator.h ****         WAVE_POLYBLEP_SAW,
  36:../../DaisyExamples/DaisySP/Source/Synthesis/oscillator.h ****         WAVE_POLYBLEP_SQUARE,
  37:../../DaisyExamples/DaisySP/Source/Synthesis/oscillator.h ****         WAVE_LAST,
  38:../../DaisyExamples/DaisySP/Source/Synthesis/oscillator.h ****     };
  39:../../DaisyExamples/DaisySP/Source/Synthesis/oscillator.h **** 
  40:../../DaisyExamples/DaisySP/Source/Synthesis/oscillator.h **** 
  41:../../DaisyExamples/DaisySP/Source/Synthesis/oscillator.h ****     /** Initializes the Oscillator
  42:../../DaisyExamples/DaisySP/Source/Synthesis/oscillator.h **** 
  43:../../DaisyExamples/DaisySP/Source/Synthesis/oscillator.h ****         \param sample_rate - sample rate of the audio engine being run, and the frequency that the 
  44:../../DaisyExamples/DaisySP/Source/Synthesis/oscillator.h **** 
  45:../../DaisyExamples/DaisySP/Source/Synthesis/oscillator.h ****         Defaults:
  46:../../DaisyExamples/DaisySP/Source/Synthesis/oscillator.h ****         - freq_ = 100 Hz
  47:../../DaisyExamples/DaisySP/Source/Synthesis/oscillator.h ****         - amp_ = 0.5
  48:../../DaisyExamples/DaisySP/Source/Synthesis/oscillator.h ****         - waveform_ = sine wave.
  49:../../DaisyExamples/DaisySP/Source/Synthesis/oscillator.h ****     */
  50:../../DaisyExamples/DaisySP/Source/Synthesis/oscillator.h ****     void Init(float sample_rate)
  51:../../DaisyExamples/DaisySP/Source/Synthesis/oscillator.h ****     {
  52:../../DaisyExamples/DaisySP/Source/Synthesis/oscillator.h ****         sr_        = sample_rate;
  53:../../DaisyExamples/DaisySP/Source/Synthesis/oscillator.h ****         sr_recip_  = 1.0f / sample_rate;
  54:../../DaisyExamples/DaisySP/Source/Synthesis/oscillator.h ****         freq_      = 100.0f;
ARM GAS  /var/folders/hp/45mn71hd0ps5f5pnytxy5bt00000gn/T//ccWGldgQ.s 			page 29


  55:../../DaisyExamples/DaisySP/Source/Synthesis/oscillator.h ****         amp_       = 0.5f;
  56:../../DaisyExamples/DaisySP/Source/Synthesis/oscillator.h ****         pw_        = 0.5f;
  57:../../DaisyExamples/DaisySP/Source/Synthesis/oscillator.h ****         phase_     = 0.0f;
  58:../../DaisyExamples/DaisySP/Source/Synthesis/oscillator.h ****         phase_inc_ = CalcPhaseInc(freq_);
  59:../../DaisyExamples/DaisySP/Source/Synthesis/oscillator.h ****         waveform_  = WAVE_SIN;
  60:../../DaisyExamples/DaisySP/Source/Synthesis/oscillator.h ****         eoc_       = true;
  61:../../DaisyExamples/DaisySP/Source/Synthesis/oscillator.h ****         eor_       = true;
  62:../../DaisyExamples/DaisySP/Source/Synthesis/oscillator.h ****     }
  63:../../DaisyExamples/DaisySP/Source/Synthesis/oscillator.h **** 
  64:../../DaisyExamples/DaisySP/Source/Synthesis/oscillator.h **** 
  65:../../DaisyExamples/DaisySP/Source/Synthesis/oscillator.h ****     /** Changes the frequency of the Oscillator, and recalculates phase increment.
  66:../../DaisyExamples/DaisySP/Source/Synthesis/oscillator.h ****     */
  67:../../DaisyExamples/DaisySP/Source/Synthesis/oscillator.h ****     inline void SetFreq(const float f)
  68:../../DaisyExamples/DaisySP/Source/Synthesis/oscillator.h ****     {
  69:../../DaisyExamples/DaisySP/Source/Synthesis/oscillator.h ****         freq_      = f;
  70:../../DaisyExamples/DaisySP/Source/Synthesis/oscillator.h ****         phase_inc_ = CalcPhaseInc(f);
 379              		.loc 17 70 34 discriminator 2 view .LVU88
 380 005e 1C48     		ldr	r0, .L30+8
 381              	.LBE390:
 382              	.LBE389:
 383              		.loc 18 41 14 discriminator 2 view .LVU89
 384 0060 89ED000A 		vstr.32	s0, [r9]
  42:SynthV3.cpp   ****         osc.SetFreq(freq);
 385              		.loc 18 42 9 is_stmt 1 discriminator 2 view .LVU90
 386              	.LVL17:
 387              	.LBB393:
 388              	.LBI389:
  67:../../DaisyExamples/DaisySP/Source/Synthesis/oscillator.h ****     {
 389              		.loc 17 67 17 discriminator 2 view .LVU91
 390              	.LBB391:
  69:../../DaisyExamples/DaisySP/Source/Synthesis/oscillator.h ****         phase_inc_ = CalcPhaseInc(f);
 391              		.loc 17 69 9 discriminator 2 view .LVU92
  69:../../DaisyExamples/DaisySP/Source/Synthesis/oscillator.h ****         phase_inc_ = CalcPhaseInc(f);
 392              		.loc 17 69 20 is_stmt 0 discriminator 2 view .LVU93
 393 0064 85ED020A 		vstr.32	s0, [r5, #8]
 394              		.loc 17 70 9 is_stmt 1 discriminator 2 view .LVU94
 395              		.loc 17 70 34 is_stmt 0 discriminator 2 view .LVU95
 396 0068 FFF7FEFF 		bl	_ZN7daisysp10Oscillator12CalcPhaseIncEf
 397              	.LVL18:
 398              		.loc 17 70 34 discriminator 2 view .LVU96
 399              	.LBE391:
 400              	.LBE393:
  43:SynthV3.cpp   ****         adRelease = p_release.Process();
 401              		.loc 18 43 38 discriminator 2 view .LVU97
 402 006c 1A48     		ldr	r0, .L30+16
 403              	.LBB394:
 404              	.LBB392:
 405              		.loc 17 70 20 discriminator 2 view .LVU98
 406 006e 85ED070A 		vstr.32	s0, [r5, #28]
 407              	.LVL19:
 408              		.loc 17 70 20 discriminator 2 view .LVU99
 409              	.LBE392:
 410              	.LBE394:
 411              		.loc 18 43 9 is_stmt 1 discriminator 2 view .LVU100
 412              		.loc 18 43 38 is_stmt 0 discriminator 2 view .LVU101
 413 0072 FFF7FEFF 		bl	_ZN5daisy9Parameter7ProcessEv
 414              	.LVL20:
ARM GAS  /var/folders/hp/45mn71hd0ps5f5pnytxy5bt00000gn/T//ccWGldgQ.s 			page 30


  44:SynthV3.cpp   ****         ad.SetTime(ADENV_SEG_DECAY, adRelease); // Set decay parameter from knob2
  45:SynthV3.cpp   ****         adOut = ad.Process(); // Include AD changes into the audio processing
 415              		.loc 18 45 27 discriminator 2 view .LVU102
 416 0076 1548     		ldr	r0, .L30+4
  43:SynthV3.cpp   ****         adRelease = p_release.Process();
 417              		.loc 18 43 19 discriminator 2 view .LVU103
 418 0078 88ED000A 		vstr.32	s0, [r8]
  44:SynthV3.cpp   ****         ad.SetTime(ADENV_SEG_DECAY, adRelease); // Set decay parameter from knob2
 419              		.loc 18 44 9 is_stmt 1 discriminator 2 view .LVU104
 420              	.LVL21:
 421              	.LBB395:
 422              	.LBI395:
  65:../../DaisyExamples/DaisySP/Source/Control/adenv.h ****     /** Sets the length of time (in seconds) for a specific segment. */
  66:../../DaisyExamples/DaisySP/Source/Control/adenv.h ****     inline void SetTime(uint8_t seg, float time) { segment_time_[seg] = time; }
 423              		.loc 16 66 17 discriminator 2 view .LVU105
 424              	.LBB396:
 425              		.loc 16 66 52 discriminator 2 view .LVU106
 426              		.loc 16 66 71 is_stmt 0 discriminator 2 view .LVU107
 427 007c 87ED030A 		vstr.32	s0, [r7, #12]
 428              	.LVL22:
 429              		.loc 16 66 71 discriminator 2 view .LVU108
 430              	.LBE396:
 431              	.LBE395:
 432              		.loc 18 45 9 is_stmt 1 discriminator 2 view .LVU109
 433              		.loc 18 45 27 is_stmt 0 discriminator 2 view .LVU110
 434 0080 FFF7FEFF 		bl	_ZN7daisysp5AdEnv7ProcessEv
 435              	.LVL23:
 436 0084 B0EE408A 		vmov.f32	s16, s0
 437              	.LVL24:
  46:SynthV3.cpp   ****         sig = osc.Process();
 438              		.loc 18 46 9 is_stmt 1 discriminator 2 view .LVU111
 439              		.loc 18 46 26 is_stmt 0 discriminator 2 view .LVU112
 440 0088 1148     		ldr	r0, .L30+8
 441 008a FFF7FEFF 		bl	_ZN7daisysp10Oscillator7ProcessEv
 442              	.LVL25:
  47:SynthV3.cpp   ****         sig *= adOut;
 443              		.loc 18 47 9 is_stmt 1 discriminator 2 view .LVU113
 444              	.LBE397:
  36:SynthV3.cpp   ****     {
 445              		.loc 18 36 25 is_stmt 0 discriminator 2 view .LVU114
 446 008e 5645     		cmp	r6, r10
 447 0090 0AF1010A 		add	r10, r10, #1
 448              	.LVL26:
 449              	.LBB398:
 450              		.loc 18 47 13 discriminator 2 view .LVU115
 451 0094 28EE000A 		vmul.f32	s0, s16, s0
 452              	.LVL27:
  48:SynthV3.cpp   ****         out[i] = sig;
 453              		.loc 18 48 9 is_stmt 1 discriminator 2 view .LVU116
 454              		.loc 18 48 16 is_stmt 0 discriminator 2 view .LVU117
 455 0098 04ED020A 		vstr.32	s0, [r4, #-8]
  49:SynthV3.cpp   ****         out[i + 1] = sig;
 456              		.loc 18 49 9 is_stmt 1 discriminator 2 view .LVU118
 457              		.loc 18 49 20 is_stmt 0 discriminator 2 view .LVU119
 458 009c 04ED010A 		vstr.32	s0, [r4, #-4]
 459              	.LBE398:
  36:SynthV3.cpp   ****     {
ARM GAS  /var/folders/hp/45mn71hd0ps5f5pnytxy5bt00000gn/T//ccWGldgQ.s 			page 31


 460              		.loc 18 36 5 is_stmt 1 discriminator 2 view .LVU120
 461              	.LVL28:
  36:SynthV3.cpp   ****     {
 462              		.loc 18 36 25 discriminator 2 view .LVU121
 463 00a0 D9D1     		bne	.L12
 464              	.LVL29:
 465              	.L6:
  36:SynthV3.cpp   ****     {
 466              		.loc 18 36 25 is_stmt 0 discriminator 2 view .LVU122
 467              	.LBE387:
  50:SynthV3.cpp   ****     }
  51:SynthV3.cpp   **** }
 468              		.loc 18 51 1 view .LVU123
 469 00a2 BDEC028B 		vldm	sp!, {d8}
 470              		.cfi_remember_state
 471              		.cfi_restore 80
 472              		.cfi_restore 81
 473              		.cfi_def_cfa_offset 32
 474 00a6 BDE8F087 		pop	{r4, r5, r6, r7, r8, r9, r10, pc}
 475              	.LVL30:
 476              	.L7:
 477              		.cfi_restore_state
  25:SynthV3.cpp   ****     {
 478              		.loc 18 25 33 discriminator 2 view .LVU124
 479 00aa 0C4B     		ldr	r3, .L30+20
 480 00ac 1B78     		ldrb	r3, [r3]	@ zero_extendqisi2
 481 00ae 002B     		cmp	r3, #0
 482 00b0 BFD0     		beq	.L9
 483              	.LVL31:
 484              	.LBB399:
 485              	.LBI399:
  67:../../DaisyExamples/DaisySP/Source/Control/adenv.h ****     /** Sets the amount of curve applied. A positve value will create a log
  68:../../DaisyExamples/DaisySP/Source/Control/adenv.h ****         curve. Input range: -100 to 100.  (or more)
  69:../../DaisyExamples/DaisySP/Source/Control/adenv.h ****     */
  70:../../DaisyExamples/DaisySP/Source/Control/adenv.h ****     inline void SetCurve(float scalar) { curve_scalar_ = scalar; }
  71:../../DaisyExamples/DaisySP/Source/Control/adenv.h ****     /** Sets the minimum value of the envelope output.
  72:../../DaisyExamples/DaisySP/Source/Control/adenv.h ****         Input range: -FLTmax_, to FLTmax_
  73:../../DaisyExamples/DaisySP/Source/Control/adenv.h ****     */
  74:../../DaisyExamples/DaisySP/Source/Control/adenv.h ****     inline void SetMin(float min) { min_ = min; }
  75:../../DaisyExamples/DaisySP/Source/Control/adenv.h ****     /** Sets the maximum value of the envelope output.
  76:../../DaisyExamples/DaisySP/Source/Control/adenv.h ****         Input range: -FLTmax_, to FLTmax_
  77:../../DaisyExamples/DaisySP/Source/Control/adenv.h ****     */
  78:../../DaisyExamples/DaisySP/Source/Control/adenv.h ****     inline void SetMax(float max) { max_ = max; }
  79:../../DaisyExamples/DaisySP/Source/Control/adenv.h ****     /** Returns the current output value without processing the next sample */
  80:../../DaisyExamples/DaisySP/Source/Control/adenv.h ****     inline float GetValue() const { return (output_ * (max_ - min_)) + min_; }
  81:../../DaisyExamples/DaisySP/Source/Control/adenv.h ****     /** Returns the segment of the envelope that the phase is currently located
  82:../../DaisyExamples/DaisySP/Source/Control/adenv.h ****         in.
  83:../../DaisyExamples/DaisySP/Source/Control/adenv.h ****     */
  84:../../DaisyExamples/DaisySP/Source/Control/adenv.h ****     inline uint8_t GetCurrentSegment() { return current_segment_; }
  85:../../DaisyExamples/DaisySP/Source/Control/adenv.h ****     /** Returns true if the envelope is currently in any stage apart from idle.
  86:../../DaisyExamples/DaisySP/Source/Control/adenv.h ****     */
  87:../../DaisyExamples/DaisySP/Source/Control/adenv.h ****     inline bool IsRunning() const { return current_segment_ != ADENV_SEG_IDLE; }
 486              		.loc 16 87 17 is_stmt 1 view .LVU125
 487              	.LBB400:
 488              		.loc 16 87 37 view .LVU126
 489              		.loc 16 87 44 is_stmt 0 view .LVU127
 490 00b2 064F     		ldr	r7, .L30+4
ARM GAS  /var/folders/hp/45mn71hd0ps5f5pnytxy5bt00000gn/T//ccWGldgQ.s 			page 32


 491              	.LBE400:
 492              	.LBE399:
  25:SynthV3.cpp   ****     {
 493              		.loc 18 25 45 view .LVU128
 494 00b4 3B78     		ldrb	r3, [r7]	@ zero_extendqisi2
 495 00b6 002B     		cmp	r3, #0
 496 00b8 BBD1     		bne	.L9
 497 00ba B7E7     		b	.L8
 498              	.L29:
  33:SynthV3.cpp   ****     }   
 499              		.loc 18 33 9 is_stmt 1 view .LVU129
  33:SynthV3.cpp   ****     }   
 500              		.loc 18 33 17 is_stmt 0 view .LVU130
 501 00bc 074A     		ldr	r2, .L30+20
  33:SynthV3.cpp   ****     }   
 502              		.loc 18 33 19 view .LVU131
 503 00be 1378     		ldrb	r3, [r2]	@ zero_extendqisi2
 504 00c0 83F00103 		eor	r3, r3, #1
  33:SynthV3.cpp   ****     }   
 505              		.loc 18 33 17 view .LVU132
 506 00c4 1370     		strb	r3, [r2]
 507 00c6 BBE7     		b	.L10
 508              	.L31:
 509              		.align	2
 510              	.L30:
 511 00c8 00000000 		.word	_ZL3pod
 512 00cc 00000000 		.word	.LANCHOR1
 513 00d0 00000000 		.word	.LANCHOR4
 514 00d4 00000000 		.word	.LANCHOR2
 515 00d8 00000000 		.word	.LANCHOR5
 516 00dc 00000000 		.word	.LANCHOR0
 517 00e0 00000000 		.word	.LANCHOR3
 518 00e4 00000000 		.word	.LANCHOR6
 519              		.cfi_endproc
 520              	.LFE4854:
 522              		.section	.text.startup.main,"ax",%progbits
 523              		.align	1
 524              		.p2align 2,,3
 525              		.global	main
 526              		.syntax unified
 527              		.thumb
 528              		.thumb_func
 530              	main:
 531              	.LFB4855:
  52:SynthV3.cpp   **** int main(void)
  53:SynthV3.cpp   **** {
 532              		.loc 18 53 1 is_stmt 1 view -0
 533              		.cfi_startproc
 534              		@ args = 0, pretend = 0, frame = 32
 535              		@ frame_needed = 0, uses_anonymous_args = 0
  54:SynthV3.cpp   ****     float samplerate;
 536              		.loc 18 54 5 view .LVU134
  55:SynthV3.cpp   **** 
  56:SynthV3.cpp   ****     pod.Init();
 537              		.loc 18 56 5 view .LVU135
  53:SynthV3.cpp   ****     float samplerate;
 538              		.loc 18 53 1 is_stmt 0 view .LVU136
ARM GAS  /var/folders/hp/45mn71hd0ps5f5pnytxy5bt00000gn/T//ccWGldgQ.s 			page 33


 539 0000 2DE9F043 		push	{r4, r5, r6, r7, r8, r9, lr}
 540              		.cfi_def_cfa_offset 28
 541              		.cfi_offset 4, -28
 542              		.cfi_offset 5, -24
 543              		.cfi_offset 6, -20
 544              		.cfi_offset 7, -16
 545              		.cfi_offset 8, -12
 546              		.cfi_offset 9, -8
 547              		.cfi_offset 14, -4
 548              		.loc 18 56 13 view .LVU137
 549 0004 0021     		movs	r1, #0
 550 0006 4048     		ldr	r0, .L35
 551              	.LBB423:
 552              	.LBB424:
  52:../../DaisyExamples/DaisySP/Source/Synthesis/oscillator.h ****         sr_recip_  = 1.0f / sample_rate;
 553              		.loc 17 52 20 view .LVU138
 554 0008 404C     		ldr	r4, .L35+4
  55:../../DaisyExamples/DaisySP/Source/Synthesis/oscillator.h ****         pw_        = 0.5f;
 555              		.loc 17 55 20 view .LVU139
 556 000a 4FF07C57 		mov	r7, #1056964608
  57:../../DaisyExamples/DaisySP/Source/Synthesis/oscillator.h ****         phase_inc_ = CalcPhaseInc(freq_);
 557              		.loc 17 57 20 view .LVU140
 558 000e 4FF00009 		mov	r9, #0
  59:../../DaisyExamples/DaisySP/Source/Synthesis/oscillator.h ****         eoc_       = true;
 559              		.loc 17 59 20 view .LVU141
 560 0012 4FF00008 		mov	r8, #0
 561              	.LBE424:
 562              	.LBE423:
  57:SynthV3.cpp   ****     pod.SetAudioBlockSize(4);
  58:SynthV3.cpp   ****     samplerate = pod.AudioSampleRate();
  59:SynthV3.cpp   **** 
  60:SynthV3.cpp   ****     osc.Init(samplerate);
  61:SynthV3.cpp   ****     osc.SetFreq(880.0f);
  62:SynthV3.cpp   ****     osc.SetWaveform(osc.WAVE_TRI);
  63:SynthV3.cpp   ****     osc.SetAmp(0.1f);
  64:SynthV3.cpp   **** 
  65:SynthV3.cpp   ****     // Set initial Attack/Decay values
  66:SynthV3.cpp   ****     ad.Init(samplerate);
 563              		.loc 18 66 12 view .LVU142
 564 0016 3E4E     		ldr	r6, .L35+8
  67:SynthV3.cpp   ****     ad.SetTime(ADENV_SEG_ATTACK, 0.01f);
  68:SynthV3.cpp   ****     ad.SetTime(ADENV_SEG_DECAY, 1.0f);
  69:SynthV3.cpp   ****     ad.SetMax(1);
  70:SynthV3.cpp   ****     ad.SetMin(0);
  71:SynthV3.cpp   ****     ad.SetCurve(0.5);
  72:SynthV3.cpp   **** 
  73:SynthV3.cpp   ****     // Define knob's parameters
  74:SynthV3.cpp   ****     p_freq.Init(pod.knob1, 50.0f, 5000.0f, Parameter::LOGARITHMIC);
 565              		.loc 18 74 21 view .LVU143
 566 0018 3E4D     		ldr	r5, .L35+12
  53:SynthV3.cpp   ****     float samplerate;
 567              		.loc 18 53 1 view .LVU144
 568 001a 2DED048B 		vpush.64	{d8, d9}
 569              		.cfi_def_cfa_offset 44
 570              		.cfi_offset 80, -44
 571              		.cfi_offset 81, -40
 572              		.cfi_offset 82, -36
ARM GAS  /var/folders/hp/45mn71hd0ps5f5pnytxy5bt00000gn/T//ccWGldgQ.s 			page 34


 573              		.cfi_offset 83, -32
 574 001e 89B0     		sub	sp, sp, #36
 575              		.cfi_def_cfa_offset 80
 576              	.LBB430:
 577              	.LBB425:
  53:../../DaisyExamples/DaisySP/Source/Synthesis/oscillator.h ****         freq_      = 100.0f;
 578              		.loc 17 53 27 view .LVU145
 579 0020 F7EE008A 		vmov.f32	s17, #1.0e+0
 580              	.LBE425:
 581              	.LBE430:
  56:SynthV3.cpp   ****     pod.SetAudioBlockSize(4);
 582              		.loc 18 56 13 view .LVU146
 583 0024 FFF7FEFF 		bl	_ZN5daisy8DaisyPod4InitEb
 584              	.LVL32:
  57:SynthV3.cpp   ****     samplerate = pod.AudioSampleRate();
 585              		.loc 18 57 5 is_stmt 1 view .LVU147
  57:SynthV3.cpp   ****     samplerate = pod.AudioSampleRate();
 586              		.loc 18 57 26 is_stmt 0 view .LVU148
 587 0028 0421     		movs	r1, #4
 588 002a 3748     		ldr	r0, .L35
 589 002c FFF7FEFF 		bl	_ZN5daisy8DaisyPod17SetAudioBlockSizeEj
 590              	.LVL33:
  58:SynthV3.cpp   **** 
 591              		.loc 18 58 5 is_stmt 1 view .LVU149
  58:SynthV3.cpp   **** 
 592              		.loc 18 58 37 is_stmt 0 view .LVU150
 593 0030 3548     		ldr	r0, .L35
 594 0032 FFF7FEFF 		bl	_ZN5daisy8DaisyPod15AudioSampleRateEv
 595              	.LVL34:
 596 0036 B0EE408A 		vmov.f32	s16, s0
 597              	.LVL35:
  60:SynthV3.cpp   ****     osc.SetFreq(880.0f);
 598              		.loc 18 60 5 is_stmt 1 view .LVU151
 599              	.LBB431:
 600              	.LBI423:
  50:../../DaisyExamples/DaisySP/Source/Synthesis/oscillator.h ****     {
 601              		.loc 17 50 10 view .LVU152
 602              	.LBB426:
  52:../../DaisyExamples/DaisySP/Source/Synthesis/oscillator.h ****         sr_recip_  = 1.0f / sample_rate;
 603              		.loc 17 52 9 view .LVU153
  54:../../DaisyExamples/DaisySP/Source/Synthesis/oscillator.h ****         amp_       = 0.5f;
 604              		.loc 17 54 20 is_stmt 0 view .LVU154
 605 003a 9FED370A 		vldr.32	s0, .L35+16
 606              	.LVL36:
  58:../../DaisyExamples/DaisySP/Source/Synthesis/oscillator.h ****         waveform_  = WAVE_SIN;
 607              		.loc 17 58 34 view .LVU155
 608 003e 2046     		mov	r0, r4
  55:../../DaisyExamples/DaisySP/Source/Synthesis/oscillator.h ****         pw_        = 0.5f;
 609              		.loc 17 55 20 view .LVU156
 610 0040 6760     		str	r7, [r4, #4]	@ float
  53:../../DaisyExamples/DaisySP/Source/Synthesis/oscillator.h ****         freq_      = 100.0f;
 611              		.loc 17 53 27 view .LVU157
 612 0042 C8EE887A 		vdiv.f32	s15, s17, s16
  52:../../DaisyExamples/DaisySP/Source/Synthesis/oscillator.h ****         sr_recip_  = 1.0f / sample_rate;
 613              		.loc 17 52 20 view .LVU158
 614 0046 84ED048A 		vstr.32	s16, [r4, #16]
  53:../../DaisyExamples/DaisySP/Source/Synthesis/oscillator.h ****         freq_      = 100.0f;
ARM GAS  /var/folders/hp/45mn71hd0ps5f5pnytxy5bt00000gn/T//ccWGldgQ.s 			page 35


 615              		.loc 17 53 9 is_stmt 1 view .LVU159
  54:../../DaisyExamples/DaisySP/Source/Synthesis/oscillator.h ****         amp_       = 0.5f;
 616              		.loc 17 54 20 is_stmt 0 view .LVU160
 617 004a 84ED020A 		vstr.32	s0, [r4, #8]
  56:../../DaisyExamples/DaisySP/Source/Synthesis/oscillator.h ****         phase_     = 0.0f;
 618              		.loc 17 56 20 view .LVU161
 619 004e E760     		str	r7, [r4, #12]	@ float
  57:../../DaisyExamples/DaisySP/Source/Synthesis/oscillator.h ****         phase_inc_ = CalcPhaseInc(freq_);
 620              		.loc 17 57 20 view .LVU162
 621 0050 C4F81890 		str	r9, [r4, #24]	@ float
 622              	.LBE426:
 623              	.LBE431:
 624              	.LBB432:
 625              	.LBB433:
  66:../../DaisyExamples/DaisySP/Source/Control/adenv.h ****     /** Sets the amount of curve applied. A positve value will create a log
 626              		.loc 16 66 71 view .LVU163
 627 0054 9FED319A 		vldr.32	s18, .L35+20
 628              	.LBE433:
 629              	.LBE432:
 630              	.LBB436:
 631              	.LBB427:
  53:../../DaisyExamples/DaisySP/Source/Synthesis/oscillator.h ****         freq_      = 100.0f;
 632              		.loc 17 53 20 view .LVU164
 633 0058 C4ED057A 		vstr.32	s15, [r4, #20]
  54:../../DaisyExamples/DaisySP/Source/Synthesis/oscillator.h ****         amp_       = 0.5f;
 634              		.loc 17 54 9 is_stmt 1 view .LVU165
  55:../../DaisyExamples/DaisySP/Source/Synthesis/oscillator.h ****         pw_        = 0.5f;
 635              		.loc 17 55 9 view .LVU166
  56:../../DaisyExamples/DaisySP/Source/Synthesis/oscillator.h ****         phase_     = 0.0f;
 636              		.loc 17 56 9 view .LVU167
  57:../../DaisyExamples/DaisySP/Source/Synthesis/oscillator.h ****         phase_inc_ = CalcPhaseInc(freq_);
 637              		.loc 17 57 9 view .LVU168
  58:../../DaisyExamples/DaisySP/Source/Synthesis/oscillator.h ****         waveform_  = WAVE_SIN;
 638              		.loc 17 58 9 view .LVU169
  58:../../DaisyExamples/DaisySP/Source/Synthesis/oscillator.h ****         waveform_  = WAVE_SIN;
 639              		.loc 17 58 34 is_stmt 0 view .LVU170
 640 005c FFF7FEFF 		bl	_ZN7daisysp10Oscillator12CalcPhaseIncEf
 641              	.LVL37:
  61:../../DaisyExamples/DaisySP/Source/Synthesis/oscillator.h ****     }
 642              		.loc 17 61 20 view .LVU171
 643 0060 40F20113 		movw	r3, #257
  58:../../DaisyExamples/DaisySP/Source/Synthesis/oscillator.h ****         waveform_  = WAVE_SIN;
 644              		.loc 17 58 34 view .LVU172
 645 0064 F0EE407A 		vmov.f32	s15, s0
 646              	.LBE427:
 647              	.LBE436:
 648              	.LBB437:
 649              	.LBB438:
  69:../../DaisyExamples/DaisySP/Source/Synthesis/oscillator.h ****         phase_inc_ = CalcPhaseInc(f);
 650              		.loc 17 69 20 view .LVU173
 651 0068 9FED2D0A 		vldr.32	s0, .L35+24
 652              		.loc 17 70 34 view .LVU174
 653 006c 2046     		mov	r0, r4
 654              	.LBE438:
 655              	.LBE437:
 656              	.LBB443:
 657              	.LBB428:
ARM GAS  /var/folders/hp/45mn71hd0ps5f5pnytxy5bt00000gn/T//ccWGldgQ.s 			page 36


  61:../../DaisyExamples/DaisySP/Source/Synthesis/oscillator.h ****     }
 658              		.loc 17 61 20 view .LVU175
 659 006e 2385     		strh	r3, [r4, #40]	@ movhi
  58:../../DaisyExamples/DaisySP/Source/Synthesis/oscillator.h ****         waveform_  = WAVE_SIN;
 660              		.loc 17 58 20 view .LVU176
 661 0070 C4ED077A 		vstr.32	s15, [r4, #28]
  59:../../DaisyExamples/DaisySP/Source/Synthesis/oscillator.h ****         eoc_       = true;
 662              		.loc 17 59 9 is_stmt 1 view .LVU177
  60:../../DaisyExamples/DaisySP/Source/Synthesis/oscillator.h ****         eor_       = true;
 663              		.loc 17 60 9 view .LVU178
  61:../../DaisyExamples/DaisySP/Source/Synthesis/oscillator.h ****     }
 664              		.loc 17 61 9 view .LVU179
 665              	.LVL38:
  61:../../DaisyExamples/DaisySP/Source/Synthesis/oscillator.h ****     }
 666              		.loc 17 61 9 is_stmt 0 view .LVU180
 667              	.LBE428:
 668              	.LBE443:
  61:SynthV3.cpp   ****     osc.SetWaveform(osc.WAVE_TRI);
 669              		.loc 18 61 5 is_stmt 1 view .LVU181
 670              	.LBB444:
 671              	.LBI437:
  67:../../DaisyExamples/DaisySP/Source/Synthesis/oscillator.h ****     {
 672              		.loc 17 67 17 view .LVU182
 673              	.LBB439:
  69:../../DaisyExamples/DaisySP/Source/Synthesis/oscillator.h ****         phase_inc_ = CalcPhaseInc(f);
 674              		.loc 17 69 9 view .LVU183
 675              		.loc 17 70 9 view .LVU184
 676              	.LBE439:
 677              	.LBE444:
 678              	.LBB445:
 679              	.LBB429:
  59:../../DaisyExamples/DaisySP/Source/Synthesis/oscillator.h ****         eoc_       = true;
 680              		.loc 17 59 20 is_stmt 0 view .LVU185
 681 0074 84F80080 		strb	r8, [r4]
 682              	.LBE429:
 683              	.LBE445:
 684              	.LBB446:
 685              	.LBB440:
  69:../../DaisyExamples/DaisySP/Source/Synthesis/oscillator.h ****         phase_inc_ = CalcPhaseInc(f);
 686              		.loc 17 69 20 view .LVU186
 687 0078 84ED020A 		vstr.32	s0, [r4, #8]
 688              		.loc 17 70 34 view .LVU187
 689 007c FFF7FEFF 		bl	_ZN7daisysp10Oscillator12CalcPhaseIncEf
 690              	.LVL39:
 691              	.LBE440:
 692              	.LBE446:
 693              	.LBB447:
 694              	.LBB448:
  71:../../DaisyExamples/DaisySP/Source/Synthesis/oscillator.h ****     }
  72:../../DaisyExamples/DaisySP/Source/Synthesis/oscillator.h **** 
  73:../../DaisyExamples/DaisySP/Source/Synthesis/oscillator.h **** 
  74:../../DaisyExamples/DaisySP/Source/Synthesis/oscillator.h ****     /** Sets the amplitude of the waveform.
  75:../../DaisyExamples/DaisySP/Source/Synthesis/oscillator.h ****     */
  76:../../DaisyExamples/DaisySP/Source/Synthesis/oscillator.h ****     inline void SetAmp(const float a) { amp_ = a; }
  77:../../DaisyExamples/DaisySP/Source/Synthesis/oscillator.h ****     /** Sets the waveform to be synthesized by the Process() function.
  78:../../DaisyExamples/DaisySP/Source/Synthesis/oscillator.h ****     */
  79:../../DaisyExamples/DaisySP/Source/Synthesis/oscillator.h ****     inline void SetWaveform(const uint8_t wf)
ARM GAS  /var/folders/hp/45mn71hd0ps5f5pnytxy5bt00000gn/T//ccWGldgQ.s 			page 37


  80:../../DaisyExamples/DaisySP/Source/Synthesis/oscillator.h ****     {
  81:../../DaisyExamples/DaisySP/Source/Synthesis/oscillator.h ****         waveform_ = wf < WAVE_LAST ? wf : WAVE_SIN;
 695              		.loc 17 81 19 view .LVU188
 696 0080 0123     		movs	r3, #1
 697              	.LBE448:
 698              	.LBE447:
 699              	.LBB451:
 700              	.LBB441:
  70:../../DaisyExamples/DaisySP/Source/Synthesis/oscillator.h ****     }
 701              		.loc 17 70 34 view .LVU189
 702 0082 F0EE407A 		vmov.f32	s15, s0
 703              	.LBE441:
 704              	.LBE451:
  66:SynthV3.cpp   ****     ad.SetTime(ADENV_SEG_ATTACK, 0.01f);
 705              		.loc 18 66 12 view .LVU190
 706 0086 3046     		mov	r0, r6
 707 0088 B0EE480A 		vmov.f32	s0, s16
 708              	.LBB452:
 709              	.LBB449:
 710              		.loc 17 81 19 view .LVU191
 711 008c 2370     		strb	r3, [r4]
 712              	.LBE449:
 713              	.LBE452:
 714              	.LBB453:
 715              	.LBB454:
  76:../../DaisyExamples/DaisySP/Source/Synthesis/oscillator.h ****     /** Sets the waveform to be synthesized by the Process() function.
 716              		.loc 17 76 46 view .LVU192
 717 008e 254B     		ldr	r3, .L35+28
 718              	.LBE454:
 719              	.LBE453:
 720              	.LBB456:
 721              	.LBB442:
  70:../../DaisyExamples/DaisySP/Source/Synthesis/oscillator.h ****     }
 722              		.loc 17 70 20 view .LVU193
 723 0090 C4ED077A 		vstr.32	s15, [r4, #28]
 724              	.LVL40:
  70:../../DaisyExamples/DaisySP/Source/Synthesis/oscillator.h ****     }
 725              		.loc 17 70 20 view .LVU194
 726              	.LBE442:
 727              	.LBE456:
  62:SynthV3.cpp   ****     osc.SetAmp(0.1f);
 728              		.loc 18 62 5 is_stmt 1 view .LVU195
 729              	.LBB457:
 730              	.LBI447:
  79:../../DaisyExamples/DaisySP/Source/Synthesis/oscillator.h ****     {
 731              		.loc 17 79 17 view .LVU196
 732              	.LBB450:
 733              		.loc 17 81 9 view .LVU197
 734              		.loc 17 81 9 is_stmt 0 view .LVU198
 735              	.LBE450:
 736              	.LBE457:
  63:SynthV3.cpp   **** 
 737              		.loc 18 63 5 is_stmt 1 view .LVU199
 738              	.LBB458:
 739              	.LBI453:
  76:../../DaisyExamples/DaisySP/Source/Synthesis/oscillator.h ****     /** Sets the waveform to be synthesized by the Process() function.
 740              		.loc 17 76 17 view .LVU200
ARM GAS  /var/folders/hp/45mn71hd0ps5f5pnytxy5bt00000gn/T//ccWGldgQ.s 			page 38


 741              	.LBB455:
  76:../../DaisyExamples/DaisySP/Source/Synthesis/oscillator.h ****     /** Sets the waveform to be synthesized by the Process() function.
 742              		.loc 17 76 41 view .LVU201
  76:../../DaisyExamples/DaisySP/Source/Synthesis/oscillator.h ****     /** Sets the waveform to be synthesized by the Process() function.
 743              		.loc 17 76 46 is_stmt 0 view .LVU202
 744 0094 6360     		str	r3, [r4, #4]	@ float
 745              	.LVL41:
  76:../../DaisyExamples/DaisySP/Source/Synthesis/oscillator.h ****     /** Sets the waveform to be synthesized by the Process() function.
 746              		.loc 17 76 46 view .LVU203
 747              	.LBE455:
 748              	.LBE458:
  66:SynthV3.cpp   ****     ad.SetTime(ADENV_SEG_ATTACK, 0.01f);
 749              		.loc 18 66 5 is_stmt 1 view .LVU204
  66:SynthV3.cpp   ****     ad.SetTime(ADENV_SEG_ATTACK, 0.01f);
 750              		.loc 18 66 12 is_stmt 0 view .LVU205
 751 0096 FFF7FEFF 		bl	_ZN7daisysp5AdEnv4InitEf
 752              	.LVL42:
  67:SynthV3.cpp   ****     ad.SetTime(ADENV_SEG_DECAY, 1.0f);
 753              		.loc 18 67 5 is_stmt 1 view .LVU206
 754              	.LBB459:
 755              	.LBI432:
  66:../../DaisyExamples/DaisySP/Source/Control/adenv.h ****     /** Sets the amount of curve applied. A positve value will create a log
 756              		.loc 16 66 17 view .LVU207
 757              	.LBB434:
  66:../../DaisyExamples/DaisySP/Source/Control/adenv.h ****     /** Sets the amount of curve applied. A positve value will create a log
 758              		.loc 16 66 52 view .LVU208
 759              	.LBE434:
 760              	.LBE459:
 761              		.loc 18 74 21 is_stmt 0 view .LVU209
 762 009a 6C46     		mov	r4, sp
 763              		.loc 18 74 16 view .LVU210
 764 009c DFED220A 		vldr.32	s1, .L35+32
 765 00a0 9FED220A 		vldr.32	s0, .L35+36
 766              	.LBB460:
 767              	.LBB435:
  66:../../DaisyExamples/DaisySP/Source/Control/adenv.h ****     /** Sets the amount of curve applied. A positve value will create a log
 768              		.loc 16 66 71 view .LVU211
 769 00a4 86ED029A 		vstr.32	s18, [r6, #8]
 770              	.LVL43:
  66:../../DaisyExamples/DaisySP/Source/Control/adenv.h ****     /** Sets the amount of curve applied. A positve value will create a log
 771              		.loc 16 66 71 view .LVU212
 772              	.LBE435:
 773              	.LBE460:
  68:SynthV3.cpp   ****     ad.SetMax(1);
 774              		.loc 18 68 5 is_stmt 1 view .LVU213
 775              	.LBB461:
 776              	.LBI461:
  66:../../DaisyExamples/DaisySP/Source/Control/adenv.h ****     /** Sets the amount of curve applied. A positve value will create a log
 777              		.loc 16 66 17 view .LVU214
 778              	.LBB462:
  66:../../DaisyExamples/DaisySP/Source/Control/adenv.h ****     /** Sets the amount of curve applied. A positve value will create a log
 779              		.loc 16 66 52 view .LVU215
  66:../../DaisyExamples/DaisySP/Source/Control/adenv.h ****     /** Sets the amount of curve applied. A positve value will create a log
 780              		.loc 16 66 71 is_stmt 0 view .LVU216
 781 00a8 C6ED038A 		vstr.32	s17, [r6, #12]
 782              	.LVL44:
  66:../../DaisyExamples/DaisySP/Source/Control/adenv.h ****     /** Sets the amount of curve applied. A positve value will create a log
ARM GAS  /var/folders/hp/45mn71hd0ps5f5pnytxy5bt00000gn/T//ccWGldgQ.s 			page 39


 783              		.loc 16 66 71 view .LVU217
 784              	.LBE462:
 785              	.LBE461:
  69:SynthV3.cpp   ****     ad.SetMin(0);
 786              		.loc 18 69 5 is_stmt 1 view .LVU218
 787              	.LBB463:
 788              	.LBI463:
  78:../../DaisyExamples/DaisySP/Source/Control/adenv.h ****     /** Returns the current output value without processing the next sample */
 789              		.loc 16 78 17 view .LVU219
 790              	.LBB464:
  78:../../DaisyExamples/DaisySP/Source/Control/adenv.h ****     /** Returns the current output value without processing the next sample */
 791              		.loc 16 78 37 view .LVU220
  78:../../DaisyExamples/DaisySP/Source/Control/adenv.h ****     /** Returns the current output value without processing the next sample */
 792              		.loc 16 78 42 is_stmt 0 view .LVU221
 793 00ac C6ED068A 		vstr.32	s17, [r6, #24]
 794              	.LVL45:
  78:../../DaisyExamples/DaisySP/Source/Control/adenv.h ****     /** Returns the current output value without processing the next sample */
 795              		.loc 16 78 42 view .LVU222
 796              	.LBE464:
 797              	.LBE463:
  70:SynthV3.cpp   ****     ad.SetCurve(0.5);
 798              		.loc 18 70 5 is_stmt 1 view .LVU223
 799              	.LBB465:
 800              	.LBI465:
  74:../../DaisyExamples/DaisySP/Source/Control/adenv.h ****     /** Sets the maximum value of the envelope output.
 801              		.loc 16 74 17 view .LVU224
 802              	.LBB466:
  74:../../DaisyExamples/DaisySP/Source/Control/adenv.h ****     /** Sets the maximum value of the envelope output.
 803              		.loc 16 74 37 view .LVU225
  74:../../DaisyExamples/DaisySP/Source/Control/adenv.h ****     /** Sets the maximum value of the envelope output.
 804              		.loc 16 74 42 is_stmt 0 view .LVU226
 805 00b0 C6F81490 		str	r9, [r6, #20]	@ float
 806              	.LVL46:
  74:../../DaisyExamples/DaisySP/Source/Control/adenv.h ****     /** Sets the maximum value of the envelope output.
 807              		.loc 16 74 42 view .LVU227
 808              	.LBE466:
 809              	.LBE465:
  71:SynthV3.cpp   **** 
 810              		.loc 18 71 5 is_stmt 1 view .LVU228
 811              	.LBB467:
 812              	.LBI467:
  70:../../DaisyExamples/DaisySP/Source/Control/adenv.h ****     /** Sets the minimum value of the envelope output.
 813              		.loc 16 70 17 view .LVU229
 814              	.LBB468:
  70:../../DaisyExamples/DaisySP/Source/Control/adenv.h ****     /** Sets the minimum value of the envelope output.
 815              		.loc 16 70 42 view .LVU230
  70:../../DaisyExamples/DaisySP/Source/Control/adenv.h ****     /** Sets the minimum value of the envelope output.
 816              		.loc 16 70 56 is_stmt 0 view .LVU231
 817 00b4 3762     		str	r7, [r6, #32]	@ float
 818              	.LVL47:
  70:../../DaisyExamples/DaisySP/Source/Control/adenv.h ****     /** Sets the minimum value of the envelope output.
 819              		.loc 16 70 56 view .LVU232
 820              	.LBE468:
 821              	.LBE467:
 822              		.loc 18 74 5 is_stmt 1 view .LVU233
 823              		.loc 18 74 21 is_stmt 0 view .LVU234
 824 00b6 0FCD     		ldmia	r5!, {r0, r1, r2, r3}
ARM GAS  /var/folders/hp/45mn71hd0ps5f5pnytxy5bt00000gn/T//ccWGldgQ.s 			page 40


 825 00b8 0FC4     		stmia	r4!, {r0, r1, r2, r3}
 826 00ba 95E80F00 		ldm	r5, {r0, r1, r2, r3}
 827 00be 84E80F00 		stm	r4, {r0, r1, r2, r3}
 828              		.loc 18 74 16 view .LVU235
 829 00c2 0222     		movs	r2, #2
 830 00c4 6946     		mov	r1, sp
 831 00c6 1A48     		ldr	r0, .L35+40
 832 00c8 FFF7FEFF 		bl	_ZN5daisy9Parameter4InitENS_13AnalogControlEffNS0_5CurveE
 833              	.LVL48:
 834              	.LBB469:
 835              	.LBI469:
 836              		.loc 2 23 5 is_stmt 1 view .LVU236
 837              		.loc 2 23 5 is_stmt 0 view .LVU237
 838              	.LBE469:
  75:SynthV3.cpp   ****     p_release.Init(pod.knob2, 0.01f, 0.7f, Parameter::LINEAR);
 839              		.loc 18 75 5 is_stmt 1 view .LVU238
 840              		.loc 18 75 24 is_stmt 0 view .LVU239
 841 00cc 05F1100C 		add	ip, r5, #16
 842 00d0 EE46     		mov	lr, sp
 843              		.loc 18 75 19 view .LVU240
 844 00d2 B0EE490A 		vmov.f32	s0, s18
 845 00d6 DFED170A 		vldr.32	s1, .L35+44
 846              		.loc 18 75 24 view .LVU241
 847 00da BCE80F00 		ldmia	ip!, {r0, r1, r2, r3}
 848 00de AEE80F00 		stmia	lr!, {r0, r1, r2, r3}
 849 00e2 9CE80F00 		ldm	ip, {r0, r1, r2, r3}
 850 00e6 84E80F00 		stm	r4, {r0, r1, r2, r3}
 851              		.loc 18 75 19 view .LVU242
 852 00ea 6946     		mov	r1, sp
 853 00ec 4246     		mov	r2, r8
 854 00ee 1248     		ldr	r0, .L35+48
 855 00f0 FFF7FEFF 		bl	_ZN5daisy9Parameter4InitENS_13AnalogControlEffNS0_5CurveE
 856              	.LVL49:
 857              	.LBB470:
 858              	.LBI470:
 859              		.loc 2 23 5 is_stmt 1 view .LVU243
 860              		.loc 2 23 5 is_stmt 0 view .LVU244
 861              	.LBE470:
  76:SynthV3.cpp   **** 
  77:SynthV3.cpp   ****     pod.StartAdc();
 862              		.loc 18 77 5 is_stmt 1 view .LVU245
 863              		.loc 18 77 17 is_stmt 0 view .LVU246
 864 00f4 A5F17800 		sub	r0, r5, #120
 865 00f8 FFF7FEFF 		bl	_ZN5daisy8DaisyPod8StartAdcEv
 866              	.LVL50:
  78:SynthV3.cpp   ****     pod.StartAudio(AudioCallback);
 867              		.loc 18 78 5 is_stmt 1 view .LVU247
 868              		.loc 18 78 19 is_stmt 0 view .LVU248
 869 00fc 0F49     		ldr	r1, .L35+52
 870 00fe A5F17800 		sub	r0, r5, #120
 871 0102 FFF7FEFF 		bl	_ZN5daisy8DaisyPod10StartAudioEPFvPKfPfjE
 872              	.LVL51:
 873              	.L33:
  79:SynthV3.cpp   **** 
  80:SynthV3.cpp   ****     while (1) {}
 874              		.loc 18 80 5 is_stmt 1 discriminator 1 view .LVU249
 875              		.loc 18 80 5 discriminator 1 view .LVU250
ARM GAS  /var/folders/hp/45mn71hd0ps5f5pnytxy5bt00000gn/T//ccWGldgQ.s 			page 41


 876              		.loc 18 80 5 discriminator 1 view .LVU251
 877              		.loc 18 80 5 discriminator 1 view .LVU252
 878 0106 FEE7     		b	.L33
 879              	.L36:
 880              		.align	2
 881              	.L35:
 882 0108 00000000 		.word	_ZL3pod
 883 010c 00000000 		.word	.LANCHOR4
 884 0110 00000000 		.word	.LANCHOR1
 885 0114 68000000 		.word	_ZL3pod+104
 886 0118 0000C842 		.word	1120403456
 887 011c 0AD7233C 		.word	1008981770
 888 0120 00005C44 		.word	1146880000
 889 0124 CDCCCC3D 		.word	1036831949
 890 0128 00409C45 		.word	1167867904
 891 012c 00004842 		.word	1112014848
 892 0130 00000000 		.word	.LANCHOR2
 893 0134 3333333F 		.word	1060320051
 894 0138 00000000 		.word	.LANCHOR5
 895 013c 00000000 		.word	_ZL13AudioCallbackPKfPfj
 896              		.cfi_endproc
 897              	.LFE4855:
 899              		.section	.text.startup._GLOBAL__sub_I_freq,"ax",%progbits
 900              		.align	1
 901              		.p2align 2,,3
 902              		.syntax unified
 903              		.thumb
 904              		.thumb_func
 906              	_GLOBAL__sub_I_freq:
 907              	.LFB5439:
  81:SynthV3.cpp   **** }
 908              		.loc 18 81 1 view -0
 909              		.cfi_startproc
 910              		@ args = 0, pretend = 0, frame = 0
 911              		@ frame_needed = 0, uses_anonymous_args = 0
 912              	.LBB553:
 913              	.LBI553:
 914              		.loc 18 81 1 view .LVU254
 915              	.LVL52:
 916              	.LBB554:
 917              	.LBB555:
 918              	.LBI555:
  35:../../DaisyExamples/libDaisy/src/daisy_pod.h ****     ~DaisyPod() {}
 919              		.loc 3 35 5 view .LVU255
 920              	.LBB556:
 921              	.LBB557:
 922              	.LBI557:
  21:../../DaisyExamples/libDaisy/src/daisy_seed.h ****     ~DaisySeed() {}
 923              		.loc 11 21 5 view .LVU256
 924              	.LBB558:
 925              	.LBB559:
 926              	.LBI559:
 927              		.file 19 "../../DaisyExamples/libDaisy/src/per/qspi.h"
   1:../../DaisyExamples/libDaisy/src/per/qspi.h **** #ifndef DSY_QSPI
   2:../../DaisyExamples/libDaisy/src/per/qspi.h **** #define DSY_QSPI /**< Macro */
   3:../../DaisyExamples/libDaisy/src/per/qspi.h **** 
   4:../../DaisyExamples/libDaisy/src/per/qspi.h **** #ifndef UNIT_TEST // for unit tests, a dummy implementation
ARM GAS  /var/folders/hp/45mn71hd0ps5f5pnytxy5bt00000gn/T//ccWGldgQ.s 			page 42


   5:../../DaisyExamples/libDaisy/src/per/qspi.h **** 
   6:../../DaisyExamples/libDaisy/src/per/qspi.h **** #include <cstdint>
   7:../../DaisyExamples/libDaisy/src/per/qspi.h **** #include "daisy_core.h" // Added for dsy_gpio_pin typedef
   8:../../DaisyExamples/libDaisy/src/per/qspi.h **** 
   9:../../DaisyExamples/libDaisy/src/per/qspi.h **** #define DSY_QSPI_TEXT       \
  10:../../DaisyExamples/libDaisy/src/per/qspi.h ****     __attribute__((section( \
  11:../../DaisyExamples/libDaisy/src/per/qspi.h ****         ".qspiflash_text"))) /**< used for reading memory in memory_mapped mode. */
  12:../../DaisyExamples/libDaisy/src/per/qspi.h **** #define DSY_QSPI_DATA       \
  13:../../DaisyExamples/libDaisy/src/per/qspi.h ****     __attribute__((section( \
  14:../../DaisyExamples/libDaisy/src/per/qspi.h ****         ".qspiflash_data"))) /**< used for reading memory in memory_mapped mode. */
  15:../../DaisyExamples/libDaisy/src/per/qspi.h **** #define DSY_QSPI_BSS        \
  16:../../DaisyExamples/libDaisy/src/per/qspi.h ****     __attribute__((section( \
  17:../../DaisyExamples/libDaisy/src/per/qspi.h ****         ".qspiflash_bss"))) /**< used for reading memory in memory_mapped mode. */
  18:../../DaisyExamples/libDaisy/src/per/qspi.h **** 
  19:../../DaisyExamples/libDaisy/src/per/qspi.h **** namespace daisy
  20:../../DaisyExamples/libDaisy/src/per/qspi.h **** {
  21:../../DaisyExamples/libDaisy/src/per/qspi.h **** /** @addtogroup serial
  22:../../DaisyExamples/libDaisy/src/per/qspi.h **** @{
  23:../../DaisyExamples/libDaisy/src/per/qspi.h **** */
  24:../../DaisyExamples/libDaisy/src/per/qspi.h **** 
  25:../../DaisyExamples/libDaisy/src/per/qspi.h **** /** 
  26:../../DaisyExamples/libDaisy/src/per/qspi.h ****  Driver for QSPI peripheral to interface with external flash memory. \n 
  27:../../DaisyExamples/libDaisy/src/per/qspi.h ****     Currently supported QSPI Devices: \n 
  28:../../DaisyExamples/libDaisy/src/per/qspi.h ****     * IS25LP080D
  29:../../DaisyExamples/libDaisy/src/per/qspi.h **** */
  30:../../DaisyExamples/libDaisy/src/per/qspi.h **** class QSPIHandle
  31:../../DaisyExamples/libDaisy/src/per/qspi.h **** {
  32:../../DaisyExamples/libDaisy/src/per/qspi.h ****   public:
  33:../../DaisyExamples/libDaisy/src/per/qspi.h ****     enum Result
  34:../../DaisyExamples/libDaisy/src/per/qspi.h ****     {
  35:../../DaisyExamples/libDaisy/src/per/qspi.h ****         OK = 0,
  36:../../DaisyExamples/libDaisy/src/per/qspi.h ****         ERR
  37:../../DaisyExamples/libDaisy/src/per/qspi.h ****     };
  38:../../DaisyExamples/libDaisy/src/per/qspi.h **** 
  39:../../DaisyExamples/libDaisy/src/per/qspi.h ****     /** Indicates the current status of the module. 
  40:../../DaisyExamples/libDaisy/src/per/qspi.h ****          *  Warnings are indicated by a leading W.
  41:../../DaisyExamples/libDaisy/src/per/qspi.h ****          *  Errors are indicated by a leading E and cause an immediate exit.
  42:../../DaisyExamples/libDaisy/src/per/qspi.h ****          * 
  43:../../DaisyExamples/libDaisy/src/per/qspi.h ****          *  \param GOOD - No errors have been reported.
  44:../../DaisyExamples/libDaisy/src/per/qspi.h ****          *  \param E_HAL_ERROR - HAL code did not return HAL_OK.
  45:../../DaisyExamples/libDaisy/src/per/qspi.h ****          *  \param E_SWITCHING_MODES - An error was encountered while switching QSPI peripheral mod
  46:../../DaisyExamples/libDaisy/src/per/qspi.h ****          *  \param E_INVALID_MODE - QSPI should not be written to while the program is executing fr
  47:../../DaisyExamples/libDaisy/src/per/qspi.h ****          */
  48:../../DaisyExamples/libDaisy/src/per/qspi.h ****     enum Status
  49:../../DaisyExamples/libDaisy/src/per/qspi.h ****     {
  50:../../DaisyExamples/libDaisy/src/per/qspi.h ****         GOOD = 0,
  51:../../DaisyExamples/libDaisy/src/per/qspi.h ****         E_HAL_ERROR,
  52:../../DaisyExamples/libDaisy/src/per/qspi.h ****         E_SWITCHING_MODES,
  53:../../DaisyExamples/libDaisy/src/per/qspi.h ****         E_INVALID_MODE,
  54:../../DaisyExamples/libDaisy/src/per/qspi.h ****     };
  55:../../DaisyExamples/libDaisy/src/per/qspi.h **** 
  56:../../DaisyExamples/libDaisy/src/per/qspi.h ****     /** Configuration structure for interfacing with QSPI Driver */
  57:../../DaisyExamples/libDaisy/src/per/qspi.h ****     struct Config
  58:../../DaisyExamples/libDaisy/src/per/qspi.h ****     {
  59:../../DaisyExamples/libDaisy/src/per/qspi.h ****         /** Flash Devices supported. (Both of these are more-or-less the same, just different sizes
  60:../../DaisyExamples/libDaisy/src/per/qspi.h ****         enum Device
  61:../../DaisyExamples/libDaisy/src/per/qspi.h ****         {
ARM GAS  /var/folders/hp/45mn71hd0ps5f5pnytxy5bt00000gn/T//ccWGldgQ.s 			page 43


  62:../../DaisyExamples/libDaisy/src/per/qspi.h ****             IS25LP080D,  /**< & */
  63:../../DaisyExamples/libDaisy/src/per/qspi.h ****             IS25LP064A,  /**< & */
  64:../../DaisyExamples/libDaisy/src/per/qspi.h ****             DEVICE_LAST, /**< & */
  65:../../DaisyExamples/libDaisy/src/per/qspi.h ****         };
  66:../../DaisyExamples/libDaisy/src/per/qspi.h **** 
  67:../../DaisyExamples/libDaisy/src/per/qspi.h ****         /** 
  68:../../DaisyExamples/libDaisy/src/per/qspi.h ****         Modes of operation.
  69:../../DaisyExamples/libDaisy/src/per/qspi.h ****         Memory Mapped mode: QSPI configured so that the QSPI can be
  70:../../DaisyExamples/libDaisy/src/per/qspi.h ****         read from starting address 0x90000000. Writing is not
  71:../../DaisyExamples/libDaisy/src/per/qspi.h ****         possible in this mode. \n 
  72:../../DaisyExamples/libDaisy/src/per/qspi.h ****         Indirect Polling mode: Device driver enabled. 
  73:../../DaisyExamples/libDaisy/src/per/qspi.h ****         */
  74:../../DaisyExamples/libDaisy/src/per/qspi.h ****         enum Mode
  75:../../DaisyExamples/libDaisy/src/per/qspi.h ****         {
  76:../../DaisyExamples/libDaisy/src/per/qspi.h ****             MEMORY_MAPPED,    /**< & */
  77:../../DaisyExamples/libDaisy/src/per/qspi.h ****             INDIRECT_POLLING, /**< & */
  78:../../DaisyExamples/libDaisy/src/per/qspi.h ****             MODE_LAST,
  79:../../DaisyExamples/libDaisy/src/per/qspi.h ****         };
  80:../../DaisyExamples/libDaisy/src/per/qspi.h **** 
  81:../../DaisyExamples/libDaisy/src/per/qspi.h ****         //SCK,  CE# (active low)
  82:../../DaisyExamples/libDaisy/src/per/qspi.h ****         struct
  83:../../DaisyExamples/libDaisy/src/per/qspi.h ****         {
  84:../../DaisyExamples/libDaisy/src/per/qspi.h ****             dsy_gpio_pin io0; /**< & */
  85:../../DaisyExamples/libDaisy/src/per/qspi.h ****             dsy_gpio_pin io1; /**< & */
  86:../../DaisyExamples/libDaisy/src/per/qspi.h ****             dsy_gpio_pin io2; /**< & */
  87:../../DaisyExamples/libDaisy/src/per/qspi.h ****             dsy_gpio_pin io3; /**< & */
  88:../../DaisyExamples/libDaisy/src/per/qspi.h ****             dsy_gpio_pin clk; /**< & */
  89:../../DaisyExamples/libDaisy/src/per/qspi.h ****             dsy_gpio_pin ncs; /**< & */
  90:../../DaisyExamples/libDaisy/src/per/qspi.h ****         } pin_config;
  91:../../DaisyExamples/libDaisy/src/per/qspi.h **** 
  92:../../DaisyExamples/libDaisy/src/per/qspi.h ****         Device device;
  93:../../DaisyExamples/libDaisy/src/per/qspi.h ****         Mode   mode;
  94:../../DaisyExamples/libDaisy/src/per/qspi.h ****     };
  95:../../DaisyExamples/libDaisy/src/per/qspi.h **** 
  96:../../DaisyExamples/libDaisy/src/per/qspi.h ****     /** 
  97:../../DaisyExamples/libDaisy/src/per/qspi.h ****         Initializes QSPI peripheral, and Resets, and prepares memory for access.
  98:../../DaisyExamples/libDaisy/src/per/qspi.h ****         \param config should be populated with the mode, device and pin_config before calling this 
  99:../../DaisyExamples/libDaisy/src/per/qspi.h ****         \return Result::OK or Result::ERR
 100:../../DaisyExamples/libDaisy/src/per/qspi.h ****         */
 101:../../DaisyExamples/libDaisy/src/per/qspi.h ****     Result Init(const Config& config);
 102:../../DaisyExamples/libDaisy/src/per/qspi.h **** 
 103:../../DaisyExamples/libDaisy/src/per/qspi.h ****     /** Returns the current config. */
 104:../../DaisyExamples/libDaisy/src/per/qspi.h ****     const Config& GetConfig() const;
 105:../../DaisyExamples/libDaisy/src/per/qspi.h **** 
 106:../../DaisyExamples/libDaisy/src/per/qspi.h ****     // Couldn't this just be called before anything else in init? That
 107:../../DaisyExamples/libDaisy/src/per/qspi.h ****     // would make manually calling it unnecessary.
 108:../../DaisyExamples/libDaisy/src/per/qspi.h ****     /** 
 109:../../DaisyExamples/libDaisy/src/per/qspi.h ****         Deinitializes the peripheral
 110:../../DaisyExamples/libDaisy/src/per/qspi.h ****         This should be called before reinitializing QSPI in a different mode.
 111:../../DaisyExamples/libDaisy/src/per/qspi.h ****         \return Result::OK or Result::ERR
 112:../../DaisyExamples/libDaisy/src/per/qspi.h ****         */
 113:../../DaisyExamples/libDaisy/src/per/qspi.h ****     Result DeInit();
 114:../../DaisyExamples/libDaisy/src/per/qspi.h **** 
 115:../../DaisyExamples/libDaisy/src/per/qspi.h ****     /** 
 116:../../DaisyExamples/libDaisy/src/per/qspi.h ****         Writes a single page to to the specified address on the QSPI chip.
 117:../../DaisyExamples/libDaisy/src/per/qspi.h ****         For IS25LP*, page size is 256 bytes.
 118:../../DaisyExamples/libDaisy/src/per/qspi.h ****         \param address Address to write to
ARM GAS  /var/folders/hp/45mn71hd0ps5f5pnytxy5bt00000gn/T//ccWGldgQ.s 			page 44


 119:../../DaisyExamples/libDaisy/src/per/qspi.h ****         \param size Buffer size
 120:../../DaisyExamples/libDaisy/src/per/qspi.h ****         \param buffer Buffer to write
 121:../../DaisyExamples/libDaisy/src/per/qspi.h ****         \return Result::OK or Result::ERR
 122:../../DaisyExamples/libDaisy/src/per/qspi.h ****         */
 123:../../DaisyExamples/libDaisy/src/per/qspi.h ****     Result WritePage(uint32_t address, uint32_t size, uint8_t* buffer);
 124:../../DaisyExamples/libDaisy/src/per/qspi.h **** 
 125:../../DaisyExamples/libDaisy/src/per/qspi.h ****     /** 
 126:../../DaisyExamples/libDaisy/src/per/qspi.h ****         Writes data in buffer to to the QSPI. Starting at address to address+size 
 127:../../DaisyExamples/libDaisy/src/per/qspi.h ****         \param address Address to write to
 128:../../DaisyExamples/libDaisy/src/per/qspi.h ****         \param size Buffer size
 129:../../DaisyExamples/libDaisy/src/per/qspi.h ****         \param buffer Buffer to write
 130:../../DaisyExamples/libDaisy/src/per/qspi.h ****         \return Result::OK or Result::ERR
 131:../../DaisyExamples/libDaisy/src/per/qspi.h ****         */
 132:../../DaisyExamples/libDaisy/src/per/qspi.h ****     Result Write(uint32_t address, uint32_t size, uint8_t* buffer);
 133:../../DaisyExamples/libDaisy/src/per/qspi.h **** 
 134:../../DaisyExamples/libDaisy/src/per/qspi.h ****     /** 
 135:../../DaisyExamples/libDaisy/src/per/qspi.h ****         Erases the area specified on the chip.
 136:../../DaisyExamples/libDaisy/src/per/qspi.h ****         Erasures will happen by 4K, 32K or 64K increments.
 137:../../DaisyExamples/libDaisy/src/per/qspi.h ****         Smallest erase possible is 4kB at a time. (on IS25LP*)
 138:../../DaisyExamples/libDaisy/src/per/qspi.h ****         \param start_addr Address to begin erasing from
 139:../../DaisyExamples/libDaisy/src/per/qspi.h ****         \param end_addr  Address to stop erasing at
 140:../../DaisyExamples/libDaisy/src/per/qspi.h ****         \return Result::OK or Result::ERR
 141:../../DaisyExamples/libDaisy/src/per/qspi.h ****         */
 142:../../DaisyExamples/libDaisy/src/per/qspi.h ****     Result Erase(uint32_t start_addr, uint32_t end_addr);
 143:../../DaisyExamples/libDaisy/src/per/qspi.h **** 
 144:../../DaisyExamples/libDaisy/src/per/qspi.h ****     /**  
 145:../../DaisyExamples/libDaisy/src/per/qspi.h ****          Erases a single sector of the chip.  
 146:../../DaisyExamples/libDaisy/src/per/qspi.h ****         TODO: Document the size of this function. 
 147:../../DaisyExamples/libDaisy/src/per/qspi.h ****         \param address Address of sector to erase
 148:../../DaisyExamples/libDaisy/src/per/qspi.h ****         \return Result::OK or Result::ERR
 149:../../DaisyExamples/libDaisy/src/per/qspi.h ****         */
 150:../../DaisyExamples/libDaisy/src/per/qspi.h ****     Result EraseSector(uint32_t address);
 151:../../DaisyExamples/libDaisy/src/per/qspi.h **** 
 152:../../DaisyExamples/libDaisy/src/per/qspi.h ****     /** Returns the current class status. Useful for debugging.
 153:../../DaisyExamples/libDaisy/src/per/qspi.h ****      *  \returns Status
 154:../../DaisyExamples/libDaisy/src/per/qspi.h ****      */
 155:../../DaisyExamples/libDaisy/src/per/qspi.h ****     Status GetStatus();
 156:../../DaisyExamples/libDaisy/src/per/qspi.h **** 
 157:../../DaisyExamples/libDaisy/src/per/qspi.h ****     /** Returns a pointer to the actual memory used 
 158:../../DaisyExamples/libDaisy/src/per/qspi.h ****      *  The memory at this address is read-only
 159:../../DaisyExamples/libDaisy/src/per/qspi.h ****      *  to write to it use the Write function.
 160:../../DaisyExamples/libDaisy/src/per/qspi.h ****      * 
 161:../../DaisyExamples/libDaisy/src/per/qspi.h ****      *  \param offset returns the pointer starting this 
 162:../../DaisyExamples/libDaisy/src/per/qspi.h ****      *                many bytes into the memory
 163:../../DaisyExamples/libDaisy/src/per/qspi.h ****     */
 164:../../DaisyExamples/libDaisy/src/per/qspi.h ****     void* GetData(uint32_t offset = 0);
 165:../../DaisyExamples/libDaisy/src/per/qspi.h **** 
 166:../../DaisyExamples/libDaisy/src/per/qspi.h ****     QSPIHandle() : pimpl_(nullptr) {}
 928              		.loc 19 166 5 view .LVU257
 929              	.LBE559:
 930              	.LBE558:
 931              	.LBE557:
 932              	.LBE556:
 933              	.LBE555:
 934              	.LBE554:
 935              	.LBE553:
 936              		.loc 18 81 1 is_stmt 0 view .LVU258
ARM GAS  /var/folders/hp/45mn71hd0ps5f5pnytxy5bt00000gn/T//ccWGldgQ.s 			page 45


 937 0000 70B5     		push	{r4, r5, r6, lr}
 938              		.cfi_def_cfa_offset 16
 939              		.cfi_offset 4, -16
 940              		.cfi_offset 5, -12
 941              		.cfi_offset 6, -8
 942              		.cfi_offset 14, -4
 943              	.LBB666:
 944              	.LBB664:
 945              	.LBB652:
 946              	.LBB648:
 947              	.LBB582:
 948              	.LBB579:
 949              	.LBB564:
 950              	.LBB560:
 951              	.LBB561:
 952              		.loc 19 166 34 view .LVU259
 953 0002 1D4C     		ldr	r4, .L39
 954 0004 0025     		movs	r5, #0
 955              	.LBE561:
 956              	.LBE560:
 957              	.LBE564:
 958              	.LBE579:
 959              	.LBE582:
 960              	.LBE648:
 961              	.LBE652:
   7:SynthV3.cpp   **** static Oscillator osc;
 962              		.loc 18 7 17 view .LVU260
 963 0006 1D4E     		ldr	r6, .L39+4
 964              	.LBB653:
 965              	.LBB649:
 966              	.LBB583:
 967              	.LBB580:
 968              	.LBB565:
 969              	.LBB563:
 970              	.LBB562:
 971              		.loc 19 166 34 view .LVU261
 972 0008 2560     		str	r5, [r4]
 973              	.LVL53:
 974              		.loc 19 166 34 view .LVU262
 975              	.LBE562:
 976              	.LBE563:
 977              	.LBE565:
 978              	.LBB566:
 979              	.LBI566:
  95:../../DaisyExamples/libDaisy/src/hid/audio.h ****     ~AudioHandle() {}
 980              		.loc 15 95 5 is_stmt 1 view .LVU263
 981              	.LBE566:
 982              	.LBE580:
 983              	.LBE583:
 984              	.LBB584:
 985              	.LBB585:
 986              	.LBB586:
 987              	.LBB587:
 157:../../DaisyExamples/libDaisy/src/hid/midi.h **** 
 158:../../DaisyExamples/libDaisy/src/hid/midi.h ****     struct Config
 988              		.loc 4 158 12 is_stmt 0 view .LVU264
 989 000a 04F5C070 		add	r0, r4, #384
ARM GAS  /var/folders/hp/45mn71hd0ps5f5pnytxy5bt00000gn/T//ccWGldgQ.s 			page 46


 990              	.LBE587:
 991              	.LBE586:
 992              	.LBE585:
 993              	.LBE584:
 994              	.LBB627:
 995              	.LBB581:
 996              	.LBB569:
 997              	.LBB567:
 998              	.LBB568:
  95:../../DaisyExamples/libDaisy/src/hid/audio.h ****     ~AudioHandle() {}
 999              		.loc 15 95 35 view .LVU265
 1000 000e 6561     		str	r5, [r4, #20]
 1001              	.LVL54:
  95:../../DaisyExamples/libDaisy/src/hid/audio.h ****     ~AudioHandle() {}
 1002              		.loc 15 95 35 view .LVU266
 1003              	.LBE568:
 1004              	.LBE567:
 1005              	.LBE569:
 1006              	.LBB570:
 1007              	.LBI570:
 109:../../DaisyExamples/libDaisy/src/per/adc.h ****     ~AdcHandle() {}
 1008              		.loc 14 109 5 is_stmt 1 view .LVU267
 109:../../DaisyExamples/libDaisy/src/per/adc.h ****     ~AdcHandle() {}
 1009              		.loc 14 109 5 is_stmt 0 view .LVU268
 1010              	.LBE570:
 1011              	.LBB571:
 1012              	.LBI571:
 1013              		.file 20 "../../DaisyExamples/libDaisy/src/per/dac.h"
   1:../../DaisyExamples/libDaisy/src/per/dac.h **** #pragma once
   2:../../DaisyExamples/libDaisy/src/per/dac.h **** #ifndef DSY_DAC_H
   3:../../DaisyExamples/libDaisy/src/per/dac.h **** #define DSY_DAC_H
   4:../../DaisyExamples/libDaisy/src/per/dac.h **** 
   5:../../DaisyExamples/libDaisy/src/per/dac.h **** #include "daisy_core.h"
   6:../../DaisyExamples/libDaisy/src/per/dac.h **** 
   7:../../DaisyExamples/libDaisy/src/per/dac.h **** namespace daisy
   8:../../DaisyExamples/libDaisy/src/per/dac.h **** {
   9:../../DaisyExamples/libDaisy/src/per/dac.h **** /** @brief DAC handle for Built-in DAC Peripheral 
  10:../../DaisyExamples/libDaisy/src/per/dac.h ****  *  @ingroup per_analog
  11:../../DaisyExamples/libDaisy/src/per/dac.h ****  ** 
  12:../../DaisyExamples/libDaisy/src/per/dac.h ****  ** For now only Normal Mode is supported,
  13:../../DaisyExamples/libDaisy/src/per/dac.h ****  ** Sample and hold mode provides reduced power consumption, but requires a bit more setup.
  14:../../DaisyExamples/libDaisy/src/per/dac.h ****  **
  15:../../DaisyExamples/libDaisy/src/per/dac.h ****  ** For now connecting the DAC through other internal peripherals is also not supported.
  16:../../DaisyExamples/libDaisy/src/per/dac.h ****  **
  17:../../DaisyExamples/libDaisy/src/per/dac.h ****  ** Since the DAC channels have dedicated pins we don't need to pass in a pin config like with
  18:../../DaisyExamples/libDaisy/src/per/dac.h ****  ** other modules. However, it is still important to not try to use the DAC pins for anything else.
  19:../../DaisyExamples/libDaisy/src/per/dac.h ****  ** DAC Channel 1 is on PA4, and DAC Channel 2 is on PA5
  20:../../DaisyExamples/libDaisy/src/per/dac.h ****  ***/
  21:../../DaisyExamples/libDaisy/src/per/dac.h **** class DacHandle
  22:../../DaisyExamples/libDaisy/src/per/dac.h **** {
  23:../../DaisyExamples/libDaisy/src/per/dac.h ****   public:
  24:../../DaisyExamples/libDaisy/src/per/dac.h ****     /** Return Values for the DacHandle class */
  25:../../DaisyExamples/libDaisy/src/per/dac.h ****     enum class Result
  26:../../DaisyExamples/libDaisy/src/per/dac.h ****     {
  27:../../DaisyExamples/libDaisy/src/per/dac.h ****         OK,
  28:../../DaisyExamples/libDaisy/src/per/dac.h ****         ERR,
  29:../../DaisyExamples/libDaisy/src/per/dac.h ****     };
ARM GAS  /var/folders/hp/45mn71hd0ps5f5pnytxy5bt00000gn/T//ccWGldgQ.s 			page 47


  30:../../DaisyExamples/libDaisy/src/per/dac.h **** 
  31:../../DaisyExamples/libDaisy/src/per/dac.h ****     /** Selects which channel(s) will be configured for use. */
  32:../../DaisyExamples/libDaisy/src/per/dac.h ****     enum class Channel
  33:../../DaisyExamples/libDaisy/src/per/dac.h ****     {
  34:../../DaisyExamples/libDaisy/src/per/dac.h ****         ONE,
  35:../../DaisyExamples/libDaisy/src/per/dac.h ****         TWO,
  36:../../DaisyExamples/libDaisy/src/per/dac.h ****         BOTH,
  37:../../DaisyExamples/libDaisy/src/per/dac.h ****     };
  38:../../DaisyExamples/libDaisy/src/per/dac.h **** 
  39:../../DaisyExamples/libDaisy/src/per/dac.h ****     /** Sets the Mode for the DAC channels.
  40:../../DaisyExamples/libDaisy/src/per/dac.h ****      **
  41:../../DaisyExamples/libDaisy/src/per/dac.h ****      ** Polling mode uses the blocking mode to transmit a single value at a time.
  42:../../DaisyExamples/libDaisy/src/per/dac.h ****      **
  43:../../DaisyExamples/libDaisy/src/per/dac.h ****      ** DMA mode uses a buffer, and periodically transmits it triggering a 
  44:../../DaisyExamples/libDaisy/src/per/dac.h ****      ** callback to fill the buffer when it is ready for more samples.
  45:../../DaisyExamples/libDaisy/src/per/dac.h ****      ***/
  46:../../DaisyExamples/libDaisy/src/per/dac.h ****     enum class Mode
  47:../../DaisyExamples/libDaisy/src/per/dac.h ****     {
  48:../../DaisyExamples/libDaisy/src/per/dac.h ****         POLLING,
  49:../../DaisyExamples/libDaisy/src/per/dac.h ****         DMA,
  50:../../DaisyExamples/libDaisy/src/per/dac.h ****     };
  51:../../DaisyExamples/libDaisy/src/per/dac.h **** 
  52:../../DaisyExamples/libDaisy/src/per/dac.h ****     /** Sets the number of bits per sample transmitted out of the DAC.
  53:../../DaisyExamples/libDaisy/src/per/dac.h ****      ** The output range will be: 0V - VDDA
  54:../../DaisyExamples/libDaisy/src/per/dac.h ****      ** The resolution will be roughly: bitdepth / (VDDA - 0V) 
  55:../../DaisyExamples/libDaisy/src/per/dac.h ****      ***/
  56:../../DaisyExamples/libDaisy/src/per/dac.h ****     enum class BitDepth
  57:../../DaisyExamples/libDaisy/src/per/dac.h ****     {
  58:../../DaisyExamples/libDaisy/src/per/dac.h ****         BITS_8,
  59:../../DaisyExamples/libDaisy/src/per/dac.h ****         BITS_12
  60:../../DaisyExamples/libDaisy/src/per/dac.h ****     };
  61:../../DaisyExamples/libDaisy/src/per/dac.h **** 
  62:../../DaisyExamples/libDaisy/src/per/dac.h ****     /** Sets whether the DAC output is buffered for higher drive ability. */
  63:../../DaisyExamples/libDaisy/src/per/dac.h ****     enum class BufferState
  64:../../DaisyExamples/libDaisy/src/per/dac.h ****     {
  65:../../DaisyExamples/libDaisy/src/per/dac.h ****         ENABLED,
  66:../../DaisyExamples/libDaisy/src/per/dac.h ****         DISABLED,
  67:../../DaisyExamples/libDaisy/src/per/dac.h ****     };
  68:../../DaisyExamples/libDaisy/src/per/dac.h **** 
  69:../../DaisyExamples/libDaisy/src/per/dac.h ****     /** Configuration structure for initializing the DAC structure. */
  70:../../DaisyExamples/libDaisy/src/per/dac.h ****     struct Config
  71:../../DaisyExamples/libDaisy/src/per/dac.h ****     {
  72:../../DaisyExamples/libDaisy/src/per/dac.h ****         /** Target Samplerate in Hz used to configure the internal 
  73:../../DaisyExamples/libDaisy/src/per/dac.h ****          ** timebase for DMA mode. Does nothing in POLLING mode.
  74:../../DaisyExamples/libDaisy/src/per/dac.h ****          ** If the value is 0 at Init time this will default to 48000Hz 
  75:../../DaisyExamples/libDaisy/src/per/dac.h ****          ** otherwise the driver will attempt meet the target.*/
  76:../../DaisyExamples/libDaisy/src/per/dac.h ****         uint32_t target_samplerate;
  77:../../DaisyExamples/libDaisy/src/per/dac.h **** 
  78:../../DaisyExamples/libDaisy/src/per/dac.h ****         Channel     chn;
  79:../../DaisyExamples/libDaisy/src/per/dac.h ****         Mode        mode;
  80:../../DaisyExamples/libDaisy/src/per/dac.h ****         BitDepth    bitdepth;
  81:../../DaisyExamples/libDaisy/src/per/dac.h ****         BufferState buff_state;
  82:../../DaisyExamples/libDaisy/src/per/dac.h ****     };
  83:../../DaisyExamples/libDaisy/src/per/dac.h **** 
  84:../../DaisyExamples/libDaisy/src/per/dac.h ****     DacHandle() : pimpl_(nullptr) {}
 1014              		.loc 20 84 5 is_stmt 1 view .LVU269
 1015              	.LBB572:
ARM GAS  /var/folders/hp/45mn71hd0ps5f5pnytxy5bt00000gn/T//ccWGldgQ.s 			page 48


 1016              	.LBB573:
 1017              		.loc 20 84 33 is_stmt 0 view .LVU270
 1018 0010 2562     		str	r5, [r4, #32]
 1019              	.LVL55:
 1020              		.loc 20 84 33 view .LVU271
 1021              	.LBE573:
 1022              	.LBE572:
 1023              	.LBE571:
 1024              	.LBB574:
 1025              	.LBI574:
  40:../../DaisyExamples/libDaisy/src/hid/usb.h **** 
 1026              		.loc 13 40 5 is_stmt 1 view .LVU272
  40:../../DaisyExamples/libDaisy/src/hid/usb.h **** 
 1027              		.loc 13 40 5 is_stmt 0 view .LVU273
 1028              	.LBE574:
 1029              	.LBB575:
 1030              	.LBI575:
  96:../../DaisyExamples/libDaisy/src/sys/system.h ****     ~System() {}
 1031              		.loc 12 96 5 is_stmt 1 view .LVU274
  96:../../DaisyExamples/libDaisy/src/sys/system.h ****     ~System() {}
 1032              		.loc 12 96 5 is_stmt 0 view .LVU275
 1033              	.LBE575:
 1034              	.LBB576:
 1035              	.LBI576:
 1036              		.file 21 "../../DaisyExamples/libDaisy/src/per/sai.h"
   1:../../DaisyExamples/libDaisy/src/per/sai.h **** #pragma once
   2:../../DaisyExamples/libDaisy/src/per/sai.h **** #ifndef DSY_SAI_H
   3:../../DaisyExamples/libDaisy/src/per/sai.h **** #define DSY_SAI_H
   4:../../DaisyExamples/libDaisy/src/per/sai.h **** 
   5:../../DaisyExamples/libDaisy/src/per/sai.h **** #include "daisy_core.h"
   6:../../DaisyExamples/libDaisy/src/per/sai.h **** 
   7:../../DaisyExamples/libDaisy/src/per/sai.h **** namespace daisy
   8:../../DaisyExamples/libDaisy/src/per/sai.h **** {
   9:../../DaisyExamples/libDaisy/src/per/sai.h **** /** 
  10:../../DaisyExamples/libDaisy/src/per/sai.h ****  * Support for I2S Audio Protocol with different bit-depth, samplerate options
  11:../../DaisyExamples/libDaisy/src/per/sai.h ****  * Allows for master or slave, as well as freedom of selecting direction, 
  12:../../DaisyExamples/libDaisy/src/per/sai.h ****  * and other behavior for each peripheral, and block.
  13:../../DaisyExamples/libDaisy/src/per/sai.h ****  * 
  14:../../DaisyExamples/libDaisy/src/per/sai.h ****  * DMA Transfer commands must use buffers located within non-cached memory or use cache maintenance
  15:../../DaisyExamples/libDaisy/src/per/sai.h ****  * To declare an unitialized global element in the DMA memory section:
  16:../../DaisyExamples/libDaisy/src/per/sai.h ****  *    int32_t DSY_DMA_BUFFER_SECTOR my_buffer[96];
  17:../../DaisyExamples/libDaisy/src/per/sai.h ****  *
  18:../../DaisyExamples/libDaisy/src/per/sai.h ****  * Callback functions will be called once per half of the buffer. In the above example, 
  19:../../DaisyExamples/libDaisy/src/per/sai.h ****  * the callback function would be called once for every 48 samples.
  20:../../DaisyExamples/libDaisy/src/per/sai.h ****  * 
  21:../../DaisyExamples/libDaisy/src/per/sai.h ****  * Use SAI Handle like this:
  22:../../DaisyExamples/libDaisy/src/per/sai.h ****  * 
  23:../../DaisyExamples/libDaisy/src/per/sai.h ****  *  SaiHandle::Config sai_config;
  24:../../DaisyExamples/libDaisy/src/per/sai.h ****  *  sai_config.periph          = SaiHandle::Config::Peripheral::SAI_1;
  25:../../DaisyExamples/libDaisy/src/per/sai.h ****  *  sai_config.sr              = SaiHandle::Config::SampleRate::SAI_48KHZ;
  26:../../DaisyExamples/libDaisy/src/per/sai.h ****  *  sai_config.bit_depth       = SaiHandle::Config::BitDepth::SAI_24BIT;
  27:../../DaisyExamples/libDaisy/src/per/sai.h ****  *  sai_config.a_sync          = SaiHandle::Config::Sync::MASTER;
  28:../../DaisyExamples/libDaisy/src/per/sai.h ****  *  sai_config.b_sync          = SaiHandle::Config::Sync::SLAVE;
  29:../../DaisyExamples/libDaisy/src/per/sai.h ****  *  sai_config.a_dir           = SaiHandle::Config::Direction::RECEIVE;
  30:../../DaisyExamples/libDaisy/src/per/sai.h ****  *  sai_config.b_dir           = SaiHandle::Config::Direction::TRANSMIT;
  31:../../DaisyExamples/libDaisy/src/per/sai.h ****  *  sai_config.pin_config.fs   = {DSY_GPIOE, 4};
  32:../../DaisyExamples/libDaisy/src/per/sai.h ****  *  sai_config.pin_config.mclk = {DSY_GPIOE, 2};
ARM GAS  /var/folders/hp/45mn71hd0ps5f5pnytxy5bt00000gn/T//ccWGldgQ.s 			page 49


  33:../../DaisyExamples/libDaisy/src/per/sai.h ****  *  sai_config.pin_config.sck  = {DSY_GPIOE, 5};
  34:../../DaisyExamples/libDaisy/src/per/sai.h ****  *  sai_config.pin_config.sa   = {DSY_GPIOE, 6};
  35:../../DaisyExamples/libDaisy/src/per/sai.h ****  *  sai_config.pin_config.sb   = {DSY_GPIOE, 3};
  36:../../DaisyExamples/libDaisy/src/per/sai.h ****  *  // Then Initialize
  37:../../DaisyExamples/libDaisy/src/per/sai.h ****  *  SaiHandle sai;
  38:../../DaisyExamples/libDaisy/src/per/sai.h ****  *  sai.Init(sai_config);
  39:../../DaisyExamples/libDaisy/src/per/sai.h ****  *  // Now you can use it:
  40:../../DaisyExamples/libDaisy/src/per/sai.h ****  *  sai.StartDma(. . .);
  41:../../DaisyExamples/libDaisy/src/per/sai.h ****  */
  42:../../DaisyExamples/libDaisy/src/per/sai.h **** class SaiHandle
  43:../../DaisyExamples/libDaisy/src/per/sai.h **** {
  44:../../DaisyExamples/libDaisy/src/per/sai.h ****   public:
  45:../../DaisyExamples/libDaisy/src/per/sai.h ****     /** Contains settings for initialising an SAI Interface */
  46:../../DaisyExamples/libDaisy/src/per/sai.h ****     struct Config
  47:../../DaisyExamples/libDaisy/src/per/sai.h ****     {
  48:../../DaisyExamples/libDaisy/src/per/sai.h ****         /** Specifies the internal peripheral to use (mapped to different hardware pins) */
  49:../../DaisyExamples/libDaisy/src/per/sai.h ****         enum class Peripheral
  50:../../DaisyExamples/libDaisy/src/per/sai.h ****         {
  51:../../DaisyExamples/libDaisy/src/per/sai.h ****             SAI_1,
  52:../../DaisyExamples/libDaisy/src/per/sai.h ****             SAI_2,
  53:../../DaisyExamples/libDaisy/src/per/sai.h ****         };
  54:../../DaisyExamples/libDaisy/src/per/sai.h **** 
  55:../../DaisyExamples/libDaisy/src/per/sai.h ****         /** Rate at which samples will be streaming to/from the device. */
  56:../../DaisyExamples/libDaisy/src/per/sai.h ****         enum class SampleRate
  57:../../DaisyExamples/libDaisy/src/per/sai.h ****         {
  58:../../DaisyExamples/libDaisy/src/per/sai.h ****             SAI_8KHZ,
  59:../../DaisyExamples/libDaisy/src/per/sai.h ****             SAI_16KHZ,
  60:../../DaisyExamples/libDaisy/src/per/sai.h ****             SAI_32KHZ,
  61:../../DaisyExamples/libDaisy/src/per/sai.h ****             SAI_48KHZ,
  62:../../DaisyExamples/libDaisy/src/per/sai.h ****             SAI_96KHZ,
  63:../../DaisyExamples/libDaisy/src/per/sai.h ****         };
  64:../../DaisyExamples/libDaisy/src/per/sai.h **** 
  65:../../DaisyExamples/libDaisy/src/per/sai.h ****         /** Bit Depth that the hardware expects to be transferred to/from the device. */
  66:../../DaisyExamples/libDaisy/src/per/sai.h ****         enum class BitDepth
  67:../../DaisyExamples/libDaisy/src/per/sai.h ****         {
  68:../../DaisyExamples/libDaisy/src/per/sai.h ****             SAI_16BIT,
  69:../../DaisyExamples/libDaisy/src/per/sai.h ****             SAI_24BIT,
  70:../../DaisyExamples/libDaisy/src/per/sai.h ****             SAI_32BIT,
  71:../../DaisyExamples/libDaisy/src/per/sai.h ****         };
  72:../../DaisyExamples/libDaisy/src/per/sai.h **** 
  73:../../DaisyExamples/libDaisy/src/per/sai.h ****         /** Specifies whether a particular block is the master or the slave 
  74:../../DaisyExamples/libDaisy/src/per/sai.h ****          ** If both are set to slave, no MCLK signal will be used, and it is
  75:../../DaisyExamples/libDaisy/src/per/sai.h ****          ** expected that the codec will have its own xtal.
  76:../../DaisyExamples/libDaisy/src/per/sai.h ****          */
  77:../../DaisyExamples/libDaisy/src/per/sai.h ****         enum class Sync
  78:../../DaisyExamples/libDaisy/src/per/sai.h ****         {
  79:../../DaisyExamples/libDaisy/src/per/sai.h ****             MASTER,
  80:../../DaisyExamples/libDaisy/src/per/sai.h ****             SLAVE,
  81:../../DaisyExamples/libDaisy/src/per/sai.h ****         };
  82:../../DaisyExamples/libDaisy/src/per/sai.h **** 
  83:../../DaisyExamples/libDaisy/src/per/sai.h ****         /** Specifies the direction for each peripheral block. */
  84:../../DaisyExamples/libDaisy/src/per/sai.h ****         enum class Direction
  85:../../DaisyExamples/libDaisy/src/per/sai.h ****         {
  86:../../DaisyExamples/libDaisy/src/per/sai.h ****             TRANSMIT,
  87:../../DaisyExamples/libDaisy/src/per/sai.h ****             RECEIVE,
  88:../../DaisyExamples/libDaisy/src/per/sai.h ****         };
  89:../../DaisyExamples/libDaisy/src/per/sai.h **** 
ARM GAS  /var/folders/hp/45mn71hd0ps5f5pnytxy5bt00000gn/T//ccWGldgQ.s 			page 50


  90:../../DaisyExamples/libDaisy/src/per/sai.h ****         Peripheral periph;
  91:../../DaisyExamples/libDaisy/src/per/sai.h ****         struct
  92:../../DaisyExamples/libDaisy/src/per/sai.h ****         {
  93:../../DaisyExamples/libDaisy/src/per/sai.h ****             dsy_gpio_pin mclk, fs, sck, sa, sb;
  94:../../DaisyExamples/libDaisy/src/per/sai.h ****         } pin_config;
  95:../../DaisyExamples/libDaisy/src/per/sai.h ****         SampleRate sr;
  96:../../DaisyExamples/libDaisy/src/per/sai.h ****         BitDepth   bit_depth;
  97:../../DaisyExamples/libDaisy/src/per/sai.h ****         Sync       a_sync, b_sync;
  98:../../DaisyExamples/libDaisy/src/per/sai.h ****         Direction  a_dir, b_dir;
  99:../../DaisyExamples/libDaisy/src/per/sai.h ****     };
 100:../../DaisyExamples/libDaisy/src/per/sai.h **** 
 101:../../DaisyExamples/libDaisy/src/per/sai.h ****     /** Return values for SAI functions */
 102:../../DaisyExamples/libDaisy/src/per/sai.h ****     enum class Result
 103:../../DaisyExamples/libDaisy/src/per/sai.h ****     {
 104:../../DaisyExamples/libDaisy/src/per/sai.h ****         OK,
 105:../../DaisyExamples/libDaisy/src/per/sai.h ****         ERR,
 106:../../DaisyExamples/libDaisy/src/per/sai.h ****     };
 107:../../DaisyExamples/libDaisy/src/per/sai.h **** 
 108:../../DaisyExamples/libDaisy/src/per/sai.h ****     SaiHandle() : pimpl_(nullptr) {}
 1037              		.loc 21 108 5 is_stmt 1 view .LVU276
 1038              	.LBB577:
 1039              	.LBB578:
 1040              		.loc 21 108 33 is_stmt 0 view .LVU277
 1041 0012 E563     		str	r5, [r4, #60]
 1042              	.LVL56:
 1043              		.loc 21 108 33 view .LVU278
 1044              	.LBE578:
 1045              	.LBE577:
 1046              	.LBE576:
 1047              	.LBE581:
 1048              	.LBE627:
 1049              	.LBB628:
 1050              	.LBI628:
  20:../../DaisyExamples/libDaisy/src/hid/encoder.h ****     ~Encoder() {}
 1051              		.loc 10 20 5 is_stmt 1 view .LVU279
 1052              	.LBB629:
 1053              	.LBB630:
 1054              	.LBI630:
  41:../../DaisyExamples/libDaisy/src/hid/switch.h ****     ~Switch() {}
 1055              		.loc 9 41 5 view .LVU280
  41:../../DaisyExamples/libDaisy/src/hid/switch.h ****     ~Switch() {}
 1056              		.loc 9 41 5 is_stmt 0 view .LVU281
 1057              	.LBE630:
 1058              	.LBE629:
 1059              	.LBE628:
 1060              	.LBB631:
 1061              	.LBI631:
  21:../../DaisyExamples/libDaisy/src/hid/ctrl.h ****     /** destructor */
 1062              		.loc 2 21 5 is_stmt 1 view .LVU282
  21:../../DaisyExamples/libDaisy/src/hid/ctrl.h ****     /** destructor */
 1063              		.loc 2 21 5 is_stmt 0 view .LVU283
 1064              	.LBE631:
 1065              	.LBB632:
 1066              	.LBI632:
  21:../../DaisyExamples/libDaisy/src/hid/ctrl.h ****     /** destructor */
 1067              		.loc 2 21 5 is_stmt 1 view .LVU284
  21:../../DaisyExamples/libDaisy/src/hid/ctrl.h ****     /** destructor */
ARM GAS  /var/folders/hp/45mn71hd0ps5f5pnytxy5bt00000gn/T//ccWGldgQ.s 			page 51


 1068              		.loc 2 21 5 is_stmt 0 view .LVU285
 1069              	.LBE632:
 1070              	.LBB633:
 1071              	.LBI633:
  41:../../DaisyExamples/libDaisy/src/hid/switch.h ****     ~Switch() {}
 1072              		.loc 9 41 5 is_stmt 1 view .LVU286
  41:../../DaisyExamples/libDaisy/src/hid/switch.h ****     ~Switch() {}
 1073              		.loc 9 41 5 is_stmt 0 view .LVU287
 1074              	.LBE633:
 1075              	.LBB634:
 1076              	.LBI634:
  41:../../DaisyExamples/libDaisy/src/hid/switch.h ****     ~Switch() {}
 1077              		.loc 9 41 5 is_stmt 1 view .LVU288
  41:../../DaisyExamples/libDaisy/src/hid/switch.h ****     ~Switch() {}
 1078              		.loc 9 41 5 is_stmt 0 view .LVU289
 1079              	.LBE634:
 1080              	.LBB635:
 1081              	.LBI635:
  17:../../DaisyExamples/libDaisy/src/hid/rgb_led.h ****     ~RgbLed() {}
 1082              		.loc 7 17 5 is_stmt 1 view .LVU290
 1083              	.LBB636:
 1084              	.LBB637:
 1085              	.LBI637:
  24:../../DaisyExamples/libDaisy/src/hid/led.h ****     ~Led() {}
 1086              		.loc 8 24 5 view .LVU291
  24:../../DaisyExamples/libDaisy/src/hid/led.h ****     ~Led() {}
 1087              		.loc 8 24 5 is_stmt 0 view .LVU292
 1088              	.LBE637:
 1089              	.LBB638:
 1090              	.LBI638:
  24:../../DaisyExamples/libDaisy/src/hid/led.h ****     ~Led() {}
 1091              		.loc 8 24 5 is_stmt 1 view .LVU293
  24:../../DaisyExamples/libDaisy/src/hid/led.h ****     ~Led() {}
 1092              		.loc 8 24 5 is_stmt 0 view .LVU294
 1093              	.LBE638:
 1094              	.LBB639:
 1095              	.LBI639:
  24:../../DaisyExamples/libDaisy/src/hid/led.h ****     ~Led() {}
 1096              		.loc 8 24 5 is_stmt 1 view .LVU295
  24:../../DaisyExamples/libDaisy/src/hid/led.h ****     ~Led() {}
 1097              		.loc 8 24 5 is_stmt 0 view .LVU296
 1098              	.LBE639:
 1099              	.LBE636:
 1100              	.LBE635:
 1101              	.LBB640:
 1102              	.LBI640:
  17:../../DaisyExamples/libDaisy/src/hid/rgb_led.h ****     ~RgbLed() {}
 1103              		.loc 7 17 5 is_stmt 1 view .LVU297
 1104              	.LBB641:
 1105              	.LBB642:
 1106              	.LBI642:
  24:../../DaisyExamples/libDaisy/src/hid/led.h ****     ~Led() {}
 1107              		.loc 8 24 5 view .LVU298
  24:../../DaisyExamples/libDaisy/src/hid/led.h ****     ~Led() {}
 1108              		.loc 8 24 5 is_stmt 0 view .LVU299
 1109              	.LBE642:
 1110              	.LBB643:
ARM GAS  /var/folders/hp/45mn71hd0ps5f5pnytxy5bt00000gn/T//ccWGldgQ.s 			page 52


 1111              	.LBI643:
  24:../../DaisyExamples/libDaisy/src/hid/led.h ****     ~Led() {}
 1112              		.loc 8 24 5 is_stmt 1 view .LVU300
  24:../../DaisyExamples/libDaisy/src/hid/led.h ****     ~Led() {}
 1113              		.loc 8 24 5 is_stmt 0 view .LVU301
 1114              	.LBE643:
 1115              	.LBB644:
 1116              	.LBI644:
  24:../../DaisyExamples/libDaisy/src/hid/led.h ****     ~Led() {}
 1117              		.loc 8 24 5 is_stmt 1 view .LVU302
  24:../../DaisyExamples/libDaisy/src/hid/led.h ****     ~Led() {}
 1118              		.loc 8 24 5 is_stmt 0 view .LVU303
 1119              	.LBE644:
 1120              	.LBE641:
 1121              	.LBE640:
 1122              	.LBB645:
 1123              	.LBI584:
 155:../../DaisyExamples/libDaisy/src/hid/midi.h ****     ~MidiHandler() {}
 1124              		.loc 4 155 5 is_stmt 1 view .LVU304
 1125              	.LBB624:
 1126              	.LBB589:
 1127              	.LBI586:
 1128              		.loc 4 158 12 view .LVU305
 1129              	.LBB588:
 1130 0014 FFF7FEFF 		bl	_ZN5daisy17MidiUartTransport6ConfigC1Ev
 1131              	.LVL57:
 1132              		.loc 4 158 12 is_stmt 0 view .LVU306
 1133              	.LBE588:
 1134              	.LBE589:
 1135              	.LBB590:
 1136              	.LBI590:
  31:../../DaisyExamples/libDaisy/src/hid/midi.h ****     ~MidiUartTransport() {}
 1137              		.loc 4 31 5 is_stmt 1 view .LVU307
 1138              	.LBB591:
 1139              	.LBB592:
 1140              	.LBI592:
 1141              		.file 22 "../../DaisyExamples/libDaisy/src/per/uart.h"
   1:../../DaisyExamples/libDaisy/src/per/uart.h **** /* 
   2:../../DaisyExamples/libDaisy/src/per/uart.h **** TODO
   3:../../DaisyExamples/libDaisy/src/per/uart.h **** - Overflow handling, etc. for Rx Queue.
   4:../../DaisyExamples/libDaisy/src/per/uart.h **** */
   5:../../DaisyExamples/libDaisy/src/per/uart.h **** 
   6:../../DaisyExamples/libDaisy/src/per/uart.h **** #pragma once
   7:../../DaisyExamples/libDaisy/src/per/uart.h **** #ifndef DSY_UART_H
   8:../../DaisyExamples/libDaisy/src/per/uart.h **** #define DSY_UART_H /**< macro */
   9:../../DaisyExamples/libDaisy/src/per/uart.h **** #include "daisy_core.h"
  10:../../DaisyExamples/libDaisy/src/per/uart.h **** 
  11:../../DaisyExamples/libDaisy/src/per/uart.h **** 
  12:../../DaisyExamples/libDaisy/src/per/uart.h **** namespace daisy
  13:../../DaisyExamples/libDaisy/src/per/uart.h **** {
  14:../../DaisyExamples/libDaisy/src/per/uart.h **** /** @addtogroup serial
  15:../../DaisyExamples/libDaisy/src/per/uart.h ****     @{
  16:../../DaisyExamples/libDaisy/src/per/uart.h ****     */
  17:../../DaisyExamples/libDaisy/src/per/uart.h **** 
  18:../../DaisyExamples/libDaisy/src/per/uart.h **** /** 
  19:../../DaisyExamples/libDaisy/src/per/uart.h ****     Uart Peripheral
  20:../../DaisyExamples/libDaisy/src/per/uart.h ****     @author shensley
ARM GAS  /var/folders/hp/45mn71hd0ps5f5pnytxy5bt00000gn/T//ccWGldgQ.s 			page 53


  21:../../DaisyExamples/libDaisy/src/per/uart.h ****     @date March 2020
  22:../../DaisyExamples/libDaisy/src/per/uart.h ****     */
  23:../../DaisyExamples/libDaisy/src/per/uart.h **** class UartHandler
  24:../../DaisyExamples/libDaisy/src/per/uart.h **** {
  25:../../DaisyExamples/libDaisy/src/per/uart.h ****   public:
  26:../../DaisyExamples/libDaisy/src/per/uart.h ****     struct Config
  27:../../DaisyExamples/libDaisy/src/per/uart.h ****     {
  28:../../DaisyExamples/libDaisy/src/per/uart.h ****         enum class Peripheral
  29:../../DaisyExamples/libDaisy/src/per/uart.h ****         {
  30:../../DaisyExamples/libDaisy/src/per/uart.h ****             USART_1,
  31:../../DaisyExamples/libDaisy/src/per/uart.h ****             USART_2,
  32:../../DaisyExamples/libDaisy/src/per/uart.h ****             USART_3,
  33:../../DaisyExamples/libDaisy/src/per/uart.h ****             UART_4,
  34:../../DaisyExamples/libDaisy/src/per/uart.h ****             UART_5,
  35:../../DaisyExamples/libDaisy/src/per/uart.h ****             USART_6,
  36:../../DaisyExamples/libDaisy/src/per/uart.h ****             UART_7,
  37:../../DaisyExamples/libDaisy/src/per/uart.h ****             UART_8,
  38:../../DaisyExamples/libDaisy/src/per/uart.h ****             LPUART_1,
  39:../../DaisyExamples/libDaisy/src/per/uart.h ****         };
  40:../../DaisyExamples/libDaisy/src/per/uart.h **** 
  41:../../DaisyExamples/libDaisy/src/per/uart.h ****         enum class StopBits
  42:../../DaisyExamples/libDaisy/src/per/uart.h ****         {
  43:../../DaisyExamples/libDaisy/src/per/uart.h ****             BITS_0_5,
  44:../../DaisyExamples/libDaisy/src/per/uart.h ****             BITS_1,
  45:../../DaisyExamples/libDaisy/src/per/uart.h ****             BITS_1_5,
  46:../../DaisyExamples/libDaisy/src/per/uart.h ****             BITS_2,
  47:../../DaisyExamples/libDaisy/src/per/uart.h ****         };
  48:../../DaisyExamples/libDaisy/src/per/uart.h **** 
  49:../../DaisyExamples/libDaisy/src/per/uart.h ****         enum class Parity
  50:../../DaisyExamples/libDaisy/src/per/uart.h ****         {
  51:../../DaisyExamples/libDaisy/src/per/uart.h ****             NONE,
  52:../../DaisyExamples/libDaisy/src/per/uart.h ****             EVEN,
  53:../../DaisyExamples/libDaisy/src/per/uart.h ****             ODD,
  54:../../DaisyExamples/libDaisy/src/per/uart.h ****         };
  55:../../DaisyExamples/libDaisy/src/per/uart.h **** 
  56:../../DaisyExamples/libDaisy/src/per/uart.h ****         enum class Mode
  57:../../DaisyExamples/libDaisy/src/per/uart.h ****         {
  58:../../DaisyExamples/libDaisy/src/per/uart.h ****             RX,
  59:../../DaisyExamples/libDaisy/src/per/uart.h ****             TX,
  60:../../DaisyExamples/libDaisy/src/per/uart.h ****             TX_RX,
  61:../../DaisyExamples/libDaisy/src/per/uart.h ****         };
  62:../../DaisyExamples/libDaisy/src/per/uart.h **** 
  63:../../DaisyExamples/libDaisy/src/per/uart.h ****         enum class WordLength
  64:../../DaisyExamples/libDaisy/src/per/uart.h ****         {
  65:../../DaisyExamples/libDaisy/src/per/uart.h ****             BITS_7,
  66:../../DaisyExamples/libDaisy/src/per/uart.h ****             BITS_8,
  67:../../DaisyExamples/libDaisy/src/per/uart.h ****             BITS_9,
  68:../../DaisyExamples/libDaisy/src/per/uart.h ****         };
  69:../../DaisyExamples/libDaisy/src/per/uart.h **** 
  70:../../DaisyExamples/libDaisy/src/per/uart.h ****         struct
  71:../../DaisyExamples/libDaisy/src/per/uart.h ****         {
  72:../../DaisyExamples/libDaisy/src/per/uart.h ****             dsy_gpio_pin tx; /**< & */
  73:../../DaisyExamples/libDaisy/src/per/uart.h ****             dsy_gpio_pin rx; /**< & */
  74:../../DaisyExamples/libDaisy/src/per/uart.h ****         } pin_config;        /**< & */
  75:../../DaisyExamples/libDaisy/src/per/uart.h **** 
  76:../../DaisyExamples/libDaisy/src/per/uart.h ****         Config()
  77:../../DaisyExamples/libDaisy/src/per/uart.h ****         {
ARM GAS  /var/folders/hp/45mn71hd0ps5f5pnytxy5bt00000gn/T//ccWGldgQ.s 			page 54


  78:../../DaisyExamples/libDaisy/src/per/uart.h ****             // user must init periph, pin_config, and mode
  79:../../DaisyExamples/libDaisy/src/per/uart.h ****             stopbits   = StopBits::BITS_1;
  80:../../DaisyExamples/libDaisy/src/per/uart.h ****             parity     = Parity::NONE;
  81:../../DaisyExamples/libDaisy/src/per/uart.h ****             wordlength = WordLength::BITS_8;
  82:../../DaisyExamples/libDaisy/src/per/uart.h ****             baudrate   = 31250;
  83:../../DaisyExamples/libDaisy/src/per/uart.h ****         }
  84:../../DaisyExamples/libDaisy/src/per/uart.h **** 
  85:../../DaisyExamples/libDaisy/src/per/uart.h ****         Peripheral periph;
  86:../../DaisyExamples/libDaisy/src/per/uart.h ****         StopBits   stopbits;
  87:../../DaisyExamples/libDaisy/src/per/uart.h ****         Parity     parity;
  88:../../DaisyExamples/libDaisy/src/per/uart.h ****         Mode       mode;
  89:../../DaisyExamples/libDaisy/src/per/uart.h ****         WordLength wordlength;
  90:../../DaisyExamples/libDaisy/src/per/uart.h ****         uint32_t   baudrate;
  91:../../DaisyExamples/libDaisy/src/per/uart.h ****     };
  92:../../DaisyExamples/libDaisy/src/per/uart.h **** 
  93:../../DaisyExamples/libDaisy/src/per/uart.h **** 
  94:../../DaisyExamples/libDaisy/src/per/uart.h ****     UartHandler() : pimpl_(nullptr) {}
 1142              		.loc 22 94 5 view .LVU308
 1143              		.loc 22 94 5 is_stmt 0 view .LVU309
 1144              	.LBE592:
 1145              	.LBE591:
 1146              	.LBE590:
 1147              	.LBB597:
 1148              	.LBI597:
  18:../../DaisyExamples/libDaisy/src/hid/midi_parser.h ****     ~MidiParser() {}
 1149              		.loc 6 18 5 is_stmt 1 view .LVU310
 1150              	.LBB598:
  18:../../DaisyExamples/libDaisy/src/hid/midi_parser.h ****     ~MidiParser() {}
 1151              		.loc 6 18 17 is_stmt 0 view .LVU311
 1152 0018 40F20F73 		movw	r3, #1807
 1153              	.LBE598:
 1154              	.LBE597:
 1155              	.LBB601:
 1156              	.LBB602:
 1157              	.LBB603:
 1158              	.LBB604:
 1159              	.LBB605:
  15:../../DaisyExamples/libDaisy/src/util/FIFO.h ****     {
 1160              		.loc 5 15 75 view .LVU312
 1161 001c 04F51471 		add	r1, r4, #592
 1162              	.LBE605:
 1163              	.LBE604:
 1164              	.LBE603:
 1165              	.LBE602:
 1166              	.LBE601:
 1167              	.LBB618:
 1168              	.LBB599:
  18:../../DaisyExamples/libDaisy/src/hid/midi_parser.h ****     ~MidiParser() {}
 1169              		.loc 6 18 17 view .LVU313
 1170 0020 174A     		ldr	r2, .L39+8
 1171 0022 A4F83C32 		strh	r3, [r4, #572]	@ movhi
 1172              	.LVL58:
  18:../../DaisyExamples/libDaisy/src/hid/midi_parser.h ****     ~MidiParser() {}
 1173              		.loc 6 18 17 view .LVU314
 1174              	.LBE599:
 1175              	.LBE618:
 1176              	.LBB619:
ARM GAS  /var/folders/hp/45mn71hd0ps5f5pnytxy5bt00000gn/T//ccWGldgQ.s 			page 55


 1177              	.LBI601:
 299:../../DaisyExamples/libDaisy/src/util/FIFO.h **** {
 300:../../DaisyExamples/libDaisy/src/util/FIFO.h ****   public:
 301:../../DaisyExamples/libDaisy/src/util/FIFO.h ****     /** Creates an empty FIFO */
 302:../../DaisyExamples/libDaisy/src/util/FIFO.h ****     FIFO() : FIFOBase<T>(buffer_, capacity + 1) {}
 1178              		.loc 5 302 5 is_stmt 1 view .LVU315
 1179              	.LBB615:
 1180              	.LBB612:
 1181              	.LBI603:
  14:../../DaisyExamples/libDaisy/src/util/FIFO.h ****     : buffer_(buffer), bufferSize_(bufferSize), bufferIn_(0), bufferOut_(0)
 1182              		.loc 5 14 5 view .LVU316
 1183              	.LBB609:
 1184              	.LBB606:
  15:../../DaisyExamples/libDaisy/src/util/FIFO.h ****     {
 1185              		.loc 5 15 75 is_stmt 0 view .LVU317
 1186 0026 40F20113 		movw	r3, #257
 1187              	.LBE606:
 1188              	.LBE609:
 1189              	.LBE612:
 1190              	.LBE615:
 1191              	.LBE619:
 1192              	.LBB620:
 1193              	.LBB596:
 1194              	.LBB595:
 1195              	.LBB593:
 1196              	.LBB594:
 1197              		.loc 22 94 35 view .LVU318
 1198 002a C4F89051 		str	r5, [r4, #400]
 1199              	.LBE594:
 1200              	.LBE593:
 1201              	.LBE595:
 1202              	.LBE596:
 1203              	.LBE620:
 1204              	.LBE624:
 1205              	.LBE645:
 1206              	.LBE649:
 1207              	.LBE653:
   7:SynthV3.cpp   **** static Oscillator osc;
 1208              		.loc 18 7 17 view .LVU319
 1209 002e 2046     		mov	r0, r4
 1210              	.LBB654:
 1211              	.LBB650:
 1212              	.LBB646:
 1213              	.LBB625:
 1214              	.LBB621:
 1215              	.LBB616:
 1216              	.LBB613:
 1217              	.LBB610:
 1218              	.LBB607:
  15:../../DaisyExamples/libDaisy/src/util/FIFO.h ****     {
 1219              		.loc 5 15 75 view .LVU320
 1220 0030 C4F84852 		str	r5, [r4, #584]
 1221              	.LBE607:
 1222              	.LBE610:
 1223              	.LBE613:
 1224              	.LBE616:
 1225              	.LBE621:
ARM GAS  /var/folders/hp/45mn71hd0ps5f5pnytxy5bt00000gn/T//ccWGldgQ.s 			page 56


 1226              	.LBB622:
 1227              	.LBB600:
  18:../../DaisyExamples/libDaisy/src/hid/midi_parser.h ****     ~MidiParser() {}
 1228              		.loc 6 18 17 view .LVU321
 1229 0034 C4F83822 		str	r2, [r4, #568]
 1230              	.LBE600:
 1231              	.LBE622:
 1232              	.LBE625:
 1233              	.LBE646:
 1234              	.LBE650:
 1235              	.LBE654:
   7:SynthV3.cpp   **** static Oscillator osc;
 1236              		.loc 18 7 17 view .LVU322
 1237 0038 3246     		mov	r2, r6
 1238              	.LBB655:
 1239              	.LBB651:
 1240              	.LBB647:
 1241              	.LBB626:
 1242              	.LBB623:
 1243              	.LBB617:
 1244              	.LBB614:
 1245              	.LBB611:
 1246              	.LBB608:
  15:../../DaisyExamples/libDaisy/src/util/FIFO.h ****     {
 1247              		.loc 5 15 75 view .LVU323
 1248 003a C4F84C52 		str	r5, [r4, #588]
 1249              	.LVL59:
  15:../../DaisyExamples/libDaisy/src/util/FIFO.h ****     {
 1250              		.loc 5 15 75 view .LVU324
 1251 003e C4E99013 		strd	r1, r3, [r4, #576]
 1252              	.LBE608:
 1253              	.LBE611:
 1254              	.LBE614:
 1255              	.LBE617:
 1256              	.LBE623:
 1257              	.LBE626:
 1258              	.LBE647:
 1259              	.LBE651:
 1260              	.LBE655:
   7:SynthV3.cpp   **** static Oscillator osc;
 1261              		.loc 18 7 17 view .LVU325
 1262 0042 1049     		ldr	r1, .L39+12
 1263 0044 FFF7FEFF 		bl	__aeabi_atexit
 1264              	.LVL60:
 1265              	.LBB656:
 1266              	.LBI656:
  23:../../DaisyExamples/DaisySP/Source/Synthesis/oscillator.h ****     ~Oscillator() {}
 1267              		.loc 17 23 5 is_stmt 1 view .LVU326
  23:../../DaisyExamples/DaisySP/Source/Synthesis/oscillator.h ****     ~Oscillator() {}
 1268              		.loc 17 23 5 is_stmt 0 view .LVU327
 1269              	.LBE656:
  10:SynthV3.cpp   **** static Parameter p_release;
 1270              		.loc 18 10 19 view .LVU328
 1271 0048 0F4C     		ldr	r4, .L39+16
   8:SynthV3.cpp   **** static AdEnv ad;
 1272              		.loc 18 8 19 view .LVU329
 1273 004a 3246     		mov	r2, r6
ARM GAS  /var/folders/hp/45mn71hd0ps5f5pnytxy5bt00000gn/T//ccWGldgQ.s 			page 57


 1274 004c 0F49     		ldr	r1, .L39+20
 1275 004e 1048     		ldr	r0, .L39+24
 1276 0050 FFF7FEFF 		bl	__aeabi_atexit
 1277              	.LVL61:
 1278              	.LBB657:
 1279              	.LBI657:
  42:../../DaisyExamples/DaisySP/Source/Control/adenv.h ****     ~AdEnv() {}
 1280              		.loc 16 42 5 is_stmt 1 view .LVU330
  42:../../DaisyExamples/DaisySP/Source/Control/adenv.h ****     ~AdEnv() {}
 1281              		.loc 16 42 5 is_stmt 0 view .LVU331
 1282              	.LBE657:
   9:SynthV3.cpp   **** static Parameter  p_freq;
 1283              		.loc 18 9 14 view .LVU332
 1284 0054 3246     		mov	r2, r6
 1285 0056 0F49     		ldr	r1, .L39+28
 1286 0058 0F48     		ldr	r0, .L39+32
 1287 005a FFF7FEFF 		bl	__aeabi_atexit
 1288              	.LVL62:
 1289              	.LBB658:
 1290              	.LBI658:
  25:../../DaisyExamples/libDaisy/src/hid/parameter.h ****     /** Destructor */
 1291              		.loc 1 25 5 is_stmt 1 view .LVU333
 1292              	.LBB659:
 1293              	.LBB660:
 1294              	.LBI660:
  21:../../DaisyExamples/libDaisy/src/hid/ctrl.h ****     /** destructor */
 1295              		.loc 2 21 5 view .LVU334
  21:../../DaisyExamples/libDaisy/src/hid/ctrl.h ****     /** destructor */
 1296              		.loc 2 21 5 is_stmt 0 view .LVU335
 1297              	.LBE660:
 1298              	.LBE659:
 1299              	.LBE658:
  10:SynthV3.cpp   **** static Parameter p_release;
 1300              		.loc 18 10 19 view .LVU336
 1301 005e 3246     		mov	r2, r6
 1302 0060 2146     		mov	r1, r4
 1303 0062 0E48     		ldr	r0, .L39+36
 1304 0064 FFF7FEFF 		bl	__aeabi_atexit
 1305              	.LVL63:
 1306              	.LBB661:
 1307              	.LBI661:
  25:../../DaisyExamples/libDaisy/src/hid/parameter.h ****     /** Destructor */
 1308              		.loc 1 25 5 is_stmt 1 view .LVU337
 1309              	.LBB662:
 1310              	.LBB663:
 1311              	.LBI663:
  21:../../DaisyExamples/libDaisy/src/hid/ctrl.h ****     /** destructor */
 1312              		.loc 2 21 5 view .LVU338
  21:../../DaisyExamples/libDaisy/src/hid/ctrl.h ****     /** destructor */
 1313              		.loc 2 21 5 is_stmt 0 view .LVU339
 1314              	.LBE663:
 1315              	.LBE662:
 1316              	.LBE661:
  11:SynthV3.cpp   **** 
 1317              		.loc 18 11 18 view .LVU340
 1318 0068 3246     		mov	r2, r6
 1319 006a 2146     		mov	r1, r4
ARM GAS  /var/folders/hp/45mn71hd0ps5f5pnytxy5bt00000gn/T//ccWGldgQ.s 			page 58


 1320 006c 0C48     		ldr	r0, .L39+40
 1321              	.LBE664:
 1322              	.LBE666:
 1323              		.loc 18 81 1 view .LVU341
 1324 006e BDE87040 		pop	{r4, r5, r6, lr}
 1325              		.cfi_restore 14
 1326              		.cfi_restore 6
 1327              		.cfi_restore 5
 1328              		.cfi_restore 4
 1329              		.cfi_def_cfa_offset 0
 1330              	.LBB667:
 1331              	.LBB665:
  11:SynthV3.cpp   **** 
 1332              		.loc 18 11 18 view .LVU342
 1333 0072 FFF7FEBF 		b	__aeabi_atexit
 1334              	.LVL64:
 1335              	.L40:
 1336 0076 00BF     		.align	2
 1337              	.L39:
 1338 0078 00000000 		.word	_ZL3pod
 1339 007c 00000000 		.word	__dso_handle
 1340 0080 0080707F 		.word	2138079232
 1341 0084 00000000 		.word	_ZN5daisy8DaisyPodD1Ev
 1342 0088 00000000 		.word	_ZN5daisy9ParameterD1Ev
 1343 008c 00000000 		.word	_ZN7daisysp10OscillatorD1Ev
 1344 0090 00000000 		.word	.LANCHOR4
 1345 0094 00000000 		.word	_ZN7daisysp5AdEnvD1Ev
 1346 0098 00000000 		.word	.LANCHOR1
 1347 009c 00000000 		.word	.LANCHOR2
 1348 00a0 00000000 		.word	.LANCHOR5
 1349              	.LBE665:
 1350              	.LBE667:
 1351              		.cfi_endproc
 1352              	.LFE5439:
 1354              		.section	.init_array,"aw",%init_array
 1355              		.align	2
 1356 0000 00000000 		.word	_GLOBAL__sub_I_freq(target1)
 1357              		.global	adCycle
 1358              		.global	adRelease
 1359              		.global	freq
 1360              		.section	.bss._ZL2ad,"aw",%nobits
 1361              		.align	2
 1362              		.set	.LANCHOR1,. + 0
 1365              	_ZL2ad:
 1366 0000 00000000 		.space	56
 1366      00000000 
 1366      00000000 
 1366      00000000 
 1366      00000000 
 1367              		.section	.bss._ZL3osc,"aw",%nobits
 1368              		.align	2
 1369              		.set	.LANCHOR4,. + 0
 1372              	_ZL3osc:
 1373 0000 00000000 		.space	44
 1373      00000000 
 1373      00000000 
 1373      00000000 
ARM GAS  /var/folders/hp/45mn71hd0ps5f5pnytxy5bt00000gn/T//ccWGldgQ.s 			page 59


 1373      00000000 
 1374              		.section	.bss._ZL3pod,"aw",%nobits
 1375              		.align	2
 1378              	_ZL3pod:
 1379 0000 00000000 		.space	37600
 1379      00000000 
 1379      00000000 
 1379      00000000 
 1379      00000000 
 1380              		.section	.bss._ZL6p_freq,"aw",%nobits
 1381              		.align	2
 1382              		.set	.LANCHOR2,. + 0
 1385              	_ZL6p_freq:
 1386 0000 00000000 		.space	56
 1386      00000000 
 1386      00000000 
 1386      00000000 
 1386      00000000 
 1387              		.section	.bss._ZL9p_release,"aw",%nobits
 1388              		.align	2
 1389              		.set	.LANCHOR5,. + 0
 1392              	_ZL9p_release:
 1393 0000 00000000 		.space	56
 1393      00000000 
 1393      00000000 
 1393      00000000 
 1393      00000000 
 1394              		.section	.bss.adCycle,"aw",%nobits
 1395              		.set	.LANCHOR0,. + 0
 1398              	adCycle:
 1399 0000 00       		.space	1
 1400              		.section	.bss.adRelease,"aw",%nobits
 1401              		.align	2
 1402              		.set	.LANCHOR6,. + 0
 1405              	adRelease:
 1406 0000 00000000 		.space	4
 1407              		.section	.bss.freq,"aw",%nobits
 1408              		.align	2
 1409              		.set	.LANCHOR3,. + 0
 1412              	freq:
 1413 0000 00000000 		.space	4
 1414              		.text
 1415              	.Letext0:
 1416              		.file 23 "/Library/DaisyToolchain/0.2.0/arm/arm-none-eabi/include/machine/_default_types.h"
 1417              		.file 24 "/Library/DaisyToolchain/0.2.0/arm/arm-none-eabi/include/sys/_stdint.h"
 1418              		.file 25 "/Library/DaisyToolchain/0.2.0/arm/arm-none-eabi/include/stdint.h"
 1419              		.file 26 "/Library/DaisyToolchain/0.2.0/arm/lib/gcc/arm-none-eabi/10.3.1/include/stddef.h"
 1420              		.file 27 "/Library/DaisyToolchain/0.2.0/arm/arm-none-eabi/include/c++/10.3.1/cmath"
 1421              		.file 28 "/Library/DaisyToolchain/0.2.0/arm/arm-none-eabi/include/c++/10.3.1/bits/std_abs.h"
 1422              		.file 29 "/Library/DaisyToolchain/0.2.0/arm/arm-none-eabi/include/c++/10.3.1/cstdlib"
 1423              		.file 30 "/Library/DaisyToolchain/0.2.0/arm/arm-none-eabi/include/c++/10.3.1/cstdint"
 1424              		.file 31 "/Library/DaisyToolchain/0.2.0/arm/arm-none-eabi/include/c++/10.3.1/arm-none-eabi/thumb/v
 1425              		.file 32 "/Library/DaisyToolchain/0.2.0/arm/arm-none-eabi/include/c++/10.3.1/type_traits"
 1426              		.file 33 "/Library/DaisyToolchain/0.2.0/arm/arm-none-eabi/include/c++/10.3.1/debug/debug.h"
 1427              		.file 34 "/Library/DaisyToolchain/0.2.0/arm/arm-none-eabi/include/c++/10.3.1/bits/algorithmfwd.h"
 1428              		.file 35 "/Library/DaisyToolchain/0.2.0/arm/arm-none-eabi/include/c++/10.3.1/bits/stl_pair.h"
 1429              		.file 36 "/Library/DaisyToolchain/0.2.0/arm/arm-none-eabi/include/c++/10.3.1/bits/exception_ptr.h"
ARM GAS  /var/folders/hp/45mn71hd0ps5f5pnytxy5bt00000gn/T//ccWGldgQ.s 			page 60


 1430              		.file 37 "/Library/DaisyToolchain/0.2.0/arm/arm-none-eabi/include/c++/10.3.1/initializer_list"
 1431              		.file 38 "/Library/DaisyToolchain/0.2.0/arm/arm-none-eabi/include/c++/10.3.1/cstdarg"
 1432              		.file 39 "/Library/DaisyToolchain/0.2.0/arm/arm-none-eabi/include/c++/10.3.1/cstdio"
 1433              		.file 40 "/Library/DaisyToolchain/0.2.0/arm/arm-none-eabi/include/c++/10.3.1/cstring"
 1434              		.file 41 "/Library/DaisyToolchain/0.2.0/arm/arm-none-eabi/include/c++/10.3.1/cwchar"
 1435              		.file 42 "/Library/DaisyToolchain/0.2.0/arm/arm-none-eabi/include/c++/10.3.1/clocale"
 1436              		.file 43 "/Library/DaisyToolchain/0.2.0/arm/arm-none-eabi/include/c++/10.3.1/bits/basic_string.h"
 1437              		.file 44 "/Library/DaisyToolchain/0.2.0/arm/arm-none-eabi/include/c++/10.3.1/bits/stl_iterator.h"
 1438              		.file 45 "/Library/DaisyToolchain/0.2.0/arm/arm-none-eabi/include/c++/10.3.1/bits/predefined_ops.h
 1439              		.file 46 "/Library/DaisyToolchain/0.2.0/arm/arm-none-eabi/include/sys/_types.h"
 1440              		.file 47 "/Library/DaisyToolchain/0.2.0/arm/arm-none-eabi/include/sys/reent.h"
 1441              		.file 48 "/Library/DaisyToolchain/0.2.0/arm/arm-none-eabi/include/sys/lock.h"
 1442              		.file 49 "/Library/DaisyToolchain/0.2.0/arm/arm-none-eabi/include/math.h"
 1443              		.file 50 "/Library/DaisyToolchain/0.2.0/arm/arm-none-eabi/include/stdlib.h"
 1444              		.file 51 "/Library/DaisyToolchain/0.2.0/arm/arm-none-eabi/include/c++/10.3.1/math.h"
 1445              		.file 52 "/Library/DaisyToolchain/0.2.0/arm/arm-none-eabi/include/c++/10.3.1/stdlib.h"
 1446              		.file 53 "../../DaisyExamples/libDaisy/src/daisy_core.h"
 1447              		.file 54 "../../DaisyExamples/libDaisy/src/per/tim.h"
 1448              		.file 55 "../../DaisyExamples/libDaisy/src/hid/MidiEvent.h"
 1449              		.file 56 "../../DaisyExamples/libDaisy/src/util/wav_format.h"
 1450              		.file 57 "../../DaisyExamples/libDaisy/src/util/color.h"
 1451              		.file 58 "../../DaisyExamples/libDaisy/src/dev/max11300.h"
 1452              		.file 59 "../../DaisyExamples/libDaisy/src/per/gpio.h"
 1453              		.file 60 "../../DaisyExamples/libDaisy/src/dev/sdram.h"
 1454              		.file 61 "/Library/DaisyToolchain/0.2.0/arm/lib/gcc/arm-none-eabi/10.3.1/include/stdarg.h"
 1455              		.file 62 "/Library/DaisyToolchain/0.2.0/arm/arm-none-eabi/include/stdio.h"
 1456              		.file 63 "/Library/DaisyToolchain/0.2.0/arm/arm-none-eabi/include/string.h"
 1457              		.file 64 "../../DaisyExamples/DaisySP/Source/Utility/dsp.h"
 1458              		.file 65 "/Library/DaisyToolchain/0.2.0/arm/arm-none-eabi/include/wchar.h"
 1459              		.file 66 "/Library/DaisyToolchain/0.2.0/arm/arm-none-eabi/include/locale.h"
 1460              		.file 67 "../../DaisyExamples/libDaisy/src/dev/sr_595.h"
 1461              		.file 68 "<built-in>"
ARM GAS  /var/folders/hp/45mn71hd0ps5f5pnytxy5bt00000gn/T//ccWGldgQ.s 			page 61

